
arch/arm/mach-sunxi/pm/standby/resume1.elf:     file format elf32-littlearm


Disassembly of section .text:

00000000 <resume_head>:
       0:	ea00000a 	b	30 <_start>
       4:	4e4f4765 	cdpmi	7, 4, cr4, cr15, cr5, {3}
       8:	3054422e 	subscc	r4, r4, lr, lsr #4
       c:	5f0a6c39 	svcpl	0x000a6c39
      10:	00000400 	andeq	r0, r0, r0, lsl #8
      14:	00000030 	andeq	r0, r0, r0, lsr r0
      18:	30303131 	eorscc	r3, r0, r1, lsr r1
      1c:	30333231 	eorscc	r3, r3, r1, lsr r2
      20:	30333231 	eorscc	r3, r3, r1, lsr r2
      24:	30303131 	eorscc	r3, r0, r1, lsr r1
	...

00000030 <_start>:
      30:	e10f0000 	mrs	r0, CPSR
      34:	e3c0001f 	bic	r0, r0, #31
      38:	e3800013 	orr	r0, r0, #19
      3c:	e38000c0 	orr	r0, r0, #192	; 0xc0
      40:	e3c00c02 	bic	r0, r0, #512	; 0x200
      44:	e121f000 	msr	CPSR_c, r0
      48:	ee110f10 	mrc	15, 0, r0, cr1, cr0, {0}
      4c:	e3c00005 	bic	r0, r0, #5
      50:	e3c00b06 	bic	r0, r0, #6144	; 0x1800
      54:	e3c00002 	bic	r0, r0, #2
      58:	ee010f10 	mcr	15, 0, r0, cr1, cr0, {0}
      5c:	f57ff04f 	dsb	sy
      60:	f57ff06f 	isb	sy
      64:	ee100fb0 	mrc	15, 0, r0, cr0, cr0, {5}
      68:	e7e10050 	ubfx	r0, r0, #0, #2
      6c:	e2800001 	add	r0, r0, #1
      70:	e1a00400 	lsl	r0, r0, #8
      74:	e280db0f 	add	sp, r0, #15360	; 0x3c00
      78:	f57ff04f 	dsb	sy
      7c:	f57ff06f 	isb	sy
      80:	eb000063 	bl	214 <set_pll>
      84:	eb000014 	bl	dc <resume1_c_part>
      88:	eafffffe 	b	88 <_start+0x58>

0000008c <mem_memcpy>:
      8c:	e2822003 	add	r2, r2, #3
      90:	e1a02142 	asr	r2, r2, #2
      94:	e3520000 	cmp	r2, #0
      98:	d12fff1e 	bxle	lr
      9c:	e2411004 	sub	r1, r1, #4
      a0:	e5b13004 	ldr	r3, [r1, #4]!
      a4:	e2522001 	subs	r2, r2, #1
      a8:	e4803004 	str	r3, [r0], #4
      ac:	1afffffb 	bne	a0 <mem_memcpy+0x14>
      b0:	e12fff1e 	bx	lr

000000b4 <mem_delay>:
      b4:	e92d000f 	push	{r0, r1, r2, r3}
      b8:	e3a01011 	mov	r1, #17
      bc:	e1a03000 	mov	r3, r0

000000c0 <loop2>:
      c0:	e2500001 	subs	r0, r0, #1
      c4:	8afffffd 	bhi	c0 <loop2>
      c8:	e1a00003 	mov	r0, r3
      cc:	e2511001 	subs	r1, r1, #1
      d0:	8afffffa 	bhi	c0 <loop2>
      d4:	e8bd000f 	pop	{r0, r1, r2, r3}
      d8:	e1a0f00e 	mov	pc, lr

000000dc <resume1_c_part>:
      dc:	e92d4038 	push	{r3, r4, r5, lr}
      e0:	e3a00047 	mov	r0, #71	; 0x47
      e4:	e59f4104 	ldr	r4, [pc, #260]	; 1f0 <resume1_c_part+0x114>
      e8:	eb00013e 	bl	5e8 <save_mem_status_nommu>
      ec:	eb00053b 	bl	15e0 <set_copro_default>
      f0:	e3a00048 	mov	r0, #72	; 0x48
      f4:	eb00013b 	bl	5e8 <save_mem_status_nommu>
      f8:	e2840054 	add	r0, r4, #84	; 0x54
      fc:	eb000aed 	bl	2cb8 <mem_clk_setdiv>
     100:	e2840098 	add	r0, r4, #152	; 0x98
     104:	eb000b19 	bl	2d70 <mem_clk_set_pll_factor>
     108:	eb00019d 	bl	784 <change_runtime_env>
     10c:	e5940018 	ldr	r0, [r4, #24]
     110:	eb0001ca 	bl	840 <delay_ms>
     114:	e5943014 	ldr	r3, [r4, #20]
     118:	e3130002 	tst	r3, #2
     11c:	1a000015 	bne	178 <resume1_c_part+0x9c>
     120:	e59f50c8 	ldr	r5, [pc, #200]	; 1f0 <resume1_c_part+0x114>
     124:	e3a00049 	mov	r0, #73	; 0x49
     128:	eb00012e 	bl	5e8 <save_mem_status_nommu>
     12c:	e28500a0 	add	r0, r5, #160	; 0xa0
     130:	eb000201 	bl	93c <restore_mmu_state>
     134:	e3a0004a 	mov	r0, #74	; 0x4a
     138:	eb0000d2 	bl	488 <save_mem_status>
     13c:	e3a0004b 	mov	r0, #75	; 0x4b
     140:	eb0000d0 	bl	488 <save_mem_status>
     144:	eb0002c0 	bl	c4c <mem_flush_tlb>
     148:	e3a00001 	mov	r0, #1
     14c:	eb000aad 	bl	2c08 <mem_clk_init>
     150:	e5943014 	ldr	r3, [r4, #20]
     154:	e3130002 	tst	r3, #2
     158:	1a000009 	bne	184 <resume1_c_part+0xa8>
     15c:	e3a0004e 	mov	r0, #78	; 0x4e
     160:	eb0000c8 	bl	488 <save_mem_status>
     164:	e5940000 	ldr	r0, [r4]
     168:	e59f1084 	ldr	r1, [pc, #132]	; 1f4 <resume1_c_part+0x118>
     16c:	eb000327 	bl	e10 <jump_to_resume>
     170:	e3a00000 	mov	r0, #0
     174:	e8bd8038 	pop	{r3, r4, r5, pc}
     178:	e59f0078 	ldr	r0, [pc, #120]	; 1f8 <resume1_c_part+0x11c>
     17c:	eb0005d1 	bl	18c8 <serial_puts_nommu>
     180:	eaffffe6 	b	120 <resume1_c_part+0x44>
     184:	e59f0070 	ldr	r0, [pc, #112]	; 1fc <resume1_c_part+0x120>
     188:	eb00064a 	bl	1ab8 <serial_puts>
     18c:	eb00020f 	bl	9d0 <get_cur_cluster_id>
     190:	e1a01000 	mov	r1, r0
     194:	e59f0064 	ldr	r0, [pc, #100]	; 200 <resume1_c_part+0x124>
     198:	eb000728 	bl	1e40 <printk>
     19c:	e5951014 	ldr	r1, [r5, #20]
     1a0:	e59f005c 	ldr	r0, [pc, #92]	; 204 <resume1_c_part+0x128>
     1a4:	eb000725 	bl	1e40 <printk>
     1a8:	e5951018 	ldr	r1, [r5, #24]
     1ac:	e59f0054 	ldr	r0, [pc, #84]	; 208 <resume1_c_part+0x12c>
     1b0:	eb000722 	bl	1e40 <printk>
     1b4:	e5953014 	ldr	r3, [r5, #20]
     1b8:	e3130008 	tst	r3, #8
     1bc:	e3a03000 	mov	r3, #0
     1c0:	130018b4 	movwne	r1, #2228	; 0x8b4
     1c4:	134f31c2 	movtne	r3, #61890	; 0xf1c2
     1c8:	03001824 	movweq	r1, #2084	; 0x824
     1cc:	034f31c2 	movteq	r3, #61890	; 0xf1c2
     1d0:	134f11c2 	movtne	r1, #61890	; 0xf1c2
     1d4:	159328b4 	ldrne	r2, [r3, #2228]	; 0x8b4
     1d8:	159f002c 	ldrne	r0, [pc, #44]	; 20c <resume1_c_part+0x130>
     1dc:	034f11c2 	movteq	r1, #61890	; 0xf1c2
     1e0:	059f0028 	ldreq	r0, [pc, #40]	; 210 <resume1_c_part+0x134>
     1e4:	05932824 	ldreq	r2, [r3, #2084]	; 0x824
     1e8:	eb000714 	bl	1e40 <printk>
     1ec:	eaffffda 	b	15c <resume1_c_part+0x80>
     1f0:	00003370 	andeq	r3, r0, r0, ror r3
     1f4:	0000338c 	andeq	r3, r0, ip, lsl #7
     1f8:	00002fc8 	andeq	r2, r0, r8, asr #31
     1fc:	00002fec 	andeq	r2, r0, ip, ror #31
     200:	0000301c 	andeq	r3, r0, ip, lsl r0
     204:	00003038 	andeq	r3, r0, r8, lsr r0
     208:	0000305c 	andeq	r3, r0, ip, asr r0
     20c:	0000308c 	andeq	r3, r0, ip, lsl #1
     210:	000030a4 	andeq	r3, r0, r4, lsr #1

00000214 <set_pll>:
     214:	e92d4038 	push	{r3, r4, r5, lr}
     218:	ee100fb0 	mrc	15, 0, r0, cr0, cr0, {5}
     21c:	e2100003 	ands	r0, r0, #3
     220:	1a000036 	bne	300 <set_pll+0xec>
     224:	e59f2140 	ldr	r2, [pc, #320]	; 36c <set_pll+0x158>
     228:	e59f1140 	ldr	r1, [pc, #320]	; 370 <set_pll+0x15c>
     22c:	e5923000 	ldr	r3, [r2]
     230:	e4830004 	str	r0, [r3], #4
     234:	e1530001 	cmp	r3, r1
     238:	9afffffc 	bls	230 <set_pll+0x1c>
     23c:	e5823000 	str	r3, [r2]
     240:	e3a00000 	mov	r0, #0
     244:	e59f5128 	ldr	r5, [pc, #296]	; 374 <set_pll+0x160>
     248:	eb000a6e 	bl	2c08 <mem_clk_init>
     24c:	e1a04000 	mov	r4, r0
     250:	eb00005d 	bl	3cc <mem_status_init_nommu>
     254:	e3a00020 	mov	r0, #32
     258:	eb0000e2 	bl	5e8 <save_mem_status_nommu>
     25c:	e3a03801 	mov	r3, #65536	; 0x10000
     260:	e3a01000 	mov	r1, #0
     264:	e5843050 	str	r3, [r4, #80]	; 0x50
     268:	e1a00005 	mov	r0, r5
     26c:	e3441308 	movt	r1, #17160	; 0x4308
     270:	e3a020c4 	mov	r2, #196	; 0xc4
     274:	ebffff84 	bl	8c <mem_memcpy>
     278:	e3a00021 	mov	r0, #33	; 0x21
     27c:	eb0000d9 	bl	5e8 <save_mem_status_nommu>
     280:	e5953014 	ldr	r3, [r5, #20]
     284:	e3130004 	tst	r3, #4
     288:	1a00002d 	bne	344 <set_pll+0x130>
     28c:	e59f00e4 	ldr	r0, [pc, #228]	; 378 <set_pll+0x164>
     290:	eb000add 	bl	2e0c <mem_clk_set_misc>
     294:	e3a00023 	mov	r0, #35	; 0x23
     298:	eb0000d2 	bl	5e8 <save_mem_status_nommu>
     29c:	e3a03c11 	mov	r3, #4352	; 0x1100
     2a0:	e3a00024 	mov	r0, #36	; 0x24
     2a4:	e3483200 	movt	r3, #33280	; 0x8200
     2a8:	e5843000 	str	r3, [r4]
     2ac:	eb0000cd 	bl	5e8 <save_mem_status_nommu>
     2b0:	e3a00001 	mov	r0, #1
     2b4:	e3a01000 	mov	r1, #0
     2b8:	eb00010e 	bl	6f8 <init_perfcounters>
     2bc:	eb000130 	bl	784 <change_runtime_env>
     2c0:	e3a0000a 	mov	r0, #10
     2c4:	eb00015d 	bl	840 <delay_ms>
     2c8:	e5950014 	ldr	r0, [r5, #20]
     2cc:	e3100002 	tst	r0, #2
     2d0:	1a000016 	bne	330 <set_pll+0x11c>
     2d4:	e3a00026 	mov	r0, #38	; 0x26
     2d8:	eb0000c2 	bl	5e8 <save_mem_status_nommu>
     2dc:	e5943050 	ldr	r3, [r4, #80]	; 0x50
     2e0:	e3a00027 	mov	r0, #39	; 0x27
     2e4:	e3833a01 	orr	r3, r3, #4096	; 0x1000
     2e8:	e5843050 	str	r3, [r4, #80]	; 0x50
     2ec:	eb0000bd 	bl	5e8 <save_mem_status_nommu>
     2f0:	eb000123 	bl	784 <change_runtime_env>
     2f4:	e3a00064 	mov	r0, #100	; 0x64
     2f8:	e8bd4038 	pop	{r3, r4, r5, lr}
     2fc:	ea00012d 	b	7b8 <delay_us>
     300:	e3a03000 	mov	r3, #0
     304:	ee083f33 	mcr	15, 0, r3, cr8, cr3, {1}
     308:	f57ff04f 	dsb	sy
     30c:	e300357d 	movw	r3, #1405	; 0x57d
     310:	e3a020ff 	mov	r2, #255	; 0xff
     314:	e340307c 	movt	r3, #124	; 0x7c
     318:	e0803003 	add	r3, r0, r3
     31c:	e1a03103 	lsl	r3, r3, #2
     320:	e5832000 	str	r2, [r3]
     324:	f57ff04f 	dsb	sy
     328:	e320f004 	sev
     32c:	eaffffe8 	b	2d4 <set_pll+0xc0>
     330:	e2000008 	and	r0, r0, #8
     334:	eb000542 	bl	1844 <serial_init_nommu>
     338:	e59f003c 	ldr	r0, [pc, #60]	; 37c <set_pll+0x168>
     33c:	eb000561 	bl	18c8 <serial_puts_nommu>
     340:	eaffffe3 	b	2d4 <set_pll+0xc0>
     344:	e3130008 	tst	r3, #8
     348:	e3a03000 	mov	r3, #0
     34c:	13032033 	movwne	r2, #12339	; 0x3033
     350:	134031c2 	movtne	r3, #450	; 0x1c2
     354:	13402030 	movtne	r2, #48	; 0x30
     358:	034031c2 	movteq	r3, #450	; 0x1c2
     35c:	03032333 	movweq	r2, #13107	; 0x3333
     360:	158328b4 	strne	r2, [r3, #2228]	; 0x8b4
     364:	05832824 	streq	r2, [r3, #2084]	; 0x824
     368:	eaffffc7 	b	28c <set_pll+0x78>
     36c:	00003164 	andeq	r3, r0, r4, ror #2
     370:	00003550 	andeq	r3, r0, r0, asr r5
     374:	00003370 	andeq	r3, r0, r0, ror r3
     378:	000033cc 	andeq	r3, r0, ip, asr #7
     37c:	000030bc 	strheq	r3, [r0], -ip

00000380 <busy_waiting>:
     380:	e24dd008 	sub	sp, sp, #8
     384:	e3a03001 	mov	r3, #1
     388:	e58d3004 	str	r3, [sp, #4]
     38c:	e59d3004 	ldr	r3, [sp, #4]
     390:	e3530001 	cmp	r3, #1
     394:	0afffffc 	beq	38c <busy_waiting+0xc>
     398:	e28dd008 	add	sp, sp, #8
     39c:	e12fff1e 	bx	lr

000003a0 <save_mem_flag>:
     3a0:	e12fff1e 	bx	lr

000003a4 <clear_mem_flag>:
     3a4:	e12fff1e 	bx	lr

000003a8 <mem_status_init>:
     3a8:	e30115f0 	movw	r1, #5616	; 0x15f0
     3ac:	e3033168 	movw	r3, #12648	; 0x3168
     3b0:	e1a02001 	mov	r2, r1
     3b4:	e3403000 	movt	r3, #0
     3b8:	e34f11f0 	movt	r1, #61936	; 0xf1f0
     3bc:	e34021f0 	movt	r2, #496	; 0x1f0
     3c0:	e3a00001 	mov	r0, #1
     3c4:	e8830006 	stm	r3, {r1, r2}
     3c8:	ea0009b0 	b	2a90 <hwspinlock_init>

000003cc <mem_status_init_nommu>:
     3cc:	e30115f0 	movw	r1, #5616	; 0x15f0
     3d0:	e3033168 	movw	r3, #12648	; 0x3168
     3d4:	e1a02001 	mov	r2, r1
     3d8:	e3403000 	movt	r3, #0
     3dc:	e34f11f0 	movt	r1, #61936	; 0xf1f0
     3e0:	e34021f0 	movt	r2, #496	; 0x1f0
     3e4:	e3a00000 	mov	r0, #0
     3e8:	e8830006 	stm	r3, {r1, r2}
     3ec:	ea0009a7 	b	2a90 <hwspinlock_init>

000003f0 <mem_status_clear>:
     3f0:	e92d4010 	push	{r4, lr}
     3f4:	e3a00002 	mov	r0, #2
     3f8:	e59f4080 	ldr	r4, [pc, #128]	; 480 <mem_status_clear+0x90>
     3fc:	e3041e20 	movw	r1, #20000	; 0x4e20
     400:	e5943000 	ldr	r3, [r4]
     404:	e5933000 	ldr	r3, [r3]
     408:	e5843008 	str	r3, [r4, #8]
     40c:	eb0009ab 	bl	2ac0 <hwspin_lock_timeout>
     410:	e3500000 	cmp	r0, #0
     414:	18bd8010 	popne	{r4, pc}
     418:	e5942000 	ldr	r2, [r4]
     41c:	e3a01001 	mov	r1, #1
     420:	e5943008 	ldr	r3, [r4, #8]
     424:	e281c001 	add	ip, r1, #1
     428:	e7d13811 	bfi	r3, r1, #16, #2
     42c:	e21c1003 	ands	r1, ip, #3
     430:	e5843008 	str	r3, [r4, #8]
     434:	e5c40009 	strb	r0, [r4, #9]
     438:	e594c008 	ldr	ip, [r4, #8]
     43c:	e1a0300c 	mov	r3, ip
     440:	e582c000 	str	ip, [r2]
     444:	e7df3f9f 	bfc	r3, #31, #1
     448:	e5843008 	str	r3, [r4, #8]
     44c:	e5823000 	str	r3, [r2]
     450:	e5943008 	ldr	r3, [r4, #8]
     454:	e3833102 	orr	r3, r3, #-2147483648	; 0x80000000
     458:	e5843008 	str	r3, [r4, #8]
     45c:	e5823000 	str	r3, [r2]
     460:	e5943008 	ldr	r3, [r4, #8]
     464:	e7df3f9f 	bfc	r3, #31, #1
     468:	e5843008 	str	r3, [r4, #8]
     46c:	e5823000 	str	r3, [r2]
     470:	1affffea 	bne	420 <mem_status_clear+0x30>
     474:	e3a00002 	mov	r0, #2
     478:	e8bd4010 	pop	{r4, lr}
     47c:	ea0009ae 	b	2b3c <hwspin_unlock>
     480:	00003168 	andeq	r3, r0, r8, ror #2

00000484 <mem_status_exit>:
     484:	e12fff1e 	bx	lr

00000488 <save_mem_status>:
     488:	e92d4010 	push	{r4, lr}
     48c:	e24dd008 	sub	sp, sp, #8
     490:	e58d0004 	str	r0, [sp, #4]
     494:	e3041e20 	movw	r1, #20000	; 0x4e20
     498:	e3a00002 	mov	r0, #2
     49c:	eb000987 	bl	2ac0 <hwspin_lock_timeout>
     4a0:	e2503000 	subs	r3, r0, #0
     4a4:	1a000017 	bne	508 <save_mem_status+0x80>
     4a8:	e59f2068 	ldr	r2, [pc, #104]	; 518 <save_mem_status+0x90>
     4ac:	e3a04001 	mov	r4, #1
     4b0:	e59de004 	ldr	lr, [sp, #4]
     4b4:	e3a00002 	mov	r0, #2
     4b8:	e592c008 	ldr	ip, [r2, #8]
     4bc:	e5921000 	ldr	r1, [r2]
     4c0:	e7d1c814 	bfi	ip, r4, #16, #2
     4c4:	e582c008 	str	ip, [r2, #8]
     4c8:	e5c2e009 	strb	lr, [r2, #9]
     4cc:	e592e008 	ldr	lr, [r2, #8]
     4d0:	e1a0c00e 	mov	ip, lr
     4d4:	e581e000 	str	lr, [r1]
     4d8:	e7dfcf93 	bfi	ip, r3, #31, #1
     4dc:	e582c008 	str	ip, [r2, #8]
     4e0:	e581c000 	str	ip, [r1]
     4e4:	e592c008 	ldr	ip, [r2, #8]
     4e8:	e38cc102 	orr	ip, ip, #-2147483648	; 0x80000000
     4ec:	e582c008 	str	ip, [r2, #8]
     4f0:	e581c000 	str	ip, [r1]
     4f4:	e592c008 	ldr	ip, [r2, #8]
     4f8:	e7dfcf93 	bfi	ip, r3, #31, #1
     4fc:	e582c008 	str	ip, [r2, #8]
     500:	e581c000 	str	ip, [r1]
     504:	eb00098c 	bl	2b3c <hwspin_unlock>
     508:	f57ff04f 	dsb	sy
     50c:	f57ff06f 	isb	sy
     510:	e28dd008 	add	sp, sp, #8
     514:	e8bd8010 	pop	{r4, pc}
     518:	00003168 	andeq	r3, r0, r8, ror #2

0000051c <get_mem_status>:
     51c:	e92d4010 	push	{r4, lr}
     520:	e3a02001 	mov	r2, #1
     524:	e59f4040 	ldr	r4, [pc, #64]	; 56c <get_mem_status+0x50>
     528:	e3a00002 	mov	r0, #2
     52c:	e3041e20 	movw	r1, #20000	; 0x4e20
     530:	e5943008 	ldr	r3, [r4, #8]
     534:	e7d13812 	bfi	r3, r2, #16, #2
     538:	e5843008 	str	r3, [r4, #8]
     53c:	eb00095f 	bl	2ac0 <hwspin_lock_timeout>
     540:	e3500000 	cmp	r0, #0
     544:	1a000006 	bne	564 <get_mem_status+0x48>
     548:	e5943000 	ldr	r3, [r4]
     54c:	e3a00002 	mov	r0, #2
     550:	e5942008 	ldr	r2, [r4, #8]
     554:	e5832000 	str	r2, [r3]
     558:	e5933000 	ldr	r3, [r3]
     55c:	e5843008 	str	r3, [r4, #8]
     560:	eb000975 	bl	2b3c <hwspin_unlock>
     564:	e5d40008 	ldrb	r0, [r4, #8]
     568:	e8bd8010 	pop	{r4, pc}
     56c:	00003168 	andeq	r3, r0, r8, ror #2

00000570 <show_mem_status>:
     570:	e92d4070 	push	{r4, r5, r6, lr}
     574:	e3a04001 	mov	r4, #1
     578:	e59f5060 	ldr	r5, [pc, #96]	; 5e0 <show_mem_status+0x70>
     57c:	e1a06005 	mov	r6, r5
     580:	e5953008 	ldr	r3, [r5, #8]
     584:	e3041e20 	movw	r1, #20000	; 0x4e20
     588:	e3a00002 	mov	r0, #2
     58c:	e7d13814 	bfi	r3, r4, #16, #2
     590:	e5853008 	str	r3, [r5, #8]
     594:	eb000949 	bl	2ac0 <hwspin_lock_timeout>
     598:	e3500000 	cmp	r0, #0
     59c:	0a000007 	beq	5c0 <show_mem_status+0x50>
     5a0:	e1a01004 	mov	r1, r4
     5a4:	e59f0038 	ldr	r0, [pc, #56]	; 5e4 <show_mem_status+0x74>
     5a8:	e5d52008 	ldrb	r2, [r5, #8]
     5ac:	e2844001 	add	r4, r4, #1
     5b0:	eb000622 	bl	1e40 <printk>
     5b4:	e3540004 	cmp	r4, #4
     5b8:	1afffff0 	bne	580 <show_mem_status+0x10>
     5bc:	e8bd8070 	pop	{r4, r5, r6, pc}
     5c0:	e5963000 	ldr	r3, [r6]
     5c4:	e3a00002 	mov	r0, #2
     5c8:	e5962008 	ldr	r2, [r6, #8]
     5cc:	e5832000 	str	r2, [r3]
     5d0:	e5933000 	ldr	r3, [r3]
     5d4:	e5863008 	str	r3, [r6, #8]
     5d8:	eb000957 	bl	2b3c <hwspin_unlock>
     5dc:	eaffffef 	b	5a0 <show_mem_status+0x30>
     5e0:	00003168 	andeq	r3, r0, r8, ror #2
     5e4:	000030d0 	ldrdeq	r3, [r0], -r0

000005e8 <save_mem_status_nommu>:
     5e8:	e92d4030 	push	{r4, r5, lr}
     5ec:	e24dd00c 	sub	sp, sp, #12
     5f0:	e58d0004 	str	r0, [sp, #4]
     5f4:	e3041e20 	movw	r1, #20000	; 0x4e20
     5f8:	e3a00002 	mov	r0, #2
     5fc:	eb00095a 	bl	2b6c <hwspin_lock_timeout_nommu>
     600:	e250c000 	subs	ip, r0, #0
     604:	0a000001 	beq	610 <save_mem_status_nommu+0x28>
     608:	e28dd00c 	add	sp, sp, #12
     60c:	e8bd8030 	pop	{r4, r5, pc}
     610:	e59f3060 	ldr	r3, [pc, #96]	; 678 <save_mem_status_nommu+0x90>
     614:	e3a05001 	mov	r5, #1
     618:	e59d4004 	ldr	r4, [sp, #4]
     61c:	e3a00002 	mov	r0, #2
     620:	e593100c 	ldr	r1, [r3, #12]
     624:	e5932004 	ldr	r2, [r3, #4]
     628:	e7d11815 	bfi	r1, r5, #16, #2
     62c:	e583100c 	str	r1, [r3, #12]
     630:	e5c3400d 	strb	r4, [r3, #13]
     634:	e593400c 	ldr	r4, [r3, #12]
     638:	e1a01004 	mov	r1, r4
     63c:	e5824000 	str	r4, [r2]
     640:	e7df1f9c 	bfi	r1, ip, #31, #1
     644:	e583100c 	str	r1, [r3, #12]
     648:	e5821000 	str	r1, [r2]
     64c:	e593100c 	ldr	r1, [r3, #12]
     650:	e3811102 	orr	r1, r1, #-2147483648	; 0x80000000
     654:	e583100c 	str	r1, [r3, #12]
     658:	e5821000 	str	r1, [r2]
     65c:	e593100c 	ldr	r1, [r3, #12]
     660:	e7df1f9c 	bfi	r1, ip, #31, #1
     664:	e583100c 	str	r1, [r3, #12]
     668:	e5821000 	str	r1, [r2]
     66c:	e28dd00c 	add	sp, sp, #12
     670:	e8bd4030 	pop	{r4, r5, lr}
     674:	ea000957 	b	2bd8 <hwspin_unlock_nommu>
     678:	00003168 	andeq	r3, r0, r8, ror #2

0000067c <io_init>:
     67c:	e3a03000 	mov	r3, #0
     680:	e3012111 	movw	r2, #4369	; 0x1111
     684:	e34f31c2 	movt	r3, #61890	; 0xf1c2
     688:	e3402011 	movt	r2, #17
     68c:	e5832890 	str	r2, [r3, #2192]	; 0x890
     690:	e12fff1e 	bx	lr

00000694 <io_init_high>:
     694:	e3a03000 	mov	r3, #0
     698:	e34f31c2 	movt	r3, #61890	; 0xf1c2
     69c:	e59328a0 	ldr	r2, [r3, #2208]	; 0x8a0
     6a0:	e382203f 	orr	r2, r2, #63	; 0x3f
     6a4:	e58328a0 	str	r2, [r3, #2208]	; 0x8a0
     6a8:	e12fff1e 	bx	lr

000006ac <io_init_low>:
     6ac:	e3a03000 	mov	r3, #0
     6b0:	e34f31c2 	movt	r3, #61890	; 0xf1c2
     6b4:	e59328a0 	ldr	r2, [r3, #2208]	; 0x8a0
     6b8:	e3c2203f 	bic	r2, r2, #63	; 0x3f
     6bc:	e58328a0 	str	r2, [r3, #2208]	; 0x8a0
     6c0:	e12fff1e 	bx	lr

000006c4 <io_high>:
     6c4:	e92d4070 	push	{r4, r5, r6, lr}
     6c8:	e3a04000 	mov	r4, #0
     6cc:	e34f41c2 	movt	r4, #61890	; 0xf1c2
     6d0:	e3a05001 	mov	r5, #1
     6d4:	e1a05015 	lsl	r5, r5, r0
     6d8:	e3020710 	movw	r0, #10000	; 0x2710
     6dc:	e59468a0 	ldr	r6, [r4, #2208]	; 0x8a0
     6e0:	e1c66005 	bic	r6, r6, r5
     6e4:	e58468a0 	str	r6, [r4, #2208]	; 0x8a0
     6e8:	e1865005 	orr	r5, r6, r5
     6ec:	eb000031 	bl	7b8 <delay_us>
     6f0:	e58458a0 	str	r5, [r4, #2208]	; 0x8a0
     6f4:	e8bd8070 	pop	{r4, r5, r6, pc}

000006f8 <init_perfcounters>:
     6f8:	e3500000 	cmp	r0, #0
     6fc:	13a00007 	movne	r0, #7
     700:	03a00001 	moveq	r0, #1
     704:	e3510000 	cmp	r1, #0
     708:	13800008 	orrne	r0, r0, #8
     70c:	e3800010 	orr	r0, r0, #16
     710:	ee090f1c 	mcr	15, 0, r0, cr9, cr12, {0}
     714:	e3a0313e 	mov	r3, #-2147483633	; 0x8000000f
     718:	ee093f3c 	mcr	15, 0, r3, cr9, cr12, {1}
     71c:	ee093f7c 	mcr	15, 0, r3, cr9, cr12, {3}
     720:	f57ff04f 	dsb	sy
     724:	f57ff06f 	isb	sy
     728:	e12fff1e 	bx	lr

0000072c <backup_perfcounter>:
     72c:	ee192f1c 	mrc	15, 0, r2, cr9, cr12, {0}
     730:	e303317c 	movw	r3, #12668	; 0x317c
     734:	e3403000 	movt	r3, #0
     738:	e5832000 	str	r2, [r3]
     73c:	ee192f3c 	mrc	15, 0, r2, cr9, cr12, {1}
     740:	e5832004 	str	r2, [r3, #4]
     744:	e12fff1e 	bx	lr

00000748 <restore_perfcounter>:
     748:	e303317c 	movw	r3, #12668	; 0x317c
     74c:	e3403000 	movt	r3, #0
     750:	e5933000 	ldr	r3, [r3]
     754:	ee093f1c 	mcr	15, 0, r3, cr9, cr12, {0}
     758:	e303317c 	movw	r3, #12668	; 0x317c
     75c:	e3403000 	movt	r3, #0
     760:	e5933004 	ldr	r3, [r3, #4]
     764:	ee093f3c 	mcr	15, 0, r3, cr9, cr12, {1}
     768:	e12fff1e 	bx	lr

0000076c <get_cyclecount>:
     76c:	ee190f1d 	mrc	15, 0, r0, cr9, cr13, {0}
     770:	e12fff1e 	bx	lr

00000774 <reset_counter>:
     774:	ee193f1c 	mrc	15, 0, r3, cr9, cr12, {0}
     778:	e3833004 	orr	r3, r3, #4
     77c:	ee093f1c 	mcr	15, 0, r3, cr9, cr12, {0}
     780:	e12fff1e 	bx	lr

00000784 <change_runtime_env>:
     784:	e92d4010 	push	{r4, lr}
     788:	ee192f1d 	mrc	15, 0, r2, cr9, cr13, {0}
     78c:	ee193f1d 	mrc	15, 0, r3, cr9, cr13, {0}
     790:	e59f401c 	ldr	r4, [pc, #28]	; 7b4 <change_runtime_env+0x30>
     794:	e1520003 	cmp	r2, r3
     798:	81e02002 	mvnhi	r2, r2
     79c:	90623003 	rsbls	r3, r2, r3
     7a0:	80823003 	addhi	r3, r2, r3
     7a4:	e5843008 	str	r3, [r4, #8]
     7a8:	eb0009e8 	bl	2f50 <mem_clk_get_cpu_freq>
     7ac:	e584000c 	str	r0, [r4, #12]
     7b0:	e8bd8010 	pop	{r4, pc}
     7b4:	0000317c 	andeq	r3, r0, ip, ror r1

000007b8 <delay_us>:
     7b8:	e92d4038 	push	{r3, r4, r5, lr}
     7bc:	e1a05000 	mov	r5, r0
     7c0:	e59f4074 	ldr	r4, [pc, #116]	; 83c <delay_us+0x84>
     7c4:	e594000c 	ldr	r0, [r4, #12]
     7c8:	e3500ffa 	cmp	r0, #1000	; 0x3e8
     7cc:	8a000002 	bhi	7dc <delay_us+0x24>
     7d0:	f57ff05f 	dmb	sy
     7d4:	f57ff06f 	isb	sy
     7d8:	e8bd8038 	pop	{r3, r4, r5, pc}
     7dc:	e3a01ffa 	mov	r1, #1000	; 0x3e8
     7e0:	eb000778 	bl	25c8 <raw_lib_udiv>
     7e4:	ee193f1d 	mrc	15, 0, r3, cr9, cr13, {0}
     7e8:	e5942008 	ldr	r2, [r4, #8]
     7ec:	e0255590 	mla	r5, r0, r5, r5
     7f0:	e0622003 	rsb	r2, r2, r3
     7f4:	e0825005 	add	r5, r2, r5
     7f8:	ee192f3c 	mrc	15, 0, r2, cr9, cr12, {1}
     7fc:	e202213e 	and	r2, r2, #-2147483633	; 0x8000000f
     800:	e352013e 	cmp	r2, #-2147483633	; 0x8000000f
     804:	0a000008 	beq	82c <delay_us+0x74>
     808:	e3a02017 	mov	r2, #23
     80c:	ee092f1c 	mcr	15, 0, r2, cr9, cr12, {0}
     810:	e3a0213e 	mov	r2, #-2147483633	; 0x8000000f
     814:	ee092f3c 	mcr	15, 0, r2, cr9, cr12, {1}
     818:	ee092f7c 	mcr	15, 0, r2, cr9, cr12, {3}
     81c:	f57ff04f 	dsb	sy
     820:	f57ff06f 	isb	sy
     824:	ea000000 	b	82c <delay_us+0x74>
     828:	ee193f1d 	mrc	15, 0, r3, cr9, cr13, {0}
     82c:	e0653003 	rsb	r3, r5, r3
     830:	e3530000 	cmp	r3, #0
     834:	bafffffb 	blt	828 <delay_us+0x70>
     838:	eaffffe4 	b	7d0 <delay_us+0x18>
     83c:	0000317c 	andeq	r3, r0, ip, ror r1

00000840 <delay_ms>:
     840:	e350000a 	cmp	r0, #10
     844:	e92d4010 	push	{r4, lr}
     848:	e1a04000 	mov	r4, r0
     84c:	9a000004 	bls	864 <delay_ms+0x24>
     850:	e3020710 	movw	r0, #10000	; 0x2710
     854:	e244400a 	sub	r4, r4, #10
     858:	ebffffd6 	bl	7b8 <delay_us>
     85c:	e354000a 	cmp	r4, #10
     860:	8afffffa 	bhi	850 <delay_ms+0x10>
     864:	e3a00ffa 	mov	r0, #1000	; 0x3e8
     868:	e0000490 	mul	r0, r0, r4
     86c:	e8bd4010 	pop	{r4, lr}
     870:	eaffffd0 	b	7b8 <delay_us>

00000874 <init_event_counter>:
     874:	e3500000 	cmp	r0, #0
     878:	13a00007 	movne	r0, #7
     87c:	03a00001 	moveq	r0, #1
     880:	e3510000 	cmp	r1, #0
     884:	13800008 	orrne	r0, r0, #8
     888:	e3800010 	orr	r0, r0, #16
     88c:	ee090f1c 	mcr	15, 0, r0, cr9, cr12, {0}
     890:	e3a0313e 	mov	r3, #-2147483633	; 0x8000000f
     894:	ee093f3c 	mcr	15, 0, r3, cr9, cr12, {1}
     898:	ee093f7c 	mcr	15, 0, r3, cr9, cr12, {3}
     89c:	e12fff1e 	bx	lr

000008a0 <set_event_counter>:
     8a0:	e2403002 	sub	r3, r0, #2
     8a4:	e3530003 	cmp	r3, #3
     8a8:	959f2018 	ldrls	r2, [pc, #24]	; 8c8 <set_event_counter+0x28>
     8ac:	83a03000 	movhi	r3, #0
     8b0:	97923103 	ldrls	r3, [r2, r3, lsl #2]
     8b4:	ee093fbc 	mcr	15, 0, r3, cr9, cr12, {5}
     8b8:	ee090f3d 	mcr	15, 0, r0, cr9, cr13, {1}
     8bc:	f57ff04f 	dsb	sy
     8c0:	f57ff06f 	isb	sy
     8c4:	e12fff1e 	bx	lr
     8c8:	00002fac 	andeq	r2, r0, ip, lsr #31

000008cc <get_event_counter>:
     8cc:	e2400002 	sub	r0, r0, #2
     8d0:	e3500003 	cmp	r0, #3
     8d4:	959f3018 	ldrls	r3, [pc, #24]	; 8f4 <get_event_counter+0x28>
     8d8:	83a03000 	movhi	r3, #0
     8dc:	97933100 	ldrls	r3, [r3, r0, lsl #2]
     8e0:	ee093fbc 	mcr	15, 0, r3, cr9, cr12, {5}
     8e4:	ee190f5d 	mrc	15, 0, r0, cr9, cr13, {2}
     8e8:	f57ff04f 	dsb	sy
     8ec:	f57ff06f 	isb	sy
     8f0:	e12fff1e 	bx	lr
     8f4:	00002fac 	andeq	r2, r0, ip, lsr #31
	...

00000900 <save_mmu_state>:
     900:	ee503f10 	mrc	15, 2, r3, cr0, cr0, {0}
     904:	e5803000 	str	r3, [r0]
     908:	ee113f50 	mrc	15, 0, r3, cr1, cr0, {2}
     90c:	e5803008 	str	r3, [r0, #8]
     910:	ee133f10 	mrc	15, 0, r3, cr3, cr0, {0}
     914:	e5803018 	str	r3, [r0, #24]
     918:	ee123f10 	mrc	15, 0, r3, cr2, cr0, {0}
     91c:	e580300c 	str	r3, [r0, #12]
     920:	ee123f30 	mrc	15, 0, r3, cr2, cr0, {1}
     924:	e5803010 	str	r3, [r0, #16]
     928:	ee123f50 	mrc	15, 0, r3, cr2, cr0, {2}
     92c:	e5803014 	str	r3, [r0, #20]
     930:	ee113f10 	mrc	15, 0, r3, cr1, cr0, {0}
     934:	e5803004 	str	r3, [r0, #4]
     938:	e12fff1e 	bx	lr

0000093c <restore_mmu_state>:
     93c:	e5903000 	ldr	r3, [r0]
     940:	ee403f10 	mcr	15, 2, r3, cr0, cr0, {0}
     944:	e5903008 	ldr	r3, [r0, #8]
     948:	ee013f50 	mcr	15, 0, r3, cr1, cr0, {2}
     94c:	e5903018 	ldr	r3, [r0, #24]
     950:	ee033f10 	mcr	15, 0, r3, cr3, cr0, {0}
     954:	e5903010 	ldr	r3, [r0, #16]
     958:	ee023f10 	mcr	15, 0, r3, cr2, cr0, {0}
     95c:	ee023f30 	mcr	15, 0, r3, cr2, cr0, {1}
     960:	e5903014 	ldr	r3, [r0, #20]
     964:	ee023f50 	mcr	15, 0, r3, cr2, cr0, {2}
     968:	ea000004 	b	980 <__turn_mmu_on>
     96c:	e320f000 	nop	{0}
     970:	e320f000 	nop	{0}
     974:	e320f000 	nop	{0}
     978:	e320f000 	nop	{0}
     97c:	e320f000 	nop	{0}

00000980 <__turn_mmu_on>:
     980:	e1a00000 	nop			; (mov r0, r0)
     984:	e5903004 	ldr	r3, [r0, #4]
     988:	ee013f10 	mcr	15, 0, r3, cr1, cr0, {0}
     98c:	ee103f10 	mrc	15, 0, r3, cr0, cr0, {0}
     990:	e1a03003 	mov	r3, r3
     994:	e1a03003 	mov	r3, r3
     998:	f57ff06f 	isb	sy
     99c:	e12fff1e 	bx	lr

000009a0 <save_sp>:
     9a0:	e1a0000d 	mov	r0, sp
     9a4:	e59fd4bc 	ldr	sp, [pc, #1212]	; e68 <jump_to_resume0_nommu+0x28>
     9a8:	e1a0f00e 	mov	pc, lr

000009ac <save_sp_nommu>:
     9ac:	e1a0000d 	mov	r0, sp
     9b0:	e59fd4b4 	ldr	sp, [pc, #1204]	; e6c <jump_to_resume0_nommu+0x2c>
     9b4:	e1a0f00e 	mov	pc, lr

000009b8 <restore_sp>:
     9b8:	e1a0d000 	mov	sp, r0
     9bc:	e1a0f00e 	mov	pc, lr

000009c0 <get_sp>:
     9c0:	e1a0000d 	mov	r0, sp
     9c4:	e1a0f00e 	mov	pc, lr
     9c8:	e320f000 	nop	{0}
     9cc:	e320f000 	nop	{0}

000009d0 <get_cur_cluster_id>:
     9d0:	ee100fb0 	mrc	15, 0, r0, cr0, cr0, {5}
     9d4:	e7e30450 	ubfx	r0, r0, #8, #4
     9d8:	e1a0f00e 	mov	pc, lr
     9dc:	e320f000 	nop	{0}

000009e0 <invalidate_dcache>:
     9e0:	f57ff05f 	dmb	sy
     9e4:	ee300f30 	mrc	15, 1, r0, cr0, cr0, {1}
     9e8:	e2103407 	ands	r3, r0, #117440512	; 0x7000000
     9ec:	e1a03ba3 	lsr	r3, r3, #23
     9f0:	0a00001a 	beq	a60 <inv_finished>
     9f4:	e3a0a000 	mov	sl, #0

000009f8 <inv_loop1>:
     9f8:	e08a20aa 	add	r2, sl, sl, lsr #1
     9fc:	e1a01230 	lsr	r1, r0, r2
     a00:	e2011007 	and	r1, r1, #7
     a04:	e3510002 	cmp	r1, #2
     a08:	ba000011 	blt	a54 <inv_skip>
     a0c:	ee40af10 	mcr	15, 2, sl, cr0, cr0, {0}
     a10:	f57ff06f 	isb	sy
     a14:	ee301f10 	mrc	15, 1, r1, cr0, cr0, {0}
     a18:	e2012007 	and	r2, r1, #7
     a1c:	e2822004 	add	r2, r2, #4
     a20:	e59f4448 	ldr	r4, [pc, #1096]	; e70 <jump_to_resume0_nommu+0x30>
     a24:	e01441a1 	ands	r4, r4, r1, lsr #3
     a28:	e16f5f14 	clz	r5, r4
     a2c:	e59f7440 	ldr	r7, [pc, #1088]	; e74 <jump_to_resume0_nommu+0x34>
     a30:	e01776a1 	ands	r7, r7, r1, lsr #13

00000a34 <inv_loop2>:
     a34:	e1a09004 	mov	r9, r4

00000a38 <inv_loop3>:
     a38:	e18ab519 	orr	fp, sl, r9, lsl r5
     a3c:	e18bb217 	orr	fp, fp, r7, lsl r2
     a40:	ee07bf56 	mcr	15, 0, fp, cr7, cr6, {2}
     a44:	e2599001 	subs	r9, r9, #1
     a48:	aafffffa 	bge	a38 <inv_loop3>
     a4c:	e2577001 	subs	r7, r7, #1
     a50:	aafffff7 	bge	a34 <inv_loop2>

00000a54 <inv_skip>:
     a54:	e28aa002 	add	sl, sl, #2
     a58:	e153000a 	cmp	r3, sl
     a5c:	caffffe5 	bgt	9f8 <inv_loop1>

00000a60 <inv_finished>:
     a60:	e3a0a000 	mov	sl, #0
     a64:	ee40af10 	mcr	15, 2, sl, cr0, cr0, {0}
     a68:	f57ff04f 	dsb	sy
     a6c:	f57ff06f 	isb	sy
     a70:	e1a0f00e 	mov	pc, lr

00000a74 <invalidate_icache>:
     a74:	e3a00000 	mov	r0, #0
     a78:	ee070f11 	mcr	15, 0, r0, cr7, cr1, {0}
     a7c:	ee070f15 	mcr	15, 0, r0, cr7, cr5, {0}
     a80:	f57ff04f 	dsb	sy
     a84:	f57ff06f 	isb	sy
     a88:	e1a0f00e 	mov	pc, lr

00000a8c <flush_dcache>:
     a8c:	e92d1fff 	push	{r0, r1, r2, r3, r4, r5, r6, r7, r8, r9, sl, fp, ip}
     a90:	f57ff05f 	dmb	sy
     a94:	ee300f30 	mrc	15, 1, r0, cr0, cr0, {1}
     a98:	e2103407 	ands	r3, r0, #117440512	; 0x7000000
     a9c:	e1a03ba3 	lsr	r3, r3, #23
     aa0:	0a00001a 	beq	b10 <finished>
     aa4:	e3a0a000 	mov	sl, #0

00000aa8 <loop1>:
     aa8:	e08a20aa 	add	r2, sl, sl, lsr #1
     aac:	e1a01230 	lsr	r1, r0, r2
     ab0:	e2011007 	and	r1, r1, #7
     ab4:	e3510002 	cmp	r1, #2
     ab8:	ba000011 	blt	b04 <skip>
     abc:	ee40af10 	mcr	15, 2, sl, cr0, cr0, {0}
     ac0:	f57ff06f 	isb	sy
     ac4:	ee301f10 	mrc	15, 1, r1, cr0, cr0, {0}
     ac8:	e2012007 	and	r2, r1, #7
     acc:	e2822004 	add	r2, r2, #4
     ad0:	e59f4398 	ldr	r4, [pc, #920]	; e70 <jump_to_resume0_nommu+0x30>
     ad4:	e01441a1 	ands	r4, r4, r1, lsr #3
     ad8:	e16f5f14 	clz	r5, r4
     adc:	e59f7390 	ldr	r7, [pc, #912]	; e74 <jump_to_resume0_nommu+0x34>
     ae0:	e01776a1 	ands	r7, r7, r1, lsr #13

00000ae4 <loop2>:
     ae4:	e1a09004 	mov	r9, r4

00000ae8 <loop3>:
     ae8:	e18ab519 	orr	fp, sl, r9, lsl r5
     aec:	e18bb217 	orr	fp, fp, r7, lsl r2
     af0:	ee07bf5e 	mcr	15, 0, fp, cr7, cr14, {2}
     af4:	e2599001 	subs	r9, r9, #1
     af8:	aafffffa 	bge	ae8 <loop3>
     afc:	e2577001 	subs	r7, r7, #1
     b00:	aafffff7 	bge	ae4 <loop2>

00000b04 <skip>:
     b04:	e28aa002 	add	sl, sl, #2
     b08:	e153000a 	cmp	r3, sl
     b0c:	caffffe5 	bgt	aa8 <loop1>

00000b10 <finished>:
     b10:	e3a0a000 	mov	sl, #0
     b14:	ee40af10 	mcr	15, 2, sl, cr0, cr0, {0}
     b18:	f57ff04f 	dsb	sy
     b1c:	f57ff06f 	isb	sy
     b20:	e8bd1fff 	pop	{r0, r1, r2, r3, r4, r5, r6, r7, r8, r9, sl, fp, ip}
     b24:	e1a0f00e 	mov	pc, lr

00000b28 <flush_icache>:
     b28:	e92d000f 	push	{r0, r1, r2, r3}
     b2c:	e3a00000 	mov	r0, #0
     b30:	ee070f15 	mcr	15, 0, r0, cr7, cr5, {0}
     b34:	ee070f11 	mcr	15, 0, r0, cr7, cr1, {0}
     b38:	ee070fd1 	mcr	15, 0, r0, cr7, cr1, {6}
     b3c:	f57ff06f 	isb	sy
     b40:	f57ff04f 	dsb	sy
     b44:	e8bd000f 	pop	{r0, r1, r2, r3}
     b48:	e1a0f00e 	mov	pc, lr

00000b4c <disable_cache>:
     b4c:	e92d000f 	push	{r0, r1, r2, r3}
     b50:	ee110f10 	mrc	15, 0, r0, cr1, cr0, {0}
     b54:	e3c00a01 	bic	r0, r0, #4096	; 0x1000
     b58:	e3c00004 	bic	r0, r0, #4
     b5c:	ee010f10 	mcr	15, 0, r0, cr1, cr0, {0}
     b60:	f57ff06f 	isb	sy
     b64:	e8bd000f 	pop	{r0, r1, r2, r3}
     b68:	e1a0f00e 	mov	pc, lr

00000b6c <disable_dcache>:
     b6c:	e92d000f 	push	{r0, r1, r2, r3}
     b70:	ee110f10 	mrc	15, 0, r0, cr1, cr0, {0}
     b74:	e3c00004 	bic	r0, r0, #4
     b78:	ee010f10 	mcr	15, 0, r0, cr1, cr0, {0}
     b7c:	f57ff06f 	isb	sy
     b80:	e8bd000f 	pop	{r0, r1, r2, r3}
     b84:	e1a0f00e 	mov	pc, lr

00000b88 <disable_icache>:
     b88:	e92d000f 	push	{r0, r1, r2, r3}
     b8c:	ee110f10 	mrc	15, 0, r0, cr1, cr0, {0}
     b90:	e3c00a01 	bic	r0, r0, #4096	; 0x1000
     b94:	ee010f10 	mcr	15, 0, r0, cr1, cr0, {0}
     b98:	f57ff06f 	isb	sy
     b9c:	e8bd000f 	pop	{r0, r1, r2, r3}
     ba0:	e1a0f00e 	mov	pc, lr

00000ba4 <disable_l2cache>:
     ba4:	e92d000f 	push	{r0, r1, r2, r3}
     ba8:	ee110f30 	mrc	15, 0, r0, cr1, cr0, {1}
     bac:	e3c00002 	bic	r0, r0, #2
     bb0:	ee010f30 	mcr	15, 0, r0, cr1, cr0, {1}
     bb4:	f57ff06f 	isb	sy
     bb8:	e8bd000f 	pop	{r0, r1, r2, r3}
     bbc:	e1a0f00e 	mov	pc, lr

00000bc0 <enable_cache>:
     bc0:	e92d000f 	push	{r0, r1, r2, r3}
     bc4:	ee110f10 	mrc	15, 0, r0, cr1, cr0, {0}
     bc8:	e3800a01 	orr	r0, r0, #4096	; 0x1000
     bcc:	e3800004 	orr	r0, r0, #4
     bd0:	ee010f10 	mcr	15, 0, r0, cr1, cr0, {0}
     bd4:	f57ff06f 	isb	sy
     bd8:	e8bd000f 	pop	{r0, r1, r2, r3}
     bdc:	e1a0f00e 	mov	pc, lr

00000be0 <enable_icache>:
     be0:	e92d000f 	push	{r0, r1, r2, r3}
     be4:	ee110f10 	mrc	15, 0, r0, cr1, cr0, {0}
     be8:	e3800a01 	orr	r0, r0, #4096	; 0x1000
     bec:	ee010f10 	mcr	15, 0, r0, cr1, cr0, {0}
     bf0:	f57ff06f 	isb	sy
     bf4:	e8bd000f 	pop	{r0, r1, r2, r3}
     bf8:	e1a0f00e 	mov	pc, lr

00000bfc <invalidate_branch_predictor>:
     bfc:	e92d000f 	push	{r0, r1, r2, r3}
     c00:	e3a00000 	mov	r0, #0
     c04:	ee070fd5 	mcr	15, 0, r0, cr7, cr5, {6}
     c08:	f57ff06f 	isb	sy
     c0c:	e8bd000f 	pop	{r0, r1, r2, r3}
     c10:	e1a0f00e 	mov	pc, lr

00000c14 <disable_program_flow_prediction>:
     c14:	e92d000f 	push	{r0, r1, r2, r3}
     c18:	ee110f10 	mrc	15, 0, r0, cr1, cr0, {0}
     c1c:	e3c00b02 	bic	r0, r0, #2048	; 0x800
     c20:	ee010f10 	mcr	15, 0, r0, cr1, cr0, {0}
     c24:	f57ff06f 	isb	sy
     c28:	e8bd000f 	pop	{r0, r1, r2, r3}
     c2c:	e1a0f00e 	mov	pc, lr

00000c30 <enable_program_flow_prediction>:
     c30:	e92d000f 	push	{r0, r1, r2, r3}
     c34:	ee110f10 	mrc	15, 0, r0, cr1, cr0, {0}
     c38:	e3800b02 	orr	r0, r0, #2048	; 0x800
     c3c:	ee010f10 	mcr	15, 0, r0, cr1, cr0, {0}
     c40:	f57ff06f 	isb	sy
     c44:	e8bd000f 	pop	{r0, r1, r2, r3}
     c48:	e1a0f00e 	mov	pc, lr

00000c4c <mem_flush_tlb>:
     c4c:	e92d000f 	push	{r0, r1, r2, r3}
     c50:	e3a00000 	mov	r0, #0
     c54:	ee080f15 	mcr	15, 0, r0, cr8, cr5, {0}
     c58:	ee080f16 	mcr	15, 0, r0, cr8, cr6, {0}
     c5c:	ee080f13 	mcr	15, 0, r0, cr8, cr3, {0}
     c60:	f57ff04f 	dsb	sy
     c64:	f57ff06f 	isb	sy
     c68:	e8bd000f 	pop	{r0, r1, r2, r3}
     c6c:	e1a0f00e 	mov	pc, lr

00000c70 <mem_preload_tlb>:
     c70:	e92d000f 	push	{r0, r1, r2, r3}
     c74:	e3a0020f 	mov	r0, #-268435456	; 0xf0000000
     c78:	e5901000 	ldr	r1, [r0]
     c7c:	e59f01f4 	ldr	r0, [pc, #500]	; e78 <jump_to_resume0_nommu+0x38>
     c80:	e5901000 	ldr	r1, [r0]
     c84:	e59f01f0 	ldr	r0, [pc, #496]	; e7c <jump_to_resume0_nommu+0x3c>
     c88:	e5901000 	ldr	r1, [r0]
     c8c:	e59f01ec 	ldr	r0, [pc, #492]	; e80 <jump_to_resume0_nommu+0x40>
     c90:	e5901000 	ldr	r1, [r0]
     c94:	e59f01e8 	ldr	r0, [pc, #488]	; e84 <jump_to_resume0_nommu+0x44>
     c98:	e5901000 	ldr	r1, [r0]
     c9c:	e59f01e4 	ldr	r0, [pc, #484]	; e88 <jump_to_resume0_nommu+0x48>
     ca0:	e5901000 	ldr	r1, [r0]
     ca4:	e59f01e0 	ldr	r0, [pc, #480]	; e8c <jump_to_resume0_nommu+0x4c>
     ca8:	e5901000 	ldr	r1, [r0]
     cac:	e59f01dc 	ldr	r0, [pc, #476]	; e90 <jump_to_resume0_nommu+0x50>
     cb0:	e5901000 	ldr	r1, [r0]
     cb4:	e59f01d8 	ldr	r0, [pc, #472]	; e94 <jump_to_resume0_nommu+0x54>
     cb8:	e5901000 	ldr	r1, [r0]
     cbc:	e59f01d4 	ldr	r0, [pc, #468]	; e98 <jump_to_resume0_nommu+0x58>
     cc0:	e5901000 	ldr	r1, [r0]
     cc4:	e59f01d0 	ldr	r0, [pc, #464]	; e9c <jump_to_resume0_nommu+0x5c>
     cc8:	e5901000 	ldr	r1, [r0]
     ccc:	e59f01cc 	ldr	r0, [pc, #460]	; ea0 <jump_to_resume0_nommu+0x60>
     cd0:	e5901000 	ldr	r1, [r0]
     cd4:	e59f01c8 	ldr	r0, [pc, #456]	; ea4 <jump_to_resume0_nommu+0x64>
     cd8:	e5901000 	ldr	r1, [r0]
     cdc:	e59f01c4 	ldr	r0, [pc, #452]	; ea8 <jump_to_resume0_nommu+0x68>
     ce0:	e5901000 	ldr	r1, [r0]
     ce4:	e59f01c0 	ldr	r0, [pc, #448]	; eac <jump_to_resume0_nommu+0x6c>
     ce8:	e5901000 	ldr	r1, [r0]
     cec:	e59f01bc 	ldr	r0, [pc, #444]	; eb0 <jump_to_resume0_nommu+0x70>
     cf0:	e5901000 	ldr	r1, [r0]
     cf4:	e59f01b8 	ldr	r0, [pc, #440]	; eb4 <jump_to_resume0_nommu+0x74>
     cf8:	e5901000 	ldr	r1, [r0]
     cfc:	e59f01b4 	ldr	r0, [pc, #436]	; eb8 <jump_to_resume0_nommu+0x78>
     d00:	e5901000 	ldr	r1, [r0]
     d04:	e59f01b0 	ldr	r0, [pc, #432]	; ebc <jump_to_resume0_nommu+0x7c>
     d08:	e5901000 	ldr	r1, [r0]
     d0c:	e59f01ac 	ldr	r0, [pc, #428]	; ec0 <jump_to_resume0_nommu+0x80>
     d10:	e5901000 	ldr	r1, [r0]
     d14:	e59f01a8 	ldr	r0, [pc, #424]	; ec4 <jump_to_resume0_nommu+0x84>
     d18:	e5901000 	ldr	r1, [r0]
     d1c:	e59f01a4 	ldr	r0, [pc, #420]	; ec8 <jump_to_resume0_nommu+0x88>
     d20:	e5901000 	ldr	r1, [r0]
     d24:	e59f01a0 	ldr	r0, [pc, #416]	; ecc <jump_to_resume0_nommu+0x8c>
     d28:	e5901000 	ldr	r1, [r0]
     d2c:	e59f019c 	ldr	r0, [pc, #412]	; ed0 <jump_to_resume0_nommu+0x90>
     d30:	e5901000 	ldr	r1, [r0]
     d34:	e59f0198 	ldr	r0, [pc, #408]	; ed4 <jump_to_resume0_nommu+0x94>
     d38:	e5901000 	ldr	r1, [r0]
     d3c:	e59f0194 	ldr	r0, [pc, #404]	; ed8 <jump_to_resume0_nommu+0x98>
     d40:	e5901000 	ldr	r1, [r0]
     d44:	e59f0190 	ldr	r0, [pc, #400]	; edc <jump_to_resume0_nommu+0x9c>
     d48:	e5901000 	ldr	r1, [r0]
     d4c:	e59f018c 	ldr	r0, [pc, #396]	; ee0 <jump_to_resume0_nommu+0xa0>
     d50:	e5901000 	ldr	r1, [r0]
     d54:	e59f0188 	ldr	r0, [pc, #392]	; ee4 <jump_to_resume0_nommu+0xa4>
     d58:	e5901000 	ldr	r1, [r0]
     d5c:	e3a0020f 	mov	r0, #-268435456	; 0xf0000000
     d60:	e5901000 	ldr	r1, [r0]
     d64:	e59f017c 	ldr	r0, [pc, #380]	; ee8 <jump_to_resume0_nommu+0xa8>
     d68:	e5901000 	ldr	r1, [r0]
     d6c:	f57ff04f 	dsb	sy
     d70:	f57ff06f 	isb	sy
     d74:	e8bd000f 	pop	{r0, r1, r2, r3}
     d78:	e1a0f00e 	mov	pc, lr

00000d7c <disable_mmu>:
     d7c:	ee111f10 	mrc	15, 0, r1, cr1, cr0, {0}
     d80:	e3c11a01 	bic	r1, r1, #4096	; 0x1000
     d84:	e3c11005 	bic	r1, r1, #5
     d88:	ea000004 	b	da0 <__turn_mmu_off>
     d8c:	e320f000 	nop	{0}
     d90:	e320f000 	nop	{0}
     d94:	e320f000 	nop	{0}
     d98:	e320f000 	nop	{0}
     d9c:	e320f000 	nop	{0}

00000da0 <__turn_mmu_off>:
     da0:	ee011f10 	mcr	15, 0, r1, cr1, cr0, {0}
     da4:	ee103f10 	mrc	15, 0, r3, cr0, cr0, {0}
     da8:	e1a03003 	mov	r3, r3
     dac:	e1a03003 	mov	r3, r3
     db0:	e1a0f00e 	mov	pc, lr

00000db4 <enable_mmu>:
     db4:	ee111f10 	mrc	15, 0, r1, cr1, cr0, {0}
     db8:	e3811a01 	orr	r1, r1, #4096	; 0x1000
     dbc:	e3811005 	orr	r1, r1, #5
     dc0:	ea000006 	b	de0 <__turn_mmu_on>
     dc4:	e320f000 	nop	{0}
     dc8:	e320f000 	nop	{0}
     dcc:	e320f000 	nop	{0}
     dd0:	e320f000 	nop	{0}
     dd4:	e320f000 	nop	{0}
     dd8:	e320f000 	nop	{0}
     ddc:	e320f000 	nop	{0}

00000de0 <__turn_mmu_on>:
     de0:	ee011f10 	mcr	15, 0, r1, cr1, cr0, {0}
     de4:	ee103f10 	mrc	15, 0, r3, cr0, cr0, {0}
     de8:	e1a03003 	mov	r3, r3
     dec:	e1a03003 	mov	r3, r3
     df0:	e1a0f00e 	mov	pc, lr

00000df4 <jump_to_suspend>:
     df4:	ee020f10 	mcr	15, 0, r0, cr2, cr0, {0}
     df8:	f57ff04f 	dsb	sy
     dfc:	f57ff06f 	isb	sy
     e00:	e1a0f001 	mov	pc, r1
     e04:	e320f000 	nop	{0}
     e08:	e320f000 	nop	{0}
     e0c:	e320f000 	nop	{0}

00000e10 <jump_to_resume>:
     e10:	e1a0c000 	mov	ip, r0
     e14:	e1a08001 	mov	r8, r1
     e18:	ebfffef0 	bl	9e0 <invalidate_dcache>
     e1c:	e1a01008 	mov	r1, r8
     e20:	e1a0e00c 	mov	lr, ip
     e24:	e8913fff 	ldm	r1, {r0, r1, r2, r3, r4, r5, r6, r7, r8, r9, sl, fp, ip, sp}
     e28:	e1a0f00e 	mov	pc, lr
     e2c:	e320f000 	nop	{0}

00000e30 <jump_to_resume0>:
     e30:	e1a0e000 	mov	lr, r0
     e34:	e1a0f00e 	mov	pc, lr
     e38:	e320f000 	nop	{0}
     e3c:	e320f000 	nop	{0}

00000e40 <jump_to_resume0_nommu>:
     e40:	ee111f10 	mrc	15, 0, r1, cr1, cr0, {0}
     e44:	e3c11a01 	bic	r1, r1, #4096	; 0x1000
     e48:	e3c11007 	bic	r1, r1, #7
     e4c:	ee011f10 	mcr	15, 0, r1, cr1, cr0, {0}
     e50:	ee103f10 	mrc	15, 0, r3, cr0, cr0, {0}
     e54:	e1a03003 	mov	r3, r3
     e58:	e1a03003 	mov	r3, r3
     e5c:	e1a0e000 	mov	lr, r0
     e60:	f57ff06f 	isb	sy
     e64:	e1a0f00e 	mov	pc, lr
     e68:	f0003ffc 			; <UNDEFINED> instruction: 0xf0003ffc
     e6c:	00003ffc 	strdeq	r3, [r0], -ip
     e70:	000003ff 	strdeq	r0, [r0], -pc	; <UNPREDICTABLE>
     e74:	00007fff 	strdeq	r7, [r0], -pc	; <UNPREDICTABLE>
     e78:	f0001000 			; <UNDEFINED> instruction: 0xf0001000
     e7c:	f0002000 			; <UNDEFINED> instruction: 0xf0002000
     e80:	f0003000 			; <UNDEFINED> instruction: 0xf0003000
     e84:	f0040000 			; <UNDEFINED> instruction: 0xf0040000
     e88:	f0041000 			; <UNDEFINED> instruction: 0xf0041000
     e8c:	f0042000 			; <UNDEFINED> instruction: 0xf0042000
     e90:	f0043000 			; <UNDEFINED> instruction: 0xf0043000
     e94:	f0044000 			; <UNDEFINED> instruction: 0xf0044000
     e98:	f0045000 			; <UNDEFINED> instruction: 0xf0045000
     e9c:	f0046000 			; <UNDEFINED> instruction: 0xf0046000
     ea0:	f0047000 			; <UNDEFINED> instruction: 0xf0047000
     ea4:	f0048000 			; <UNDEFINED> instruction: 0xf0048000
     ea8:	f0049000 			; <UNDEFINED> instruction: 0xf0049000
     eac:	f004a000 			; <UNDEFINED> instruction: 0xf004a000
     eb0:	f004b000 			; <UNDEFINED> instruction: 0xf004b000
     eb4:	f004c000 			; <UNDEFINED> instruction: 0xf004c000
     eb8:	f004d000 			; <UNDEFINED> instruction: 0xf004d000
     ebc:	f004e000 			; <UNDEFINED> instruction: 0xf004e000
     ec0:	f004f000 			; <UNDEFINED> instruction: 0xf004f000
     ec4:	f0050000 			; <UNDEFINED> instruction: 0xf0050000
     ec8:	f0051000 			; <UNDEFINED> instruction: 0xf0051000
     ecc:	f0052000 			; <UNDEFINED> instruction: 0xf0052000
     ed0:	f0053000 			; <UNDEFINED> instruction: 0xf0053000
     ed4:	f1c17000 			; <UNDEFINED> instruction: 0xf1c17000
     ed8:	f1c18000 			; <UNDEFINED> instruction: 0xf1c18000
     edc:	f1c20800 			; <UNDEFINED> instruction: 0xf1c20800
     ee0:	f1f01400 			; <UNDEFINED> instruction: 0xf1f01400
     ee4:	f1c28000 			; <UNDEFINED> instruction: 0xf1c28000
     ee8:	f1c20000 			; <UNDEFINED> instruction: 0xf1c20000
     eec:	e320f000 	nop	{0}
     ef0:	e320f000 	nop	{0}
     ef4:	e320f000 	nop	{0}
     ef8:	e320f000 	nop	{0}
     efc:	e320f000 	nop	{0}

00000f00 <__save_processor_state>:
     f00:	ee503f10 	mrc	15, 2, r3, cr0, cr0, {0}
     f04:	e1a02c23 	lsr	r2, r3, #24
     f08:	e7e7c453 	ubfx	ip, r3, #8, #8
     f0c:	e7e71853 	ubfx	r1, r3, #16, #8
     f10:	e5c03000 	strb	r3, [r0]
     f14:	e5c0c001 	strb	ip, [r0, #1]
     f18:	e5c01002 	strb	r1, [r0, #2]
     f1c:	e5c02003 	strb	r2, [r0, #3]
     f20:	ee113f10 	mrc	15, 0, r3, cr1, cr0, {0}
     f24:	e1a02c23 	lsr	r2, r3, #24
     f28:	e7e7c453 	ubfx	ip, r3, #8, #8
     f2c:	e7e71853 	ubfx	r1, r3, #16, #8
     f30:	e5c03004 	strb	r3, [r0, #4]
     f34:	e5c0c005 	strb	ip, [r0, #5]
     f38:	e5c01006 	strb	r1, [r0, #6]
     f3c:	e5c02007 	strb	r2, [r0, #7]
     f40:	ee113f50 	mrc	15, 0, r3, cr1, cr0, {2}
     f44:	e1a02c23 	lsr	r2, r3, #24
     f48:	e7e7c453 	ubfx	ip, r3, #8, #8
     f4c:	e7e71853 	ubfx	r1, r3, #16, #8
     f50:	e5c0300c 	strb	r3, [r0, #12]
     f54:	e5c0c00d 	strb	ip, [r0, #13]
     f58:	e5c0100e 	strb	r1, [r0, #14]
     f5c:	e5c0200f 	strb	r2, [r0, #15]
     f60:	ee123f10 	mrc	15, 0, r3, cr2, cr0, {0}
     f64:	e1a02c23 	lsr	r2, r3, #24
     f68:	e7e7c453 	ubfx	ip, r3, #8, #8
     f6c:	e7e71853 	ubfx	r1, r3, #16, #8
     f70:	e5c0301c 	strb	r3, [r0, #28]
     f74:	e5c0c01d 	strb	ip, [r0, #29]
     f78:	e5c0101e 	strb	r1, [r0, #30]
     f7c:	e5c0201f 	strb	r2, [r0, #31]
     f80:	ee123f30 	mrc	15, 0, r3, cr2, cr0, {1}
     f84:	e1a02c23 	lsr	r2, r3, #24
     f88:	e7e7c453 	ubfx	ip, r3, #8, #8
     f8c:	e7e71853 	ubfx	r1, r3, #16, #8
     f90:	e5c03020 	strb	r3, [r0, #32]
     f94:	e5c0c021 	strb	ip, [r0, #33]	; 0x21
     f98:	e5c01022 	strb	r1, [r0, #34]	; 0x22
     f9c:	e5c02023 	strb	r2, [r0, #35]	; 0x23
     fa0:	ee123f50 	mrc	15, 0, r3, cr2, cr0, {2}
     fa4:	e1a02c23 	lsr	r2, r3, #24
     fa8:	e7e7c453 	ubfx	ip, r3, #8, #8
     fac:	e7e71853 	ubfx	r1, r3, #16, #8
     fb0:	e5c03024 	strb	r3, [r0, #36]	; 0x24
     fb4:	e5c0c025 	strb	ip, [r0, #37]	; 0x25
     fb8:	e5c01026 	strb	r1, [r0, #38]	; 0x26
     fbc:	e5c02027 	strb	r2, [r0, #39]	; 0x27
     fc0:	ee133f10 	mrc	15, 0, r3, cr3, cr0, {0}
     fc4:	e1a02c23 	lsr	r2, r3, #24
     fc8:	e7e7c453 	ubfx	ip, r3, #8, #8
     fcc:	e7e71853 	ubfx	r1, r3, #16, #8
     fd0:	e5c03028 	strb	r3, [r0, #40]	; 0x28
     fd4:	e5c0c029 	strb	ip, [r0, #41]	; 0x29
     fd8:	e5c0102a 	strb	r1, [r0, #42]	; 0x2a
     fdc:	e5c0202b 	strb	r2, [r0, #43]	; 0x2b
     fe0:	ee153f10 	mrc	15, 0, r3, cr5, cr0, {0}
     fe4:	e1a02c23 	lsr	r2, r3, #24
     fe8:	e7e7c453 	ubfx	ip, r3, #8, #8
     fec:	e7e71853 	ubfx	r1, r3, #16, #8
     ff0:	e5c0302c 	strb	r3, [r0, #44]	; 0x2c
     ff4:	e5c0c02d 	strb	ip, [r0, #45]	; 0x2d
     ff8:	e5c0102e 	strb	r1, [r0, #46]	; 0x2e
     ffc:	e5c0202f 	strb	r2, [r0, #47]	; 0x2f
    1000:	ee153f30 	mrc	15, 0, r3, cr5, cr0, {1}
    1004:	e1a02c23 	lsr	r2, r3, #24
    1008:	e7e7c453 	ubfx	ip, r3, #8, #8
    100c:	e7e71853 	ubfx	r1, r3, #16, #8
    1010:	e5c03030 	strb	r3, [r0, #48]	; 0x30
    1014:	e5c0c031 	strb	ip, [r0, #49]	; 0x31
    1018:	e5c01032 	strb	r1, [r0, #50]	; 0x32
    101c:	e5c02033 	strb	r2, [r0, #51]	; 0x33
    1020:	ee153f11 	mrc	15, 0, r3, cr5, cr1, {0}
    1024:	e1a02c23 	lsr	r2, r3, #24
    1028:	e7e7c453 	ubfx	ip, r3, #8, #8
    102c:	e7e71853 	ubfx	r1, r3, #16, #8
    1030:	e5c03034 	strb	r3, [r0, #52]	; 0x34
    1034:	e5c0c035 	strb	ip, [r0, #53]	; 0x35
    1038:	e5c01036 	strb	r1, [r0, #54]	; 0x36
    103c:	e5c02037 	strb	r2, [r0, #55]	; 0x37
    1040:	ee153f31 	mrc	15, 0, r3, cr5, cr1, {1}
    1044:	e1a02c23 	lsr	r2, r3, #24
    1048:	e7e7c453 	ubfx	ip, r3, #8, #8
    104c:	e7e71853 	ubfx	r1, r3, #16, #8
    1050:	e5c03038 	strb	r3, [r0, #56]	; 0x38
    1054:	e5c0c039 	strb	ip, [r0, #57]	; 0x39
    1058:	e5c0103a 	strb	r1, [r0, #58]	; 0x3a
    105c:	e5c0203b 	strb	r2, [r0, #59]	; 0x3b
    1060:	ee163f10 	mrc	15, 0, r3, cr6, cr0, {0}
    1064:	e1a02c23 	lsr	r2, r3, #24
    1068:	e7e7c453 	ubfx	ip, r3, #8, #8
    106c:	e7e71853 	ubfx	r1, r3, #16, #8
    1070:	e5c0303c 	strb	r3, [r0, #60]	; 0x3c
    1074:	e5c0c03d 	strb	ip, [r0, #61]	; 0x3d
    1078:	e5c0103e 	strb	r1, [r0, #62]	; 0x3e
    107c:	e5c0203f 	strb	r2, [r0, #63]	; 0x3f
    1080:	ee163f50 	mrc	15, 0, r3, cr6, cr0, {2}
    1084:	e1a02c23 	lsr	r2, r3, #24
    1088:	e7e7c453 	ubfx	ip, r3, #8, #8
    108c:	e7e71853 	ubfx	r1, r3, #16, #8
    1090:	e5c03040 	strb	r3, [r0, #64]	; 0x40
    1094:	e5c0c041 	strb	ip, [r0, #65]	; 0x41
    1098:	e5c01042 	strb	r1, [r0, #66]	; 0x42
    109c:	e5c02043 	strb	r2, [r0, #67]	; 0x43
    10a0:	ee173f14 	mrc	15, 0, r3, cr7, cr4, {0}
    10a4:	e1a02c23 	lsr	r2, r3, #24
    10a8:	e7e7c453 	ubfx	ip, r3, #8, #8
    10ac:	e7e71853 	ubfx	r1, r3, #16, #8
    10b0:	e5c03044 	strb	r3, [r0, #68]	; 0x44
    10b4:	e5c0c045 	strb	ip, [r0, #69]	; 0x45
    10b8:	e5c01046 	strb	r1, [r0, #70]	; 0x46
    10bc:	e5c02047 	strb	r2, [r0, #71]	; 0x47
    10c0:	ee193f1c 	mrc	15, 0, r3, cr9, cr12, {0}
    10c4:	e1a02c23 	lsr	r2, r3, #24
    10c8:	e7e7c453 	ubfx	ip, r3, #8, #8
    10cc:	e7e71853 	ubfx	r1, r3, #16, #8
    10d0:	e5c03048 	strb	r3, [r0, #72]	; 0x48
    10d4:	e5c0c049 	strb	ip, [r0, #73]	; 0x49
    10d8:	e5c0104a 	strb	r1, [r0, #74]	; 0x4a
    10dc:	e5c0204b 	strb	r2, [r0, #75]	; 0x4b
    10e0:	ee193f3c 	mrc	15, 0, r3, cr9, cr12, {1}
    10e4:	e1a02c23 	lsr	r2, r3, #24
    10e8:	e7e7c453 	ubfx	ip, r3, #8, #8
    10ec:	e7e71853 	ubfx	r1, r3, #16, #8
    10f0:	e5c0304c 	strb	r3, [r0, #76]	; 0x4c
    10f4:	e5c0c04d 	strb	ip, [r0, #77]	; 0x4d
    10f8:	e5c0104e 	strb	r1, [r0, #78]	; 0x4e
    10fc:	e5c0204f 	strb	r2, [r0, #79]	; 0x4f
    1100:	ee193f5c 	mrc	15, 0, r3, cr9, cr12, {2}
    1104:	e1a02c23 	lsr	r2, r3, #24
    1108:	e7e7c453 	ubfx	ip, r3, #8, #8
    110c:	e7e71853 	ubfx	r1, r3, #16, #8
    1110:	e5c03050 	strb	r3, [r0, #80]	; 0x50
    1114:	e5c0c051 	strb	ip, [r0, #81]	; 0x51
    1118:	e5c01052 	strb	r1, [r0, #82]	; 0x52
    111c:	e5c02053 	strb	r2, [r0, #83]	; 0x53
    1120:	ee193f7c 	mrc	15, 0, r3, cr9, cr12, {3}
    1124:	e1a02c23 	lsr	r2, r3, #24
    1128:	e7e7c453 	ubfx	ip, r3, #8, #8
    112c:	e7e71853 	ubfx	r1, r3, #16, #8
    1130:	e5c03054 	strb	r3, [r0, #84]	; 0x54
    1134:	e5c0c055 	strb	ip, [r0, #85]	; 0x55
    1138:	e5c01056 	strb	r1, [r0, #86]	; 0x56
    113c:	e5c02057 	strb	r2, [r0, #87]	; 0x57
    1140:	ee193fbc 	mrc	15, 0, r3, cr9, cr12, {5}
    1144:	e1a02c23 	lsr	r2, r3, #24
    1148:	e7e7c453 	ubfx	ip, r3, #8, #8
    114c:	e7e71853 	ubfx	r1, r3, #16, #8
    1150:	e5c0305c 	strb	r3, [r0, #92]	; 0x5c
    1154:	e5c0c05d 	strb	ip, [r0, #93]	; 0x5d
    1158:	e5c0105e 	strb	r1, [r0, #94]	; 0x5e
    115c:	e5c0205f 	strb	r2, [r0, #95]	; 0x5f
    1160:	ee193f1d 	mrc	15, 0, r3, cr9, cr13, {0}
    1164:	e1a02c23 	lsr	r2, r3, #24
    1168:	e7e7c453 	ubfx	ip, r3, #8, #8
    116c:	e7e71853 	ubfx	r1, r3, #16, #8
    1170:	e5c03060 	strb	r3, [r0, #96]	; 0x60
    1174:	e5c0c061 	strb	ip, [r0, #97]	; 0x61
    1178:	e5c01062 	strb	r1, [r0, #98]	; 0x62
    117c:	e5c02063 	strb	r2, [r0, #99]	; 0x63
    1180:	ee193f3d 	mrc	15, 0, r3, cr9, cr13, {1}
    1184:	e1a02c23 	lsr	r2, r3, #24
    1188:	e7e7c453 	ubfx	ip, r3, #8, #8
    118c:	e7e71853 	ubfx	r1, r3, #16, #8
    1190:	e5c03064 	strb	r3, [r0, #100]	; 0x64
    1194:	e5c0c065 	strb	ip, [r0, #101]	; 0x65
    1198:	e5c01066 	strb	r1, [r0, #102]	; 0x66
    119c:	e5c02067 	strb	r2, [r0, #103]	; 0x67
    11a0:	ee193f5d 	mrc	15, 0, r3, cr9, cr13, {2}
    11a4:	e1a02c23 	lsr	r2, r3, #24
    11a8:	e7e7c453 	ubfx	ip, r3, #8, #8
    11ac:	e7e71853 	ubfx	r1, r3, #16, #8
    11b0:	e5c03068 	strb	r3, [r0, #104]	; 0x68
    11b4:	e5c0c069 	strb	ip, [r0, #105]	; 0x69
    11b8:	e5c0106a 	strb	r1, [r0, #106]	; 0x6a
    11bc:	e5c0206b 	strb	r2, [r0, #107]	; 0x6b
    11c0:	ee193f1e 	mrc	15, 0, r3, cr9, cr14, {0}
    11c4:	e1a02c23 	lsr	r2, r3, #24
    11c8:	e7e7c453 	ubfx	ip, r3, #8, #8
    11cc:	e7e71853 	ubfx	r1, r3, #16, #8
    11d0:	e5c0306c 	strb	r3, [r0, #108]	; 0x6c
    11d4:	e5c0c06d 	strb	ip, [r0, #109]	; 0x6d
    11d8:	e5c0106e 	strb	r1, [r0, #110]	; 0x6e
    11dc:	e5c0206f 	strb	r2, [r0, #111]	; 0x6f
    11e0:	ee193f3e 	mrc	15, 0, r3, cr9, cr14, {1}
    11e4:	e1a02c23 	lsr	r2, r3, #24
    11e8:	e7e7c453 	ubfx	ip, r3, #8, #8
    11ec:	e7e71853 	ubfx	r1, r3, #16, #8
    11f0:	e5c03070 	strb	r3, [r0, #112]	; 0x70
    11f4:	e5c0c071 	strb	ip, [r0, #113]	; 0x71
    11f8:	e5c01072 	strb	r1, [r0, #114]	; 0x72
    11fc:	e5c02073 	strb	r2, [r0, #115]	; 0x73
    1200:	ee193f5e 	mrc	15, 0, r3, cr9, cr14, {2}
    1204:	e1a02c23 	lsr	r2, r3, #24
    1208:	e7e7c453 	ubfx	ip, r3, #8, #8
    120c:	e7e71853 	ubfx	r1, r3, #16, #8
    1210:	e5c03074 	strb	r3, [r0, #116]	; 0x74
    1214:	e5c0c075 	strb	ip, [r0, #117]	; 0x75
    1218:	e5c01076 	strb	r1, [r0, #118]	; 0x76
    121c:	e5c02077 	strb	r2, [r0, #119]	; 0x77
    1220:	ee1a3f12 	mrc	15, 0, r3, cr10, cr2, {0}
    1224:	e1a02c23 	lsr	r2, r3, #24
    1228:	e7e7c453 	ubfx	ip, r3, #8, #8
    122c:	e7e71853 	ubfx	r1, r3, #16, #8
    1230:	e5c03078 	strb	r3, [r0, #120]	; 0x78
    1234:	e5c0c079 	strb	ip, [r0, #121]	; 0x79
    1238:	e5c0107a 	strb	r1, [r0, #122]	; 0x7a
    123c:	e5c0207b 	strb	r2, [r0, #123]	; 0x7b
    1240:	ee1a3f32 	mrc	15, 0, r3, cr10, cr2, {1}
    1244:	e1a02c23 	lsr	r2, r3, #24
    1248:	e7e7c453 	ubfx	ip, r3, #8, #8
    124c:	e7e71853 	ubfx	r1, r3, #16, #8
    1250:	e5c0307c 	strb	r3, [r0, #124]	; 0x7c
    1254:	e5c0c07d 	strb	ip, [r0, #125]	; 0x7d
    1258:	e5c0107e 	strb	r1, [r0, #126]	; 0x7e
    125c:	e5c0207f 	strb	r2, [r0, #127]	; 0x7f
    1260:	ee1c3f10 	mrc	15, 0, r3, cr12, cr0, {0}
    1264:	e1a02c23 	lsr	r2, r3, #24
    1268:	e7e7c453 	ubfx	ip, r3, #8, #8
    126c:	e7e71853 	ubfx	r1, r3, #16, #8
    1270:	e5c03080 	strb	r3, [r0, #128]	; 0x80
    1274:	e5c0c081 	strb	ip, [r0, #129]	; 0x81
    1278:	e5c01082 	strb	r1, [r0, #130]	; 0x82
    127c:	e5c02083 	strb	r2, [r0, #131]	; 0x83
    1280:	ee1d3f30 	mrc	15, 0, r3, cr13, cr0, {1}
    1284:	e1a02c23 	lsr	r2, r3, #24
    1288:	e7e7c453 	ubfx	ip, r3, #8, #8
    128c:	e7e71853 	ubfx	r1, r3, #16, #8
    1290:	e5c03090 	strb	r3, [r0, #144]	; 0x90
    1294:	e5c0c091 	strb	ip, [r0, #145]	; 0x91
    1298:	e5c01092 	strb	r1, [r0, #146]	; 0x92
    129c:	e5c02093 	strb	r2, [r0, #147]	; 0x93
    12a0:	ee1d3f50 	mrc	15, 0, r3, cr13, cr0, {2}
    12a4:	e1a02c23 	lsr	r2, r3, #24
    12a8:	e7e7c453 	ubfx	ip, r3, #8, #8
    12ac:	e7e71853 	ubfx	r1, r3, #16, #8
    12b0:	e5c03094 	strb	r3, [r0, #148]	; 0x94
    12b4:	e5c0c095 	strb	ip, [r0, #149]	; 0x95
    12b8:	e5c01096 	strb	r1, [r0, #150]	; 0x96
    12bc:	e5c02097 	strb	r2, [r0, #151]	; 0x97
    12c0:	ee1d3f70 	mrc	15, 0, r3, cr13, cr0, {3}
    12c4:	e1a02c23 	lsr	r2, r3, #24
    12c8:	e7e7c453 	ubfx	ip, r3, #8, #8
    12cc:	e7e71853 	ubfx	r1, r3, #16, #8
    12d0:	e5c03098 	strb	r3, [r0, #152]	; 0x98
    12d4:	e5c0c099 	strb	ip, [r0, #153]	; 0x99
    12d8:	e5c0109a 	strb	r1, [r0, #154]	; 0x9a
    12dc:	e5c0209b 	strb	r2, [r0, #155]	; 0x9b
    12e0:	ee1d3f90 	mrc	15, 0, r3, cr13, cr0, {4}
    12e4:	e1a02c23 	lsr	r2, r3, #24
    12e8:	e7e7c453 	ubfx	ip, r3, #8, #8
    12ec:	e7e71853 	ubfx	r1, r3, #16, #8
    12f0:	e5c0309c 	strb	r3, [r0, #156]	; 0x9c
    12f4:	e5c0c09d 	strb	ip, [r0, #157]	; 0x9d
    12f8:	e5c0109e 	strb	r1, [r0, #158]	; 0x9e
    12fc:	e5c0209f 	strb	r2, [r0, #159]	; 0x9f
    1300:	e12fff1e 	bx	lr

00001304 <__restore_processor_state>:
    1304:	e5d03000 	ldrb	r3, [r0]
    1308:	e5d0c001 	ldrb	ip, [r0, #1]
    130c:	e5d01002 	ldrb	r1, [r0, #2]
    1310:	e5d02003 	ldrb	r2, [r0, #3]
    1314:	e183340c 	orr	r3, r3, ip, lsl #8
    1318:	e1833801 	orr	r3, r3, r1, lsl #16
    131c:	e1833c02 	orr	r3, r3, r2, lsl #24
    1320:	ee403f10 	mcr	15, 2, r3, cr0, cr0, {0}
    1324:	e5d0300c 	ldrb	r3, [r0, #12]
    1328:	e5d0c00d 	ldrb	ip, [r0, #13]
    132c:	e5d0100e 	ldrb	r1, [r0, #14]
    1330:	e5d0200f 	ldrb	r2, [r0, #15]
    1334:	e183340c 	orr	r3, r3, ip, lsl #8
    1338:	e1833801 	orr	r3, r3, r1, lsl #16
    133c:	e1833c02 	orr	r3, r3, r2, lsl #24
    1340:	ee013f50 	mcr	15, 0, r3, cr1, cr0, {2}
    1344:	e5d0301c 	ldrb	r3, [r0, #28]
    1348:	e5d0c01d 	ldrb	ip, [r0, #29]
    134c:	e5d0101e 	ldrb	r1, [r0, #30]
    1350:	e5d0201f 	ldrb	r2, [r0, #31]
    1354:	e183340c 	orr	r3, r3, ip, lsl #8
    1358:	e1833801 	orr	r3, r3, r1, lsl #16
    135c:	e1833c02 	orr	r3, r3, r2, lsl #24
    1360:	ee023f10 	mcr	15, 0, r3, cr2, cr0, {0}
    1364:	f57ff04f 	dsb	sy
    1368:	f57ff06f 	isb	sy
    136c:	e5d03020 	ldrb	r3, [r0, #32]
    1370:	e5d0c021 	ldrb	ip, [r0, #33]	; 0x21
    1374:	e5d01022 	ldrb	r1, [r0, #34]	; 0x22
    1378:	e5d02023 	ldrb	r2, [r0, #35]	; 0x23
    137c:	e183340c 	orr	r3, r3, ip, lsl #8
    1380:	e1833801 	orr	r3, r3, r1, lsl #16
    1384:	e1833c02 	orr	r3, r3, r2, lsl #24
    1388:	ee023f30 	mcr	15, 0, r3, cr2, cr0, {1}
    138c:	f57ff04f 	dsb	sy
    1390:	f57ff06f 	isb	sy
    1394:	e5d03024 	ldrb	r3, [r0, #36]	; 0x24
    1398:	e5d0c025 	ldrb	ip, [r0, #37]	; 0x25
    139c:	e5d01026 	ldrb	r1, [r0, #38]	; 0x26
    13a0:	e5d02027 	ldrb	r2, [r0, #39]	; 0x27
    13a4:	e183340c 	orr	r3, r3, ip, lsl #8
    13a8:	e1833801 	orr	r3, r3, r1, lsl #16
    13ac:	e1833c02 	orr	r3, r3, r2, lsl #24
    13b0:	ee023f50 	mcr	15, 0, r3, cr2, cr0, {2}
    13b4:	f57ff04f 	dsb	sy
    13b8:	f57ff06f 	isb	sy
    13bc:	e5d03028 	ldrb	r3, [r0, #40]	; 0x28
    13c0:	e5d0c029 	ldrb	ip, [r0, #41]	; 0x29
    13c4:	e5d0102a 	ldrb	r1, [r0, #42]	; 0x2a
    13c8:	e5d0202b 	ldrb	r2, [r0, #43]	; 0x2b
    13cc:	e183340c 	orr	r3, r3, ip, lsl #8
    13d0:	e1833801 	orr	r3, r3, r1, lsl #16
    13d4:	e1833c02 	orr	r3, r3, r2, lsl #24
    13d8:	ee033f10 	mcr	15, 0, r3, cr3, cr0, {0}
    13dc:	e5d03044 	ldrb	r3, [r0, #68]	; 0x44
    13e0:	e5d0c045 	ldrb	ip, [r0, #69]	; 0x45
    13e4:	e5d01046 	ldrb	r1, [r0, #70]	; 0x46
    13e8:	e5d02047 	ldrb	r2, [r0, #71]	; 0x47
    13ec:	e183340c 	orr	r3, r3, ip, lsl #8
    13f0:	e1833801 	orr	r3, r3, r1, lsl #16
    13f4:	e1833c02 	orr	r3, r3, r2, lsl #24
    13f8:	ee073f14 	mcr	15, 0, r3, cr7, cr4, {0}
    13fc:	e5d0305c 	ldrb	r3, [r0, #92]	; 0x5c
    1400:	e5d0c05d 	ldrb	ip, [r0, #93]	; 0x5d
    1404:	e5d0105e 	ldrb	r1, [r0, #94]	; 0x5e
    1408:	e5d0205f 	ldrb	r2, [r0, #95]	; 0x5f
    140c:	e183340c 	orr	r3, r3, ip, lsl #8
    1410:	e1833801 	orr	r3, r3, r1, lsl #16
    1414:	e1833c02 	orr	r3, r3, r2, lsl #24
    1418:	ee093fbc 	mcr	15, 0, r3, cr9, cr12, {5}
    141c:	e5d03060 	ldrb	r3, [r0, #96]	; 0x60
    1420:	e5d0c061 	ldrb	ip, [r0, #97]	; 0x61
    1424:	e5d01062 	ldrb	r1, [r0, #98]	; 0x62
    1428:	e5d02063 	ldrb	r2, [r0, #99]	; 0x63
    142c:	e183340c 	orr	r3, r3, ip, lsl #8
    1430:	e1833801 	orr	r3, r3, r1, lsl #16
    1434:	e1833c02 	orr	r3, r3, r2, lsl #24
    1438:	ee093f1d 	mcr	15, 0, r3, cr9, cr13, {0}
    143c:	e5d03064 	ldrb	r3, [r0, #100]	; 0x64
    1440:	e5d0c065 	ldrb	ip, [r0, #101]	; 0x65
    1444:	e5d01066 	ldrb	r1, [r0, #102]	; 0x66
    1448:	e5d02067 	ldrb	r2, [r0, #103]	; 0x67
    144c:	e183340c 	orr	r3, r3, ip, lsl #8
    1450:	e1833801 	orr	r3, r3, r1, lsl #16
    1454:	e1833c02 	orr	r3, r3, r2, lsl #24
    1458:	ee093f3d 	mcr	15, 0, r3, cr9, cr13, {1}
    145c:	e5d03068 	ldrb	r3, [r0, #104]	; 0x68
    1460:	e5d0c069 	ldrb	ip, [r0, #105]	; 0x69
    1464:	e5d0106a 	ldrb	r1, [r0, #106]	; 0x6a
    1468:	e5d0206b 	ldrb	r2, [r0, #107]	; 0x6b
    146c:	e183340c 	orr	r3, r3, ip, lsl #8
    1470:	e1833801 	orr	r3, r3, r1, lsl #16
    1474:	e1833c02 	orr	r3, r3, r2, lsl #24
    1478:	ee093f5d 	mcr	15, 0, r3, cr9, cr13, {2}
    147c:	e5d0306c 	ldrb	r3, [r0, #108]	; 0x6c
    1480:	e5d0c06d 	ldrb	ip, [r0, #109]	; 0x6d
    1484:	e5d0106e 	ldrb	r1, [r0, #110]	; 0x6e
    1488:	e5d0206f 	ldrb	r2, [r0, #111]	; 0x6f
    148c:	e183340c 	orr	r3, r3, ip, lsl #8
    1490:	e1833801 	orr	r3, r3, r1, lsl #16
    1494:	e1833c02 	orr	r3, r3, r2, lsl #24
    1498:	ee093f1e 	mcr	15, 0, r3, cr9, cr14, {0}
    149c:	e5d03070 	ldrb	r3, [r0, #112]	; 0x70
    14a0:	e5d0c071 	ldrb	ip, [r0, #113]	; 0x71
    14a4:	e5d01072 	ldrb	r1, [r0, #114]	; 0x72
    14a8:	e5d02073 	ldrb	r2, [r0, #115]	; 0x73
    14ac:	e183340c 	orr	r3, r3, ip, lsl #8
    14b0:	e1833801 	orr	r3, r3, r1, lsl #16
    14b4:	e1833c02 	orr	r3, r3, r2, lsl #24
    14b8:	ee093f3e 	mcr	15, 0, r3, cr9, cr14, {1}
    14bc:	e5d03074 	ldrb	r3, [r0, #116]	; 0x74
    14c0:	e5d0c075 	ldrb	ip, [r0, #117]	; 0x75
    14c4:	e5d01076 	ldrb	r1, [r0, #118]	; 0x76
    14c8:	e5d02077 	ldrb	r2, [r0, #119]	; 0x77
    14cc:	e183340c 	orr	r3, r3, ip, lsl #8
    14d0:	e1833801 	orr	r3, r3, r1, lsl #16
    14d4:	e1833c02 	orr	r3, r3, r2, lsl #24
    14d8:	ee093f5e 	mcr	15, 0, r3, cr9, cr14, {2}
    14dc:	e5d03078 	ldrb	r3, [r0, #120]	; 0x78
    14e0:	e5d0c079 	ldrb	ip, [r0, #121]	; 0x79
    14e4:	e5d0107a 	ldrb	r1, [r0, #122]	; 0x7a
    14e8:	e5d0207b 	ldrb	r2, [r0, #123]	; 0x7b
    14ec:	e183340c 	orr	r3, r3, ip, lsl #8
    14f0:	e1833801 	orr	r3, r3, r1, lsl #16
    14f4:	e1833c02 	orr	r3, r3, r2, lsl #24
    14f8:	ee0a3f12 	mcr	15, 0, r3, cr10, cr2, {0}
    14fc:	e5d0307c 	ldrb	r3, [r0, #124]	; 0x7c
    1500:	e5d0c07d 	ldrb	ip, [r0, #125]	; 0x7d
    1504:	e5d0107e 	ldrb	r1, [r0, #126]	; 0x7e
    1508:	e5d0207f 	ldrb	r2, [r0, #127]	; 0x7f
    150c:	e183340c 	orr	r3, r3, ip, lsl #8
    1510:	e1833801 	orr	r3, r3, r1, lsl #16
    1514:	e1833c02 	orr	r3, r3, r2, lsl #24
    1518:	ee0a3f32 	mcr	15, 0, r3, cr10, cr2, {1}
    151c:	e5d03080 	ldrb	r3, [r0, #128]	; 0x80
    1520:	e5d0c081 	ldrb	ip, [r0, #129]	; 0x81
    1524:	e5d01082 	ldrb	r1, [r0, #130]	; 0x82
    1528:	e5d02083 	ldrb	r2, [r0, #131]	; 0x83
    152c:	e183340c 	orr	r3, r3, ip, lsl #8
    1530:	e1833801 	orr	r3, r3, r1, lsl #16
    1534:	e1833c02 	orr	r3, r3, r2, lsl #24
    1538:	ee0c3f10 	mcr	15, 0, r3, cr12, cr0, {0}
    153c:	e5d03090 	ldrb	r3, [r0, #144]	; 0x90
    1540:	e5d0c091 	ldrb	ip, [r0, #145]	; 0x91
    1544:	e5d01092 	ldrb	r1, [r0, #146]	; 0x92
    1548:	e5d02093 	ldrb	r2, [r0, #147]	; 0x93
    154c:	e183340c 	orr	r3, r3, ip, lsl #8
    1550:	e1833801 	orr	r3, r3, r1, lsl #16
    1554:	e1833c02 	orr	r3, r3, r2, lsl #24
    1558:	ee0d3f30 	mcr	15, 0, r3, cr13, cr0, {1}
    155c:	e5d03094 	ldrb	r3, [r0, #148]	; 0x94
    1560:	e5d0c095 	ldrb	ip, [r0, #149]	; 0x95
    1564:	e5d01096 	ldrb	r1, [r0, #150]	; 0x96
    1568:	e5d02097 	ldrb	r2, [r0, #151]	; 0x97
    156c:	e183340c 	orr	r3, r3, ip, lsl #8
    1570:	e1833801 	orr	r3, r3, r1, lsl #16
    1574:	e1833c02 	orr	r3, r3, r2, lsl #24
    1578:	ee0d3f50 	mcr	15, 0, r3, cr13, cr0, {2}
    157c:	e5d03098 	ldrb	r3, [r0, #152]	; 0x98
    1580:	e5d0c099 	ldrb	ip, [r0, #153]	; 0x99
    1584:	e5d0109a 	ldrb	r1, [r0, #154]	; 0x9a
    1588:	e5d0209b 	ldrb	r2, [r0, #155]	; 0x9b
    158c:	e183340c 	orr	r3, r3, ip, lsl #8
    1590:	e1833801 	orr	r3, r3, r1, lsl #16
    1594:	e1833c02 	orr	r3, r3, r2, lsl #24
    1598:	ee0d3f70 	mcr	15, 0, r3, cr13, cr0, {3}
    159c:	e5d0309c 	ldrb	r3, [r0, #156]	; 0x9c
    15a0:	e5d0c09d 	ldrb	ip, [r0, #157]	; 0x9d
    15a4:	e5d0109e 	ldrb	r1, [r0, #158]	; 0x9e
    15a8:	e5d0209f 	ldrb	r2, [r0, #159]	; 0x9f
    15ac:	e183340c 	orr	r3, r3, ip, lsl #8
    15b0:	e1833801 	orr	r3, r3, r1, lsl #16
    15b4:	e1833c02 	orr	r3, r3, r2, lsl #24
    15b8:	ee0d3f90 	mcr	15, 0, r3, cr13, cr0, {4}
    15bc:	f57ff04f 	dsb	sy
    15c0:	f57ff06f 	isb	sy
    15c4:	e12fff1e 	bx	lr

000015c8 <disable_cache_invalidate>:
    15c8:	e3a03000 	mov	r3, #0
    15cc:	e34f31c2 	movt	r3, #61890	; 0xf1c2
    15d0:	e5932d3c 	ldr	r2, [r3, #3388]	; 0xd3c
    15d4:	e3822003 	orr	r2, r2, #3
    15d8:	e5832d3c 	str	r2, [r3, #3388]	; 0xd3c
    15dc:	e12fff1e 	bx	lr

000015e0 <set_copro_default>:
    15e0:	e3a03002 	mov	r3, #2
    15e4:	ee403f10 	mcr	15, 2, r3, cr0, cr0, {0}
    15e8:	e3003878 	movw	r3, #2168	; 0x878
    15ec:	e34030c5 	movt	r3, #197	; 0xc5
    15f0:	ee013f10 	mcr	15, 0, r3, cr1, cr0, {0}
    15f4:	e3063040 	movw	r3, #24640	; 0x6040
    15f8:	ee013f30 	mcr	15, 0, r3, cr1, cr0, {1}
    15fc:	e3a03000 	mov	r3, #0
    1600:	ee013f50 	mcr	15, 0, r3, cr1, cr0, {2}
    1604:	ee023f10 	mcr	15, 0, r3, cr2, cr0, {0}
    1608:	ee023f30 	mcr	15, 0, r3, cr2, cr0, {1}
    160c:	ee023f50 	mcr	15, 0, r3, cr2, cr0, {2}
    1610:	ee033f10 	mcr	15, 0, r3, cr3, cr0, {0}
    1614:	ee053f10 	mcr	15, 0, r3, cr5, cr0, {0}
    1618:	ee053f30 	mcr	15, 0, r3, cr5, cr0, {1}
    161c:	ee053f11 	mcr	15, 0, r3, cr5, cr1, {0}
    1620:	ee053f31 	mcr	15, 0, r3, cr5, cr1, {1}
    1624:	ee063f10 	mcr	15, 0, r3, cr6, cr0, {0}
    1628:	ee063f50 	mcr	15, 0, r3, cr6, cr0, {2}
    162c:	ee073f14 	mcr	15, 0, r3, cr7, cr4, {0}
    1630:	ee093f1e 	mcr	15, 0, r3, cr9, cr14, {0}
    1634:	ee093f3e 	mcr	15, 0, r3, cr9, cr14, {1}
    1638:	ee093f5e 	mcr	15, 0, r3, cr9, cr14, {2}
    163c:	e30831a4 	movw	r3, #33188	; 0x81a4
    1640:	e340300a 	movt	r3, #10
    1644:	ee0a3f12 	mcr	15, 0, r3, cr10, cr2, {0}
    1648:	e30438e0 	movw	r3, #18656	; 0x48e0
    164c:	e34434e0 	movt	r3, #17632	; 0x44e0
    1650:	ee0a3f32 	mcr	15, 0, r3, cr10, cr2, {1}
    1654:	e3a03000 	mov	r3, #0
    1658:	ee0d3f30 	mcr	15, 0, r3, cr13, cr0, {1}
    165c:	ee0d3f50 	mcr	15, 0, r3, cr13, cr0, {2}
    1660:	ee0d3f70 	mcr	15, 0, r3, cr13, cr0, {3}
    1664:	ee0d3f90 	mcr	15, 0, r3, cr13, cr0, {4}
    1668:	f57ff04f 	dsb	sy
    166c:	f57ff06f 	isb	sy
    1670:	e12fff1e 	bx	lr

00001674 <save_processor_state>:
    1674:	e303018c 	movw	r0, #12684	; 0x318c
    1678:	e3400000 	movt	r0, #0
    167c:	eafffe1f 	b	f00 <__save_processor_state>

00001680 <restore_processor_state>:
    1680:	e303018c 	movw	r0, #12684	; 0x318c
    1684:	e3400000 	movt	r0, #0
    1688:	eaffff1d 	b	1304 <__restore_processor_state>

0000168c <restore_processor_ttbr0>:
    168c:	e303318c 	movw	r3, #12684	; 0x318c
    1690:	e3403000 	movt	r3, #0
    1694:	e593301c 	ldr	r3, [r3, #28]
    1698:	ee023f10 	mcr	15, 0, r3, cr2, cr0, {0}
    169c:	e12fff1e 	bx	lr

000016a0 <set_ttbr0>:
    16a0:	ee123f30 	mrc	15, 0, r3, cr2, cr0, {1}
    16a4:	ee023f10 	mcr	15, 0, r3, cr2, cr0, {0}
    16a8:	f57ff06f 	isb	sy
    16ac:	e12fff1e 	bx	lr

000016b0 <set_serial_gpio>:
    16b0:	e92d4038 	push	{r3, r4, r5, lr}
    16b4:	e1a04000 	mov	r4, r0
    16b8:	e1a05001 	mov	r5, r1
    16bc:	eb000451 	bl	2808 <config_gpio_clk>
    16c0:	e3540000 	cmp	r4, #0
    16c4:	1a000018 	bne	172c <set_serial_gpio+0x7c>
    16c8:	e30f10ff 	movw	r1, #61695	; 0xf0ff
    16cc:	e3a02c03 	mov	r2, #768	; 0x300
    16d0:	e3000828 	movw	r0, #2088	; 0x828
    16d4:	e30038b4 	movw	r3, #2228	; 0x8b4
    16d8:	e3550000 	cmp	r5, #0
    16dc:	e34f1ff0 	movt	r1, #65520	; 0xfff0
    16e0:	e3402003 	movt	r2, #3
    16e4:	e34001c2 	movt	r0, #450	; 0x1c2
    16e8:	e34031c2 	movt	r3, #450	; 0x1c2
    16ec:	03e01eff 	mvneq	r1, #4080	; 0xff0
    16f0:	03a02e22 	moveq	r2, #544	; 0x220
    16f4:	01a03000 	moveq	r3, r0
    16f8:	e5930000 	ldr	r0, [r3]
    16fc:	e0001001 	and	r1, r0, r1
    1700:	e5831000 	str	r1, [r3]
    1704:	f57ff04f 	dsb	sy
    1708:	f57ff06f 	isb	sy
    170c:	f57ff04f 	dsb	sy
    1710:	f57ff06f 	isb	sy
    1714:	e5931000 	ldr	r1, [r3]
    1718:	e1812002 	orr	r2, r1, r2
    171c:	e5832000 	str	r2, [r3]
    1720:	f57ff04f 	dsb	sy
    1724:	f57ff06f 	isb	sy
    1728:	e8bd8038 	pop	{r3, r4, r5, pc}
    172c:	e3a02000 	mov	r2, #0
    1730:	e59f001c 	ldr	r0, [pc, #28]	; 1754 <set_serial_gpio+0xa4>
    1734:	e34f21c2 	movt	r2, #61890	; 0xf1c2
    1738:	e30038b4 	movw	r3, #2228	; 0x8b4
    173c:	e592c8b4 	ldr	ip, [r2, #2228]	; 0x8b4
    1740:	e3e01000 	mvn	r1, #0
    1744:	e3a02000 	mov	r2, #0
    1748:	e34f31c2 	movt	r3, #61890	; 0xf1c2
    174c:	e580c000 	str	ip, [r0]
    1750:	eaffffe8 	b	16f8 <set_serial_gpio+0x48>
    1754:	0000322c 	andeq	r3, r0, ip, lsr #4

00001758 <set_serial_clk>:
    1758:	e92d4038 	push	{r3, r4, r5, lr}
    175c:	e1a04000 	mov	r4, r0
    1760:	eb000534 	bl	2c38 <mem_get_ba>
    1764:	e5903058 	ldr	r3, [r0, #88]	; 0x58
    1768:	e7e12c53 	ubfx	r2, r3, #24, #2
    176c:	e3520003 	cmp	r2, #3
    1770:	159f1084 	ldrne	r1, [pc, #132]	; 17fc <set_serial_clk+0xa4>
    1774:	03a00000 	moveq	r0, #0
    1778:	17910102 	ldrne	r0, [r1, r2, lsl #2]
    177c:	e203101f 	and	r1, r3, #31
    1780:	e2811001 	add	r1, r1, #1
    1784:	e7e13853 	ubfx	r3, r3, #16, #2
    1788:	e1a01311 	lsl	r1, r1, r3
    178c:	eb000324 	bl	2424 <__aeabi_uidiv>
    1790:	e3540000 	cmp	r4, #0
    1794:	e3a04000 	mov	r4, #0
    1798:	134f41c2 	movtne	r4, #61890	; 0xf1c2
    179c:	159f305c 	ldrne	r3, [pc, #92]	; 1800 <set_serial_clk+0xa8>
    17a0:	1594206c 	ldrne	r2, [r4, #108]	; 0x6c
    17a4:	034041c2 	movteq	r4, #450	; 0x1c2
    17a8:	e1a05000 	mov	r5, r0
    17ac:	15832004 	strne	r2, [r3, #4]
    17b0:	159422d8 	ldrne	r2, [r4, #728]	; 0x2d8
    17b4:	15832008 	strne	r2, [r3, #8]
    17b8:	e59432d8 	ldr	r3, [r4, #728]	; 0x2d8
    17bc:	e3c33801 	bic	r3, r3, #65536	; 0x10000
    17c0:	e58432d8 	str	r3, [r4, #728]	; 0x2d8
    17c4:	e59432d8 	ldr	r3, [r4, #728]	; 0x2d8
    17c8:	e3833801 	orr	r3, r3, #65536	; 0x10000
    17cc:	e58432d8 	str	r3, [r4, #728]	; 0x2d8
    17d0:	ebfffbeb 	bl	784 <change_runtime_env>
    17d4:	e3a00001 	mov	r0, #1
    17d8:	ebfffbf6 	bl	7b8 <delay_us>
    17dc:	e594306c 	ldr	r3, [r4, #108]	; 0x6c
    17e0:	e1a00005 	mov	r0, r5
    17e4:	e3c33801 	bic	r3, r3, #65536	; 0x10000
    17e8:	e584306c 	str	r3, [r4, #108]	; 0x6c
    17ec:	e594306c 	ldr	r3, [r4, #108]	; 0x6c
    17f0:	e3833801 	orr	r3, r3, #65536	; 0x10000
    17f4:	e584306c 	str	r3, [r4, #108]	; 0x6c
    17f8:	e8bd8038 	pop	{r3, r4, r5, pc}
    17fc:	00002fbc 			; <UNDEFINED> instruction: 0x00002fbc
    1800:	0000322c 	andeq	r3, r0, ip, lsr #4

00001804 <serial_exit>:
    1804:	e59f3034 	ldr	r3, [pc, #52]	; 1840 <serial_exit+0x3c>
    1808:	e3a02000 	mov	r2, #0
    180c:	e34f21c2 	movt	r2, #61890	; 0xf1c2
    1810:	e5931004 	ldr	r1, [r3, #4]
    1814:	e582106c 	str	r1, [r2, #108]	; 0x6c
    1818:	e5931008 	ldr	r1, [r3, #8]
    181c:	e58212d8 	str	r1, [r2, #728]	; 0x2d8
    1820:	e593100c 	ldr	r1, [r3, #12]
    1824:	e3510000 	cmp	r1, #0
    1828:	e5931000 	ldr	r1, [r3]
    182c:	05821828 	streq	r1, [r2, #2088]	; 0x828
    1830:	158218b4 	strne	r1, [r2, #2228]	; 0x8b4
    1834:	e3a02000 	mov	r2, #0
    1838:	e5832010 	str	r2, [r3, #16]
    183c:	e12fff1e 	bx	lr
    1840:	0000322c 	andeq	r3, r0, ip, lsr #4

00001844 <serial_init_nommu>:
    1844:	e92d4038 	push	{r3, r4, r5, lr}
    1848:	e1a01000 	mov	r1, r0
    184c:	e3a00000 	mov	r0, #0
    1850:	ebffff96 	bl	16b0 <set_serial_gpio>
    1854:	e3a00000 	mov	r0, #0
    1858:	ebffffbe 	bl	1758 <set_serial_clk>
    185c:	e30b33c5 	movw	r3, #46021	; 0xb3c5
    1860:	e2800ae1 	add	r0, r0, #921600	; 0xe1000
    1864:	e34931a2 	movt	r3, #37282	; 0x91a2
    1868:	e3a02902 	mov	r2, #32768	; 0x8000
    186c:	e0831093 	umull	r1, r3, r3, r0
    1870:	e34021c2 	movt	r2, #450	; 0x1c2
    1874:	e592000c 	ldr	r0, [r2, #12]
    1878:	e3a0c001 	mov	ip, #1
    187c:	e582c0a4 	str	ip, [r2, #164]	; 0xa4
    1880:	e303122c 	movw	r1, #12844	; 0x322c
    1884:	e3401000 	movt	r1, #0
    1888:	e3805080 	orr	r5, r0, #128	; 0x80
    188c:	e3c00080 	bic	r0, r0, #128	; 0x80
    1890:	e1a04e23 	lsr	r4, r3, #28
    1894:	e7e73a53 	ubfx	r3, r3, #20, #8
    1898:	e582500c 	str	r5, [r2, #12]
    189c:	e5824004 	str	r4, [r2, #4]
    18a0:	e5823000 	str	r3, [r2]
    18a4:	e3a03000 	mov	r3, #0
    18a8:	e582000c 	str	r0, [r2, #12]
    18ac:	e58230a4 	str	r3, [r2, #164]	; 0xa4
    18b0:	e3a03003 	mov	r3, #3
    18b4:	e582300c 	str	r3, [r2, #12]
    18b8:	e3a030e1 	mov	r3, #225	; 0xe1
    18bc:	e5823008 	str	r3, [r2, #8]
    18c0:	e581c010 	str	ip, [r1, #16]
    18c4:	e8bd8038 	pop	{r3, r4, r5, pc}

000018c8 <serial_puts_nommu>:
    18c8:	e59f30a4 	ldr	r3, [pc, #164]	; 1974 <serial_puts_nommu+0xac>
    18cc:	e52d4004 	push	{r4}		; (str r4, [sp, #-4]!)
    18d0:	e5933010 	ldr	r3, [r3, #16]
    18d4:	e3530000 	cmp	r3, #0
    18d8:	03e00000 	mvneq	r0, #0
    18dc:	0a000017 	beq	1940 <serial_puts_nommu+0x78>
    18e0:	e5d03000 	ldrb	r3, [r0]
    18e4:	e3530000 	cmp	r3, #0
    18e8:	0a000013 	beq	193c <serial_puts_nommu+0x74>
    18ec:	e3a01902 	mov	r1, #32768	; 0x8000
    18f0:	e2400001 	sub	r0, r0, #1
    18f4:	e34011c2 	movt	r1, #450	; 0x1c2
    18f8:	e3a0400d 	mov	r4, #13
    18fc:	e353000a 	cmp	r3, #10
    1900:	0a000010 	beq	1948 <serial_puts_nommu+0x80>
    1904:	e5f0c001 	ldrb	ip, [r0, #1]!
    1908:	e591207c 	ldr	r2, [r1, #124]	; 0x7c
    190c:	e3a03902 	mov	r3, #32768	; 0x8000
    1910:	e34031c2 	movt	r3, #450	; 0x1c2
    1914:	e3120002 	tst	r2, #2
    1918:	0afffffa 	beq	1908 <serial_puts_nommu+0x40>
    191c:	f57ff04f 	dsb	sy
    1920:	f57ff06f 	isb	sy
    1924:	e583c000 	str	ip, [r3]
    1928:	f57ff04f 	dsb	sy
    192c:	f57ff06f 	isb	sy
    1930:	e5d03001 	ldrb	r3, [r0, #1]
    1934:	e3530000 	cmp	r3, #0
    1938:	1affffef 	bne	18fc <serial_puts_nommu+0x34>
    193c:	e1a00003 	mov	r0, r3
    1940:	e8bd0010 	pop	{r4}
    1944:	e12fff1e 	bx	lr
    1948:	e591207c 	ldr	r2, [r1, #124]	; 0x7c
    194c:	e3a03902 	mov	r3, #32768	; 0x8000
    1950:	e34031c2 	movt	r3, #450	; 0x1c2
    1954:	e3120002 	tst	r2, #2
    1958:	0afffffa 	beq	1948 <serial_puts_nommu+0x80>
    195c:	f57ff04f 	dsb	sy
    1960:	f57ff06f 	isb	sy
    1964:	e5834000 	str	r4, [r3]
    1968:	f57ff04f 	dsb	sy
    196c:	f57ff06f 	isb	sy
    1970:	eaffffe3 	b	1904 <serial_puts_nommu+0x3c>
    1974:	0000322c 	andeq	r3, r0, ip, lsr #4

00001978 <serial_gets_nommu>:
    1978:	e59f3080 	ldr	r3, [pc, #128]	; 1a00 <serial_gets_nommu+0x88>
    197c:	e52d4004 	push	{r4}		; (str r4, [sp, #-4]!)
    1980:	e5933010 	ldr	r3, [r3, #16]
    1984:	e3530000 	cmp	r3, #0
    1988:	03e00000 	mvneq	r0, #0
    198c:	1a000001 	bne	1998 <serial_gets_nommu+0x20>
    1990:	e8bd0010 	pop	{r4}
    1994:	e12fff1e 	bx	lr
    1998:	e3510000 	cmp	r1, #0
    199c:	03a00001 	moveq	r0, #1
    19a0:	0afffffa 	beq	1990 <serial_gets_nommu+0x18>
    19a4:	e3a0c902 	mov	ip, #32768	; 0x8000
    19a8:	e3a04000 	mov	r4, #0
    19ac:	e340c1c2 	movt	ip, #450	; 0x1c2
    19b0:	e30f3fff 	movw	r3, #65535	; 0xffff
    19b4:	ea000001 	b	19c0 <serial_gets_nommu+0x48>
    19b8:	e2533001 	subs	r3, r3, #1
    19bc:	3a000006 	bcc	19dc <serial_gets_nommu+0x64>
    19c0:	e59c207c 	ldr	r2, [ip, #124]	; 0x7c
    19c4:	e3120008 	tst	r2, #8
    19c8:	0afffffa 	beq	19b8 <serial_gets_nommu+0x40>
    19cc:	e3530000 	cmp	r3, #0
    19d0:	1a000001 	bne	19dc <serial_gets_nommu+0x64>
    19d4:	e2840001 	add	r0, r4, #1
    19d8:	eaffffec 	b	1990 <serial_gets_nommu+0x18>
    19dc:	e59c3000 	ldr	r3, [ip]
    19e0:	e6ef3073 	uxtb	r3, r3
    19e4:	e3530000 	cmp	r3, #0
    19e8:	0afffff9 	beq	19d4 <serial_gets_nommu+0x5c>
    19ec:	e7c03004 	strb	r3, [r0, r4]
    19f0:	e2844001 	add	r4, r4, #1
    19f4:	e1540001 	cmp	r4, r1
    19f8:	1affffec 	bne	19b0 <serial_gets_nommu+0x38>
    19fc:	eafffff4 	b	19d4 <serial_gets_nommu+0x5c>
    1a00:	0000322c 	andeq	r3, r0, ip, lsr #4

00001a04 <serial_init_manager>:
    1a04:	e303322c 	movw	r3, #12844	; 0x322c
    1a08:	e3a02001 	mov	r2, #1
    1a0c:	e3403000 	movt	r3, #0
    1a10:	e5832010 	str	r2, [r3, #16]
    1a14:	e12fff1e 	bx	lr

00001a18 <serial_exit_manager>:
    1a18:	e303322c 	movw	r3, #12844	; 0x322c
    1a1c:	e3a02000 	mov	r2, #0
    1a20:	e3403000 	movt	r3, #0
    1a24:	e5832010 	str	r2, [r3, #16]
    1a28:	e12fff1e 	bx	lr

00001a2c <serial_init>:
    1a2c:	e92d4038 	push	{r3, r4, r5, lr}
    1a30:	e1a03000 	mov	r3, r0
    1a34:	e303422c 	movw	r4, #12844	; 0x322c
    1a38:	e1a01003 	mov	r1, r3
    1a3c:	e3404000 	movt	r4, #0
    1a40:	e3a00001 	mov	r0, #1
    1a44:	e584300c 	str	r3, [r4, #12]
    1a48:	ebffff18 	bl	16b0 <set_serial_gpio>
    1a4c:	e3a00001 	mov	r0, #1
    1a50:	ebffff40 	bl	1758 <set_serial_clk>
    1a54:	e30b33c5 	movw	r3, #46021	; 0xb3c5
    1a58:	e2800ae1 	add	r0, r0, #921600	; 0xe1000
    1a5c:	e34931a2 	movt	r3, #37282	; 0x91a2
    1a60:	e3a02902 	mov	r2, #32768	; 0x8000
    1a64:	e0831093 	umull	r1, r3, r3, r0
    1a68:	e34f21c2 	movt	r2, #61890	; 0xf1c2
    1a6c:	e592000c 	ldr	r0, [r2, #12]
    1a70:	e3a01001 	mov	r1, #1
    1a74:	e58210a4 	str	r1, [r2, #164]	; 0xa4
    1a78:	e3805080 	orr	r5, r0, #128	; 0x80
    1a7c:	e3c00080 	bic	r0, r0, #128	; 0x80
    1a80:	e1a0ce23 	lsr	ip, r3, #28
    1a84:	e7e73a53 	ubfx	r3, r3, #20, #8
    1a88:	e582500c 	str	r5, [r2, #12]
    1a8c:	e582c004 	str	ip, [r2, #4]
    1a90:	e5823000 	str	r3, [r2]
    1a94:	e3a03000 	mov	r3, #0
    1a98:	e582000c 	str	r0, [r2, #12]
    1a9c:	e58230a4 	str	r3, [r2, #164]	; 0xa4
    1aa0:	e3a03003 	mov	r3, #3
    1aa4:	e582300c 	str	r3, [r2, #12]
    1aa8:	e3a030e1 	mov	r3, #225	; 0xe1
    1aac:	e5823008 	str	r3, [r2, #8]
    1ab0:	e5841010 	str	r1, [r4, #16]
    1ab4:	e8bd8038 	pop	{r3, r4, r5, pc}

00001ab8 <serial_puts>:
    1ab8:	e59f30a4 	ldr	r3, [pc, #164]	; 1b64 <serial_puts+0xac>
    1abc:	e52d4004 	push	{r4}		; (str r4, [sp, #-4]!)
    1ac0:	e5933010 	ldr	r3, [r3, #16]
    1ac4:	e3530000 	cmp	r3, #0
    1ac8:	03e00000 	mvneq	r0, #0
    1acc:	0a000017 	beq	1b30 <serial_puts+0x78>
    1ad0:	e5d03000 	ldrb	r3, [r0]
    1ad4:	e3530000 	cmp	r3, #0
    1ad8:	0a000013 	beq	1b2c <serial_puts+0x74>
    1adc:	e3a01902 	mov	r1, #32768	; 0x8000
    1ae0:	e2400001 	sub	r0, r0, #1
    1ae4:	e34f11c2 	movt	r1, #61890	; 0xf1c2
    1ae8:	e3a0400d 	mov	r4, #13
    1aec:	e353000a 	cmp	r3, #10
    1af0:	0a000010 	beq	1b38 <serial_puts+0x80>
    1af4:	e5f0c001 	ldrb	ip, [r0, #1]!
    1af8:	e591207c 	ldr	r2, [r1, #124]	; 0x7c
    1afc:	e3a03902 	mov	r3, #32768	; 0x8000
    1b00:	e34f31c2 	movt	r3, #61890	; 0xf1c2
    1b04:	e3120002 	tst	r2, #2
    1b08:	0afffffa 	beq	1af8 <serial_puts+0x40>
    1b0c:	f57ff04f 	dsb	sy
    1b10:	f57ff06f 	isb	sy
    1b14:	e583c000 	str	ip, [r3]
    1b18:	f57ff04f 	dsb	sy
    1b1c:	f57ff06f 	isb	sy
    1b20:	e5d03001 	ldrb	r3, [r0, #1]
    1b24:	e3530000 	cmp	r3, #0
    1b28:	1affffef 	bne	1aec <serial_puts+0x34>
    1b2c:	e1a00003 	mov	r0, r3
    1b30:	e8bd0010 	pop	{r4}
    1b34:	e12fff1e 	bx	lr
    1b38:	e591207c 	ldr	r2, [r1, #124]	; 0x7c
    1b3c:	e3a03902 	mov	r3, #32768	; 0x8000
    1b40:	e34f31c2 	movt	r3, #61890	; 0xf1c2
    1b44:	e3120002 	tst	r2, #2
    1b48:	0afffffa 	beq	1b38 <serial_puts+0x80>
    1b4c:	f57ff04f 	dsb	sy
    1b50:	f57ff06f 	isb	sy
    1b54:	e5834000 	str	r4, [r3]
    1b58:	f57ff04f 	dsb	sy
    1b5c:	f57ff06f 	isb	sy
    1b60:	eaffffe3 	b	1af4 <serial_puts+0x3c>
    1b64:	0000322c 	andeq	r3, r0, ip, lsr #4

00001b68 <serial_gets>:
    1b68:	e59f3080 	ldr	r3, [pc, #128]	; 1bf0 <serial_gets+0x88>
    1b6c:	e52d4004 	push	{r4}		; (str r4, [sp, #-4]!)
    1b70:	e5933010 	ldr	r3, [r3, #16]
    1b74:	e3530000 	cmp	r3, #0
    1b78:	03e00000 	mvneq	r0, #0
    1b7c:	1a000001 	bne	1b88 <serial_gets+0x20>
    1b80:	e8bd0010 	pop	{r4}
    1b84:	e12fff1e 	bx	lr
    1b88:	e3510000 	cmp	r1, #0
    1b8c:	03a00001 	moveq	r0, #1
    1b90:	0afffffa 	beq	1b80 <serial_gets+0x18>
    1b94:	e3a0c902 	mov	ip, #32768	; 0x8000
    1b98:	e3a04000 	mov	r4, #0
    1b9c:	e34fc1c2 	movt	ip, #61890	; 0xf1c2
    1ba0:	e30f3fff 	movw	r3, #65535	; 0xffff
    1ba4:	ea000001 	b	1bb0 <serial_gets+0x48>
    1ba8:	e2533001 	subs	r3, r3, #1
    1bac:	3a000006 	bcc	1bcc <serial_gets+0x64>
    1bb0:	e59c207c 	ldr	r2, [ip, #124]	; 0x7c
    1bb4:	e3120008 	tst	r2, #8
    1bb8:	0afffffa 	beq	1ba8 <serial_gets+0x40>
    1bbc:	e3530000 	cmp	r3, #0
    1bc0:	1a000001 	bne	1bcc <serial_gets+0x64>
    1bc4:	e2840001 	add	r0, r4, #1
    1bc8:	eaffffec 	b	1b80 <serial_gets+0x18>
    1bcc:	e59c3000 	ldr	r3, [ip]
    1bd0:	e6ef3073 	uxtb	r3, r3
    1bd4:	e3530000 	cmp	r3, #0
    1bd8:	0afffff9 	beq	1bc4 <serial_gets+0x5c>
    1bdc:	e7c03004 	strb	r3, [r0, r4]
    1be0:	e2844001 	add	r4, r4, #1
    1be4:	e1540001 	cmp	r4, r1
    1be8:	1affffec 	bne	1ba0 <serial_gets+0x38>
    1bec:	eafffff4 	b	1bc4 <serial_gets+0x5c>
    1bf0:	0000322c 	andeq	r3, r0, ip, lsr #4

00001bf4 <utoa>:
    1bf4:	e92d45f0 	push	{r4, r5, r6, r7, r8, sl, lr}
    1bf8:	e3500000 	cmp	r0, #0
    1bfc:	e59f60a8 	ldr	r6, [pc, #168]	; 1cac <utoa+0xb8>
    1c00:	e1a07001 	mov	r7, r1
    1c04:	e1a04000 	mov	r4, r0
    1c08:	e1a05002 	mov	r5, r2
    1c0c:	e24dd02c 	sub	sp, sp, #44	; 0x2c
    1c10:	13a08000 	movne	r8, #0
    1c14:	e28dc004 	add	ip, sp, #4
    1c18:	128da018 	addne	sl, sp, #24
    1c1c:	e8b6000f 	ldm	r6!, {r0, r1, r2, r3}
    1c20:	e5966000 	ldr	r6, [r6]
    1c24:	e8ac000f 	stmia	ip!, {r0, r1, r2, r3}
    1c28:	03a03030 	moveq	r3, #48	; 0x30
    1c2c:	05c74001 	strbeq	r4, [r7, #1]
    1c30:	e5cc6000 	strb	r6, [ip]
    1c34:	05c73000 	strbeq	r3, [r7]
    1c38:	1a000001 	bne	1c44 <utoa+0x50>
    1c3c:	ea000017 	b	1ca0 <utoa+0xac>
    1c40:	e1a08003 	mov	r8, r3
    1c44:	e1a00004 	mov	r0, r4
    1c48:	e1a01005 	mov	r1, r5
    1c4c:	eb00024e 	bl	258c <__aeabi_uidivmod>
    1c50:	e28d3028 	add	r3, sp, #40	; 0x28
    1c54:	e1a00004 	mov	r0, r4
    1c58:	e0831001 	add	r1, r3, r1
    1c5c:	e5516024 	ldrb	r6, [r1, #-36]	; 0x24
    1c60:	e1a01005 	mov	r1, r5
    1c64:	e7ca6008 	strb	r6, [sl, r8]
    1c68:	eb0001ed 	bl	2424 <__aeabi_uidiv>
    1c6c:	e2504000 	subs	r4, r0, #0
    1c70:	e2883001 	add	r3, r8, #1
    1c74:	1afffff1 	bne	1c40 <utoa+0x4c>
    1c78:	e2472001 	sub	r2, r7, #1
    1c7c:	e08a3008 	add	r3, sl, r8
    1c80:	ea000000 	b	1c88 <utoa+0x94>
    1c84:	e5736001 	ldrb	r6, [r3, #-1]!
    1c88:	e153000a 	cmp	r3, sl
    1c8c:	e5e26001 	strb	r6, [r2, #1]!
    1c90:	1afffffb 	bne	1c84 <utoa+0x90>
    1c94:	e0878008 	add	r8, r7, r8
    1c98:	e3a03000 	mov	r3, #0
    1c9c:	e5c83001 	strb	r3, [r8, #1]
    1ca0:	e1a00007 	mov	r0, r7
    1ca4:	e28dd02c 	add	sp, sp, #44	; 0x2c
    1ca8:	e8bd85f0 	pop	{r4, r5, r6, r7, r8, sl, pc}
    1cac:	000030e8 	andeq	r3, r0, r8, ror #1

00001cb0 <print_align>:
    1cb0:	e92d00f0 	push	{r4, r5, r6, r7}
    1cb4:	e1510002 	cmp	r1, r2
    1cb8:	e59f4094 	ldr	r4, [pc, #148]	; 1d54 <print_align+0xa4>
    1cbc:	e1a07001 	mov	r7, r1
    1cc0:	e1a06002 	mov	r6, r2
    1cc4:	e1a05000 	mov	r5, r0
    1cc8:	e24dd018 	sub	sp, sp, #24
    1ccc:	e28dc004 	add	ip, sp, #4
    1cd0:	e8b4000f 	ldm	r4!, {r0, r1, r2, r3}
    1cd4:	e5944000 	ldr	r4, [r4]
    1cd8:	e8ac000f 	stmia	ip!, {r0, r1, r2, r3}
    1cdc:	a3a00000 	movge	r0, #0
    1ce0:	e5cc4000 	strb	r4, [ip]
    1ce4:	aa000017 	bge	1d48 <print_align+0x98>
    1ce8:	e0670006 	rsb	r0, r7, r6
    1cec:	e3500000 	cmp	r0, #0
    1cf0:	e1a01000 	mov	r1, r0
    1cf4:	0a000013 	beq	1d48 <print_align+0x98>
    1cf8:	e5d53000 	ldrb	r3, [r5]
    1cfc:	e3530000 	cmp	r3, #0
    1d00:	0a000005 	beq	1d1c <print_align+0x6c>
    1d04:	e1a03005 	mov	r3, r5
    1d08:	e2833001 	add	r3, r3, #1
    1d0c:	e5d32000 	ldrb	r2, [r3]
    1d10:	e1a05003 	mov	r5, r3
    1d14:	e3520000 	cmp	r2, #0
    1d18:	1afffffa 	bne	1d08 <print_align+0x58>
    1d1c:	e28dc003 	add	ip, sp, #3
    1d20:	ea000000 	b	1d28 <print_align+0x78>
    1d24:	e1a05003 	mov	r5, r3
    1d28:	e5fc2001 	ldrb	r2, [ip, #1]!
    1d2c:	e1a03005 	mov	r3, r5
    1d30:	e3520000 	cmp	r2, #0
    1d34:	e4c32001 	strb	r2, [r3], #1
    1d38:	0a000002 	beq	1d48 <print_align+0x98>
    1d3c:	e2511001 	subs	r1, r1, #1
    1d40:	1afffff7 	bne	1d24 <print_align+0x74>
    1d44:	e5c51001 	strb	r1, [r5, #1]
    1d48:	e28dd018 	add	sp, sp, #24
    1d4c:	e8bd00f0 	pop	{r4, r5, r6, r7}
    1d50:	e12fff1e 	bx	lr
    1d54:	000030fc 	strdeq	r3, [r0], -ip

00001d58 <itoa.constprop.0>:
    1d58:	e92d01f0 	push	{r4, r5, r6, r7, r8}
    1d5c:	e3500000 	cmp	r0, #0
    1d60:	e59f50d4 	ldr	r5, [pc, #212]	; 1e3c <itoa.constprop.0+0xe4>
    1d64:	e1a06001 	mov	r6, r1
    1d68:	e1a0c000 	mov	ip, r0
    1d6c:	e24dd02c 	sub	sp, sp, #44	; 0x2c
    1d70:	e28d4004 	add	r4, sp, #4
    1d74:	e8b5000f 	ldm	r5!, {r0, r1, r2, r3}
    1d78:	e5955000 	ldr	r5, [r5]
    1d7c:	e8a4000f 	stmia	r4!, {r0, r1, r2, r3}
    1d80:	03a03030 	moveq	r3, #48	; 0x30
    1d84:	05c6c001 	strbeq	ip, [r6, #1]
    1d88:	e5c45000 	strb	r5, [r4]
    1d8c:	05c63000 	strbeq	r3, [r6]
    1d90:	0a000025 	beq	1e2c <itoa.constprop.0+0xd4>
    1d94:	e3065667 	movw	r5, #26215	; 0x6667
    1d98:	b26cc000 	rsblt	ip, ip, #0
    1d9c:	b3a07001 	movlt	r7, #1
    1da0:	a3a07000 	movge	r7, #0
    1da4:	e3a03000 	mov	r3, #0
    1da8:	e28d0018 	add	r0, sp, #24
    1dac:	e3465666 	movt	r5, #26214	; 0x6666
    1db0:	ea000000 	b	1db8 <itoa.constprop.0+0x60>
    1db4:	e1a03004 	mov	r3, r4
    1db8:	e0c12c95 	smull	r2, r1, r5, ip
    1dbc:	e1a02fcc 	asr	r2, ip, #31
    1dc0:	e28d8028 	add	r8, sp, #40	; 0x28
    1dc4:	e2834001 	add	r4, r3, #1
    1dc8:	e0622141 	rsb	r2, r2, r1, asr #2
    1dcc:	e0821102 	add	r1, r2, r2, lsl #2
    1dd0:	e04c1081 	sub	r1, ip, r1, lsl #1
    1dd4:	e252c000 	subs	ip, r2, #0
    1dd8:	e0882001 	add	r2, r8, r1
    1ddc:	e5522024 	ldrb	r2, [r2, #-36]	; 0x24
    1de0:	e7c02003 	strb	r2, [r0, r3]
    1de4:	1afffff2 	bne	1db4 <itoa.constprop.0+0x5c>
    1de8:	e3570000 	cmp	r7, #0
    1dec:	e1a0c003 	mov	ip, r3
    1df0:	13a0102d 	movne	r1, #45	; 0x2d
    1df4:	13a07001 	movne	r7, #1
    1df8:	15c61000 	strbne	r1, [r6]
    1dfc:	e2471001 	sub	r1, r7, #1
    1e00:	e0861001 	add	r1, r6, r1
    1e04:	ea000000 	b	1e0c <itoa.constprop.0+0xb4>
    1e08:	e7d02003 	ldrb	r2, [r0, r3]
    1e0c:	e2433001 	sub	r3, r3, #1
    1e10:	e5e12001 	strb	r2, [r1, #1]!
    1e14:	e3730001 	cmn	r3, #1
    1e18:	1afffffa 	bne	1e08 <itoa.constprop.0+0xb0>
    1e1c:	e2877001 	add	r7, r7, #1
    1e20:	e3a03000 	mov	r3, #0
    1e24:	e0867007 	add	r7, r6, r7
    1e28:	e7c7300c 	strb	r3, [r7, ip]
    1e2c:	e1a00006 	mov	r0, r6
    1e30:	e28dd02c 	add	sp, sp, #44	; 0x2c
    1e34:	e8bd01f0 	pop	{r4, r5, r6, r7, r8}
    1e38:	e12fff1e 	bx	lr
    1e3c:	000030e8 	andeq	r3, r0, r8, ror #1

00001e40 <printk>:
    1e40:	e92d000f 	push	{r0, r1, r2, r3}
    1e44:	e92d47f0 	push	{r4, r5, r6, r7, r8, r9, sl, lr}
    1e48:	e24dd018 	sub	sp, sp, #24
    1e4c:	e28d303c 	add	r3, sp, #60	; 0x3c
    1e50:	e59d4038 	ldr	r4, [sp, #56]	; 0x38
    1e54:	e58d3014 	str	r3, [sp, #20]
    1e58:	e59f82ac 	ldr	r8, [pc, #684]	; 210c <printk+0x2cc>
    1e5c:	e5d43000 	ldrb	r3, [r4]
    1e60:	e3530000 	cmp	r3, #0
    1e64:	01a05008 	moveq	r5, r8
    1e68:	0a00002c 	beq	1f20 <printk+0xe0>
    1e6c:	e3a09025 	mov	r9, #37	; 0x25
    1e70:	e28d6004 	add	r6, sp, #4
    1e74:	e1a05008 	mov	r5, r8
    1e78:	ea000003 	b	1e8c <printk+0x4c>
    1e7c:	e5d43001 	ldrb	r3, [r4, #1]
    1e80:	e2844001 	add	r4, r4, #1
    1e84:	e3530000 	cmp	r3, #0
    1e88:	0a000024 	beq	1f20 <printk+0xe0>
    1e8c:	e3530025 	cmp	r3, #37	; 0x25
    1e90:	14c53001 	strbne	r3, [r5], #1
    1e94:	1afffff8 	bne	1e7c <printk+0x3c>
    1e98:	e5d43001 	ldrb	r3, [r4, #1]
    1e9c:	e2432031 	sub	r2, r3, #49	; 0x31
    1ea0:	e3520008 	cmp	r2, #8
    1ea4:	92437030 	subls	r7, r3, #48	; 0x30
    1ea8:	95d43002 	ldrbls	r3, [r4, #2]
    1eac:	82844001 	addhi	r4, r4, #1
    1eb0:	83a07000 	movhi	r7, #0
    1eb4:	92844002 	addls	r4, r4, #2
    1eb8:	e2433063 	sub	r3, r3, #99	; 0x63
    1ebc:	e3530015 	cmp	r3, #21
    1ec0:	979ff103 	ldrls	pc, [pc, r3, lsl #2]
    1ec4:	ea000070 	b	208c <printk+0x24c>
    1ec8:	00002074 	andeq	r2, r0, r4, ror r0
    1ecc:	000020a0 	andeq	r2, r0, r0, lsr #1
    1ed0:	0000208c 	andeq	r2, r0, ip, lsl #1
    1ed4:	0000208c 	andeq	r2, r0, ip, lsl #1
    1ed8:	0000208c 	andeq	r2, r0, ip, lsl #1
    1edc:	0000208c 	andeq	r2, r0, ip, lsl #1
    1ee0:	0000208c 	andeq	r2, r0, ip, lsl #1
    1ee4:	0000208c 	andeq	r2, r0, ip, lsl #1
    1ee8:	0000208c 	andeq	r2, r0, ip, lsl #1
    1eec:	0000208c 	andeq	r2, r0, ip, lsl #1
    1ef0:	0000208c 	andeq	r2, r0, ip, lsl #1
    1ef4:	0000208c 	andeq	r2, r0, ip, lsl #1
    1ef8:	0000208c 	andeq	r2, r0, ip, lsl #1
    1efc:	00002004 	andeq	r2, r0, r4
    1f00:	0000208c 	andeq	r2, r0, ip, lsl #1
    1f04:	0000208c 	andeq	r2, r0, ip, lsl #1
    1f08:	00001fb4 			; <UNDEFINED> instruction: 0x00001fb4
    1f0c:	0000208c 	andeq	r2, r0, ip, lsl #1
    1f10:	00001f44 	andeq	r1, r0, r4, asr #30
    1f14:	0000208c 	andeq	r2, r0, ip, lsl #1
    1f18:	0000208c 	andeq	r2, r0, ip, lsl #1
    1f1c:	00002004 	andeq	r2, r0, r4
    1f20:	e3a03000 	mov	r3, #0
    1f24:	e59f01e0 	ldr	r0, [pc, #480]	; 210c <printk+0x2cc>
    1f28:	e4c53001 	strb	r3, [r5], #1
    1f2c:	ebfffee1 	bl	1ab8 <serial_puts>
    1f30:	e0680005 	rsb	r0, r8, r5
    1f34:	e28dd018 	add	sp, sp, #24
    1f38:	e8bd47f0 	pop	{r4, r5, r6, r7, r8, r9, sl, lr}
    1f3c:	e28dd010 	add	sp, sp, #16
    1f40:	e12fff1e 	bx	lr
    1f44:	e59d0014 	ldr	r0, [sp, #20]
    1f48:	e1a01006 	mov	r1, r6
    1f4c:	e3a0200a 	mov	r2, #10
    1f50:	e2803004 	add	r3, r0, #4
    1f54:	e5900000 	ldr	r0, [r0]
    1f58:	e58d3014 	str	r3, [sp, #20]
    1f5c:	ebffff24 	bl	1bf4 <utoa>
    1f60:	e5d6a000 	ldrb	sl, [r6]
    1f64:	e35a0000 	cmp	sl, #0
    1f68:	0a000004 	beq	1f80 <printk+0x140>
    1f6c:	e1a0a006 	mov	sl, r6
    1f70:	e5fa3001 	ldrb	r3, [sl, #1]!
    1f74:	e3530000 	cmp	r3, #0
    1f78:	1afffffc 	bne	1f70 <printk+0x130>
    1f7c:	e066a00a 	rsb	sl, r6, sl
    1f80:	e1a0100a 	mov	r1, sl
    1f84:	e1a00006 	mov	r0, r6
    1f88:	e1a02007 	mov	r2, r7
    1f8c:	ebffff47 	bl	1cb0 <print_align>
    1f90:	e28d3003 	add	r3, sp, #3
    1f94:	e080000a 	add	r0, r0, sl
    1f98:	e1a01005 	mov	r1, r5
    1f9c:	e5f32001 	ldrb	r2, [r3, #1]!
    1fa0:	e3520000 	cmp	r2, #0
    1fa4:	e4c12001 	strb	r2, [r1], #1
    1fa8:	1afffffb 	bne	1f9c <printk+0x15c>
    1fac:	e0855000 	add	r5, r5, r0
    1fb0:	eaffffb1 	b	1e7c <printk+0x3c>
    1fb4:	e59d3014 	ldr	r3, [sp, #20]
    1fb8:	e1a01005 	mov	r1, r5
    1fbc:	e2832004 	add	r2, r3, #4
    1fc0:	e58d2014 	str	r2, [sp, #20]
    1fc4:	e5930000 	ldr	r0, [r3]
    1fc8:	e2402001 	sub	r2, r0, #1
    1fcc:	e5f23001 	ldrb	r3, [r2, #1]!
    1fd0:	e3530000 	cmp	r3, #0
    1fd4:	e4c13001 	strb	r3, [r1], #1
    1fd8:	1afffffb 	bne	1fcc <printk+0x18c>
    1fdc:	e5d03000 	ldrb	r3, [r0]
    1fe0:	e3530000 	cmp	r3, #0
    1fe4:	0a000004 	beq	1ffc <printk+0x1bc>
    1fe8:	e1a03000 	mov	r3, r0
    1fec:	e5f32001 	ldrb	r2, [r3, #1]!
    1ff0:	e3520000 	cmp	r2, #0
    1ff4:	1afffffc 	bne	1fec <printk+0x1ac>
    1ff8:	e0603003 	rsb	r3, r0, r3
    1ffc:	e0855003 	add	r5, r5, r3
    2000:	eaffff9d 	b	1e7c <printk+0x3c>
    2004:	e59d0014 	ldr	r0, [sp, #20]
    2008:	e1a01006 	mov	r1, r6
    200c:	e3a02010 	mov	r2, #16
    2010:	e2803004 	add	r3, r0, #4
    2014:	e5900000 	ldr	r0, [r0]
    2018:	e58d3014 	str	r3, [sp, #20]
    201c:	ebfffef4 	bl	1bf4 <utoa>
    2020:	e5d6a000 	ldrb	sl, [r6]
    2024:	e35a0000 	cmp	sl, #0
    2028:	0a000004 	beq	2040 <printk+0x200>
    202c:	e1a0a006 	mov	sl, r6
    2030:	e5fa3001 	ldrb	r3, [sl, #1]!
    2034:	e3530000 	cmp	r3, #0
    2038:	1afffffc 	bne	2030 <printk+0x1f0>
    203c:	e066a00a 	rsb	sl, r6, sl
    2040:	e1a0100a 	mov	r1, sl
    2044:	e1a00006 	mov	r0, r6
    2048:	e1a02007 	mov	r2, r7
    204c:	ebffff17 	bl	1cb0 <print_align>
    2050:	e28d3003 	add	r3, sp, #3
    2054:	e080000a 	add	r0, r0, sl
    2058:	e1a01005 	mov	r1, r5
    205c:	e5f32001 	ldrb	r2, [r3, #1]!
    2060:	e3520000 	cmp	r2, #0
    2064:	e4c12001 	strb	r2, [r1], #1
    2068:	1afffffb 	bne	205c <printk+0x21c>
    206c:	e0855000 	add	r5, r5, r0
    2070:	eaffff81 	b	1e7c <printk+0x3c>
    2074:	e59d3014 	ldr	r3, [sp, #20]
    2078:	e5932000 	ldr	r2, [r3]
    207c:	e2833004 	add	r3, r3, #4
    2080:	e58d3014 	str	r3, [sp, #20]
    2084:	e5c52000 	strb	r2, [r5]
    2088:	eaffff7b 	b	1e7c <printk+0x3c>
    208c:	e5c59000 	strb	r9, [r5]
    2090:	e5d43000 	ldrb	r3, [r4]
    2094:	e5c53001 	strb	r3, [r5, #1]
    2098:	e2855002 	add	r5, r5, #2
    209c:	eaffff76 	b	1e7c <printk+0x3c>
    20a0:	e59d2014 	ldr	r2, [sp, #20]
    20a4:	e1a01006 	mov	r1, r6
    20a8:	e2823004 	add	r3, r2, #4
    20ac:	e5920000 	ldr	r0, [r2]
    20b0:	e58d3014 	str	r3, [sp, #20]
    20b4:	ebffff27 	bl	1d58 <itoa.constprop.0>
    20b8:	e5d6a000 	ldrb	sl, [r6]
    20bc:	e35a0000 	cmp	sl, #0
    20c0:	0a000004 	beq	20d8 <printk+0x298>
    20c4:	e1a0a006 	mov	sl, r6
    20c8:	e5fa3001 	ldrb	r3, [sl, #1]!
    20cc:	e3530000 	cmp	r3, #0
    20d0:	1afffffc 	bne	20c8 <printk+0x288>
    20d4:	e066a00a 	rsb	sl, r6, sl
    20d8:	e1a0100a 	mov	r1, sl
    20dc:	e1a00006 	mov	r0, r6
    20e0:	e1a02007 	mov	r2, r7
    20e4:	ebfffef1 	bl	1cb0 <print_align>
    20e8:	e28d3003 	add	r3, sp, #3
    20ec:	e080000a 	add	r0, r0, sl
    20f0:	e1a01005 	mov	r1, r5
    20f4:	e5f32001 	ldrb	r2, [r3, #1]!
    20f8:	e3520000 	cmp	r2, #0
    20fc:	e4c12001 	strb	r2, [r1], #1
    2100:	1afffffb 	bne	20f4 <printk+0x2b4>
    2104:	e0855000 	add	r5, r5, r0
    2108:	eaffff5b 	b	1e7c <printk+0x3c>
    210c:	00003240 	andeq	r3, r0, r0, asr #4

00002110 <printk_nommu>:
    2110:	e92d000f 	push	{r0, r1, r2, r3}
    2114:	e92d47f0 	push	{r4, r5, r6, r7, r8, r9, sl, lr}
    2118:	e24dd018 	sub	sp, sp, #24
    211c:	e28d303c 	add	r3, sp, #60	; 0x3c
    2120:	e59d4038 	ldr	r4, [sp, #56]	; 0x38
    2124:	e58d3014 	str	r3, [sp, #20]
    2128:	e59f82ac 	ldr	r8, [pc, #684]	; 23dc <printk_nommu+0x2cc>
    212c:	e5d43000 	ldrb	r3, [r4]
    2130:	e3530000 	cmp	r3, #0
    2134:	01a05008 	moveq	r5, r8
    2138:	0a00002c 	beq	21f0 <printk_nommu+0xe0>
    213c:	e3a09025 	mov	r9, #37	; 0x25
    2140:	e28d6004 	add	r6, sp, #4
    2144:	e1a05008 	mov	r5, r8
    2148:	ea000003 	b	215c <printk_nommu+0x4c>
    214c:	e5d43001 	ldrb	r3, [r4, #1]
    2150:	e2844001 	add	r4, r4, #1
    2154:	e3530000 	cmp	r3, #0
    2158:	0a000024 	beq	21f0 <printk_nommu+0xe0>
    215c:	e3530025 	cmp	r3, #37	; 0x25
    2160:	14c53001 	strbne	r3, [r5], #1
    2164:	1afffff8 	bne	214c <printk_nommu+0x3c>
    2168:	e5d43001 	ldrb	r3, [r4, #1]
    216c:	e2432031 	sub	r2, r3, #49	; 0x31
    2170:	e3520008 	cmp	r2, #8
    2174:	92437030 	subls	r7, r3, #48	; 0x30
    2178:	95d43002 	ldrbls	r3, [r4, #2]
    217c:	82844001 	addhi	r4, r4, #1
    2180:	83a07000 	movhi	r7, #0
    2184:	92844002 	addls	r4, r4, #2
    2188:	e2433063 	sub	r3, r3, #99	; 0x63
    218c:	e3530015 	cmp	r3, #21
    2190:	979ff103 	ldrls	pc, [pc, r3, lsl #2]
    2194:	ea000070 	b	235c <printk_nommu+0x24c>
    2198:	00002344 	andeq	r2, r0, r4, asr #6
    219c:	00002370 	andeq	r2, r0, r0, ror r3
    21a0:	0000235c 	andeq	r2, r0, ip, asr r3
    21a4:	0000235c 	andeq	r2, r0, ip, asr r3
    21a8:	0000235c 	andeq	r2, r0, ip, asr r3
    21ac:	0000235c 	andeq	r2, r0, ip, asr r3
    21b0:	0000235c 	andeq	r2, r0, ip, asr r3
    21b4:	0000235c 	andeq	r2, r0, ip, asr r3
    21b8:	0000235c 	andeq	r2, r0, ip, asr r3
    21bc:	0000235c 	andeq	r2, r0, ip, asr r3
    21c0:	0000235c 	andeq	r2, r0, ip, asr r3
    21c4:	0000235c 	andeq	r2, r0, ip, asr r3
    21c8:	0000235c 	andeq	r2, r0, ip, asr r3
    21cc:	000022d4 	ldrdeq	r2, [r0], -r4
    21d0:	0000235c 	andeq	r2, r0, ip, asr r3
    21d4:	0000235c 	andeq	r2, r0, ip, asr r3
    21d8:	00002284 	andeq	r2, r0, r4, lsl #5
    21dc:	0000235c 	andeq	r2, r0, ip, asr r3
    21e0:	00002214 	andeq	r2, r0, r4, lsl r2
    21e4:	0000235c 	andeq	r2, r0, ip, asr r3
    21e8:	0000235c 	andeq	r2, r0, ip, asr r3
    21ec:	000022d4 	ldrdeq	r2, [r0], -r4
    21f0:	e3a03000 	mov	r3, #0
    21f4:	e59f01e0 	ldr	r0, [pc, #480]	; 23dc <printk_nommu+0x2cc>
    21f8:	e4c53001 	strb	r3, [r5], #1
    21fc:	ebfffdb1 	bl	18c8 <serial_puts_nommu>
    2200:	e0680005 	rsb	r0, r8, r5
    2204:	e28dd018 	add	sp, sp, #24
    2208:	e8bd47f0 	pop	{r4, r5, r6, r7, r8, r9, sl, lr}
    220c:	e28dd010 	add	sp, sp, #16
    2210:	e12fff1e 	bx	lr
    2214:	e59d0014 	ldr	r0, [sp, #20]
    2218:	e1a01006 	mov	r1, r6
    221c:	e3a0200a 	mov	r2, #10
    2220:	e2803004 	add	r3, r0, #4
    2224:	e5900000 	ldr	r0, [r0]
    2228:	e58d3014 	str	r3, [sp, #20]
    222c:	ebfffe70 	bl	1bf4 <utoa>
    2230:	e5d6a000 	ldrb	sl, [r6]
    2234:	e35a0000 	cmp	sl, #0
    2238:	0a000004 	beq	2250 <printk_nommu+0x140>
    223c:	e1a0a006 	mov	sl, r6
    2240:	e5fa3001 	ldrb	r3, [sl, #1]!
    2244:	e3530000 	cmp	r3, #0
    2248:	1afffffc 	bne	2240 <printk_nommu+0x130>
    224c:	e066a00a 	rsb	sl, r6, sl
    2250:	e1a0100a 	mov	r1, sl
    2254:	e1a00006 	mov	r0, r6
    2258:	e1a02007 	mov	r2, r7
    225c:	ebfffe93 	bl	1cb0 <print_align>
    2260:	e28d3003 	add	r3, sp, #3
    2264:	e080000a 	add	r0, r0, sl
    2268:	e1a01005 	mov	r1, r5
    226c:	e5f32001 	ldrb	r2, [r3, #1]!
    2270:	e3520000 	cmp	r2, #0
    2274:	e4c12001 	strb	r2, [r1], #1
    2278:	1afffffb 	bne	226c <printk_nommu+0x15c>
    227c:	e0855000 	add	r5, r5, r0
    2280:	eaffffb1 	b	214c <printk_nommu+0x3c>
    2284:	e59d3014 	ldr	r3, [sp, #20]
    2288:	e1a01005 	mov	r1, r5
    228c:	e2832004 	add	r2, r3, #4
    2290:	e58d2014 	str	r2, [sp, #20]
    2294:	e5930000 	ldr	r0, [r3]
    2298:	e2402001 	sub	r2, r0, #1
    229c:	e5f23001 	ldrb	r3, [r2, #1]!
    22a0:	e3530000 	cmp	r3, #0
    22a4:	e4c13001 	strb	r3, [r1], #1
    22a8:	1afffffb 	bne	229c <printk_nommu+0x18c>
    22ac:	e5d03000 	ldrb	r3, [r0]
    22b0:	e3530000 	cmp	r3, #0
    22b4:	0a000004 	beq	22cc <printk_nommu+0x1bc>
    22b8:	e1a03000 	mov	r3, r0
    22bc:	e5f32001 	ldrb	r2, [r3, #1]!
    22c0:	e3520000 	cmp	r2, #0
    22c4:	1afffffc 	bne	22bc <printk_nommu+0x1ac>
    22c8:	e0603003 	rsb	r3, r0, r3
    22cc:	e0855003 	add	r5, r5, r3
    22d0:	eaffff9d 	b	214c <printk_nommu+0x3c>
    22d4:	e59d0014 	ldr	r0, [sp, #20]
    22d8:	e1a01006 	mov	r1, r6
    22dc:	e3a02010 	mov	r2, #16
    22e0:	e2803004 	add	r3, r0, #4
    22e4:	e5900000 	ldr	r0, [r0]
    22e8:	e58d3014 	str	r3, [sp, #20]
    22ec:	ebfffe40 	bl	1bf4 <utoa>
    22f0:	e5d6a000 	ldrb	sl, [r6]
    22f4:	e35a0000 	cmp	sl, #0
    22f8:	0a000004 	beq	2310 <printk_nommu+0x200>
    22fc:	e1a0a006 	mov	sl, r6
    2300:	e5fa3001 	ldrb	r3, [sl, #1]!
    2304:	e3530000 	cmp	r3, #0
    2308:	1afffffc 	bne	2300 <printk_nommu+0x1f0>
    230c:	e066a00a 	rsb	sl, r6, sl
    2310:	e1a0100a 	mov	r1, sl
    2314:	e1a00006 	mov	r0, r6
    2318:	e1a02007 	mov	r2, r7
    231c:	ebfffe63 	bl	1cb0 <print_align>
    2320:	e28d3003 	add	r3, sp, #3
    2324:	e080000a 	add	r0, r0, sl
    2328:	e1a01005 	mov	r1, r5
    232c:	e5f32001 	ldrb	r2, [r3, #1]!
    2330:	e3520000 	cmp	r2, #0
    2334:	e4c12001 	strb	r2, [r1], #1
    2338:	1afffffb 	bne	232c <printk_nommu+0x21c>
    233c:	e0855000 	add	r5, r5, r0
    2340:	eaffff81 	b	214c <printk_nommu+0x3c>
    2344:	e59d3014 	ldr	r3, [sp, #20]
    2348:	e5932000 	ldr	r2, [r3]
    234c:	e2833004 	add	r3, r3, #4
    2350:	e58d3014 	str	r3, [sp, #20]
    2354:	e5c52000 	strb	r2, [r5]
    2358:	eaffff7b 	b	214c <printk_nommu+0x3c>
    235c:	e5c59000 	strb	r9, [r5]
    2360:	e5d43000 	ldrb	r3, [r4]
    2364:	e5c53001 	strb	r3, [r5, #1]
    2368:	e2855002 	add	r5, r5, #2
    236c:	eaffff76 	b	214c <printk_nommu+0x3c>
    2370:	e59d2014 	ldr	r2, [sp, #20]
    2374:	e1a01006 	mov	r1, r6
    2378:	e2823004 	add	r3, r2, #4
    237c:	e5920000 	ldr	r0, [r2]
    2380:	e58d3014 	str	r3, [sp, #20]
    2384:	ebfffe73 	bl	1d58 <itoa.constprop.0>
    2388:	e5d6a000 	ldrb	sl, [r6]
    238c:	e35a0000 	cmp	sl, #0
    2390:	0a000004 	beq	23a8 <printk_nommu+0x298>
    2394:	e1a0a006 	mov	sl, r6
    2398:	e5fa3001 	ldrb	r3, [sl, #1]!
    239c:	e3530000 	cmp	r3, #0
    23a0:	1afffffc 	bne	2398 <printk_nommu+0x288>
    23a4:	e066a00a 	rsb	sl, r6, sl
    23a8:	e1a0100a 	mov	r1, sl
    23ac:	e1a00006 	mov	r0, r6
    23b0:	e1a02007 	mov	r2, r7
    23b4:	ebfffe3d 	bl	1cb0 <print_align>
    23b8:	e28d3003 	add	r3, sp, #3
    23bc:	e080000a 	add	r0, r0, sl
    23c0:	e1a01005 	mov	r1, r5
    23c4:	e5f32001 	ldrb	r2, [r3, #1]!
    23c8:	e3520000 	cmp	r2, #0
    23cc:	e4c12001 	strb	r2, [r1], #1
    23d0:	1afffffb 	bne	23c4 <printk_nommu+0x2b4>
    23d4:	e0855000 	add	r5, r5, r0
    23d8:	eaffff5b 	b	214c <printk_nommu+0x3c>
    23dc:	00003240 	andeq	r3, r0, r0, asr #4

000023e0 <standby_delay>:
    23e0:	e92d000f 	push	{r0, r1, r2, r3}
    23e4:	e3a01011 	mov	r1, #17
    23e8:	e1a03000 	mov	r3, r0

000023ec <standby_delay_loop2>:
    23ec:	e2500001 	subs	r0, r0, #1
    23f0:	8afffffd 	bhi	23ec <standby_delay_loop2>
    23f4:	e1a00003 	mov	r0, r3
    23f8:	e2511001 	subs	r1, r1, #1
    23fc:	8afffffa 	bhi	23ec <standby_delay_loop2>
    2400:	e8bd000f 	pop	{r0, r1, r2, r3}
    2404:	e1a0f00e 	mov	pc, lr

00002408 <standby_delay_cycle>:
    2408:	e2500001 	subs	r0, r0, #1
    240c:	8afffffd 	bhi	2408 <standby_delay_cycle>
    2410:	e1a0f00e 	mov	pc, lr

00002414 <Ldiv0>:
    2414:	e52de008 	str	lr, [sp, #-8]!
    2418:	eb000067 	bl	25bc <__mem_div0>
    241c:	e3a00000 	mov	r0, #0
    2420:	e49df008 	ldr	pc, [sp], #8

00002424 <__aeabi_uidiv>:
    2424:	e2512001 	subs	r2, r1, #1
    2428:	01a0f00e 	moveq	pc, lr
    242c:	3afffff8 	bcc	2414 <Ldiv0>
    2430:	e1500001 	cmp	r0, r1
    2434:	9a00001a 	bls	24a4 <__aeabi_uidiv+0x80>
    2438:	e1110002 	tst	r1, r2
    243c:	0a00001b 	beq	24b0 <__aeabi_uidiv+0x8c>
    2440:	e16f3f11 	clz	r3, r1
    2444:	e16f2f10 	clz	r2, r0
    2448:	e0432002 	sub	r2, r3, r2
    244c:	e3a03001 	mov	r3, #1
    2450:	e1a01211 	lsl	r1, r1, r2
    2454:	e1a03213 	lsl	r3, r3, r2
    2458:	e3a02000 	mov	r2, #0
    245c:	e1500001 	cmp	r0, r1
    2460:	20400001 	subcs	r0, r0, r1
    2464:	21822003 	orrcs	r2, r2, r3
    2468:	e15000a1 	cmp	r0, r1, lsr #1
    246c:	204000a1 	subcs	r0, r0, r1, lsr #1
    2470:	218220a3 	orrcs	r2, r2, r3, lsr #1
    2474:	e1500121 	cmp	r0, r1, lsr #2
    2478:	20400121 	subcs	r0, r0, r1, lsr #2
    247c:	21822123 	orrcs	r2, r2, r3, lsr #2
    2480:	e15001a1 	cmp	r0, r1, lsr #3
    2484:	204001a1 	subcs	r0, r0, r1, lsr #3
    2488:	218221a3 	orrcs	r2, r2, r3, lsr #3
    248c:	e3500000 	cmp	r0, #0
    2490:	11b03223 	lsrsne	r3, r3, #4
    2494:	11a01221 	lsrne	r1, r1, #4
    2498:	1affffef 	bne	245c <__aeabi_uidiv+0x38>
    249c:	e1a00002 	mov	r0, r2
    24a0:	e1a0f00e 	mov	pc, lr
    24a4:	03a00001 	moveq	r0, #1
    24a8:	13a00000 	movne	r0, #0
    24ac:	e1a0f00e 	mov	pc, lr
    24b0:	e16f2f11 	clz	r2, r1
    24b4:	e262201f 	rsb	r2, r2, #31
    24b8:	e1a00230 	lsr	r0, r0, r2
    24bc:	e1a0f00e 	mov	pc, lr

000024c0 <__aeabi_idiv>:
    24c0:	e3510000 	cmp	r1, #0
    24c4:	e020c001 	eor	ip, r0, r1
    24c8:	0affffd1 	beq	2414 <Ldiv0>
    24cc:	42611000 	rsbmi	r1, r1, #0
    24d0:	e2512001 	subs	r2, r1, #1
    24d4:	0a00001f 	beq	2558 <__aeabi_idiv+0x98>
    24d8:	e1b03000 	movs	r3, r0
    24dc:	42603000 	rsbmi	r3, r0, #0
    24e0:	e1530001 	cmp	r3, r1
    24e4:	9a00001e 	bls	2564 <__aeabi_idiv+0xa4>
    24e8:	e1110002 	tst	r1, r2
    24ec:	0a000020 	beq	2574 <__aeabi_idiv+0xb4>
    24f0:	e16f2f11 	clz	r2, r1
    24f4:	e16f0f13 	clz	r0, r3
    24f8:	e0420000 	sub	r0, r2, r0
    24fc:	e3a02001 	mov	r2, #1
    2500:	e1a01011 	lsl	r1, r1, r0
    2504:	e1a02012 	lsl	r2, r2, r0
    2508:	e3a00000 	mov	r0, #0
    250c:	e1530001 	cmp	r3, r1
    2510:	20433001 	subcs	r3, r3, r1
    2514:	21800002 	orrcs	r0, r0, r2
    2518:	e15300a1 	cmp	r3, r1, lsr #1
    251c:	204330a1 	subcs	r3, r3, r1, lsr #1
    2520:	218000a2 	orrcs	r0, r0, r2, lsr #1
    2524:	e1530121 	cmp	r3, r1, lsr #2
    2528:	20433121 	subcs	r3, r3, r1, lsr #2
    252c:	21800122 	orrcs	r0, r0, r2, lsr #2
    2530:	e15301a1 	cmp	r3, r1, lsr #3
    2534:	204331a1 	subcs	r3, r3, r1, lsr #3
    2538:	218001a2 	orrcs	r0, r0, r2, lsr #3
    253c:	e3530000 	cmp	r3, #0
    2540:	11b02222 	lsrsne	r2, r2, #4
    2544:	11a01221 	lsrne	r1, r1, #4
    2548:	1affffef 	bne	250c <__aeabi_idiv+0x4c>
    254c:	e35c0000 	cmp	ip, #0
    2550:	42600000 	rsbmi	r0, r0, #0
    2554:	e1a0f00e 	mov	pc, lr
    2558:	e13c0000 	teq	ip, r0
    255c:	42600000 	rsbmi	r0, r0, #0
    2560:	e1a0f00e 	mov	pc, lr
    2564:	33a00000 	movcc	r0, #0
    2568:	01a00fcc 	asreq	r0, ip, #31
    256c:	03800001 	orreq	r0, r0, #1
    2570:	e1a0f00e 	mov	pc, lr
    2574:	e16f2f11 	clz	r2, r1
    2578:	e262201f 	rsb	r2, r2, #31
    257c:	e35c0000 	cmp	ip, #0
    2580:	e1a00233 	lsr	r0, r3, r2
    2584:	42600000 	rsbmi	r0, r0, #0
    2588:	e1a0f00e 	mov	pc, lr

0000258c <__aeabi_uidivmod>:
    258c:	e92d5003 	push	{r0, r1, ip, lr}
    2590:	ebffffa3 	bl	2424 <__aeabi_uidiv>
    2594:	e8bd5006 	pop	{r1, r2, ip, lr}
    2598:	e0030290 	mul	r3, r0, r2
    259c:	e0411003 	sub	r1, r1, r3
    25a0:	e1a0f00e 	mov	pc, lr

000025a4 <__aeabi_idivmod>:
    25a4:	e92d5003 	push	{r0, r1, ip, lr}
    25a8:	ebffffc4 	bl	24c0 <__aeabi_idiv>
    25ac:	e8bd5006 	pop	{r1, r2, ip, lr}
    25b0:	e0030290 	mul	r3, r0, r2
    25b4:	e0411003 	sub	r1, r1, r3
    25b8:	e1a0f00e 	mov	pc, lr

000025bc <__mem_div0>:
    25bc:	e3030110 	movw	r0, #12560	; 0x3110
    25c0:	e3400000 	movt	r0, #0
    25c4:	eafffe1d 	b	1e40 <printk>

000025c8 <raw_lib_udiv>:
    25c8:	e3510000 	cmp	r1, #0
    25cc:	01a02001 	moveq	r2, r1
    25d0:	0a00000d 	beq	260c <raw_lib_udiv+0x44>
    25d4:	e3a03000 	mov	r3, #0
    25d8:	ba000002 	blt	25e8 <raw_lib_udiv+0x20>
    25dc:	e1b01081 	lsls	r1, r1, #1
    25e0:	e2833001 	add	r3, r3, #1
    25e4:	5afffffc 	bpl	25dc <raw_lib_udiv+0x14>
    25e8:	e3a02000 	mov	r2, #0
    25ec:	e1a0c082 	lsl	ip, r2, #1
    25f0:	e1500001 	cmp	r0, r1
    25f4:	20610000 	rsbcs	r0, r1, r0
    25f8:	31a02082 	lslcc	r2, r2, #1
    25fc:	238c2001 	orrcs	r2, ip, #1
    2600:	e1a010a1 	lsr	r1, r1, #1
    2604:	e2533001 	subs	r3, r3, #1
    2608:	5afffff7 	bpl	25ec <raw_lib_udiv+0x24>
    260c:	e1a00002 	mov	r0, r2
    2610:	e12fff1e 	bx	lr

00002614 <mem_int_init>:
    2614:	e59f0080 	ldr	r0, [pc, #128]	; 269c <mem_int_init+0x88>
    2618:	e3013184 	movw	r3, #4484	; 0x1184
    261c:	e3a02d47 	mov	r2, #4544	; 0x11c0
    2620:	e92d4010 	push	{r4, lr}
    2624:	e3a0ca02 	mov	ip, #8192	; 0x2000
    2628:	e3a04a01 	mov	r4, #4096	; 0x1000
    262c:	e34f31c8 	movt	r3, #61896	; 0xf1c8
    2630:	e3e01000 	mvn	r1, #0
    2634:	e34f21c8 	movt	r2, #61896	; 0xf1c8
    2638:	e34f41c8 	movt	r4, #61896	; 0xf1c8
    263c:	e34fc1c8 	movt	ip, #61896	; 0xf1c8
    2640:	e8801010 	stm	r0, {r4, ip}
    2644:	e4831004 	str	r1, [r3], #4
    2648:	e1530002 	cmp	r3, r2
    264c:	1afffffc 	bne	2644 <mem_int_init+0x30>
    2650:	e3013284 	movw	r3, #4740	; 0x1284
    2654:	e3a02d4b 	mov	r2, #4800	; 0x12c0
    2658:	e34f31c8 	movt	r3, #61896	; 0xf1c8
    265c:	e3e01000 	mvn	r1, #0
    2660:	e34f21c8 	movt	r2, #61896	; 0xf1c8
    2664:	e4831004 	str	r1, [r3], #4
    2668:	e1530002 	cmp	r3, r2
    266c:	1afffffc 	bne	2664 <mem_int_init+0x50>
    2670:	e3a03a02 	mov	r3, #8192	; 0x2000
    2674:	e30023ff 	movw	r2, #1023	; 0x3ff
    2678:	e34f31c8 	movt	r3, #61896	; 0xf1c8
    267c:	e593100c 	ldr	r1, [r3, #12]
    2680:	e1510002 	cmp	r1, r2
    2684:	0a000002 	beq	2694 <mem_int_init+0x80>
    2688:	e5831010 	str	r1, [r3, #16]
    268c:	e59f000c 	ldr	r0, [pc, #12]	; 26a0 <mem_int_init+0x8c>
    2690:	ebfffdea 	bl	1e40 <printk>
    2694:	e3a00000 	mov	r0, #0
    2698:	e8bd8010 	pop	{r4, pc}
    269c:	00003340 	andeq	r3, r0, r0, asr #6
    26a0:	0000312c 	andeq	r3, r0, ip, lsr #2

000026a4 <mem_int_exit>:
    26a4:	e3a02000 	mov	r2, #0
    26a8:	e24dd008 	sub	sp, sp, #8
    26ac:	e1a03002 	mov	r3, r2
    26b0:	e58d2004 	str	r2, [sp, #4]
    26b4:	e59f2038 	ldr	r2, [pc, #56]	; 26f4 <mem_int_exit+0x50>
    26b8:	e5922000 	ldr	r2, [r2]
    26bc:	e282cc01 	add	ip, r2, #256	; 0x100
    26c0:	e2822d0a 	add	r2, r2, #640	; 0x280
    26c4:	e79c1003 	ldr	r1, [ip, r3]
    26c8:	e58d1004 	str	r1, [sp, #4]
    26cc:	e7921003 	ldr	r1, [r2, r3]
    26d0:	e59d0004 	ldr	r0, [sp, #4]
    26d4:	e1c11000 	bic	r1, r1, r0
    26d8:	e7821003 	str	r1, [r2, r3]
    26dc:	e2833004 	add	r3, r3, #4
    26e0:	e3530040 	cmp	r3, #64	; 0x40
    26e4:	1afffff6 	bne	26c4 <mem_int_exit+0x20>
    26e8:	e3a00000 	mov	r0, #0
    26ec:	e28dd008 	add	sp, sp, #8
    26f0:	e12fff1e 	bx	lr
    26f4:	00003340 	andeq	r3, r0, r0, asr #6

000026f8 <mem_enable_int>:
    26f8:	e59f3050 	ldr	r3, [pc, #80]	; 2750 <mem_enable_int+0x58>
    26fc:	e3a01a01 	mov	r1, #4096	; 0x1000
    2700:	e3a02a02 	mov	r2, #8192	; 0x2000
    2704:	e3500000 	cmp	r0, #0
    2708:	e34f11c8 	movt	r1, #61896	; 0xf1c8
    270c:	e34f21c8 	movt	r2, #61896	; 0xf1c8
    2710:	e8830006 	stm	r3, {r1, r2}
    2714:	0a00000b 	beq	2748 <mem_enable_int+0x50>
    2718:	e1a032a0 	lsr	r3, r0, #5
    271c:	e200201f 	and	r2, r0, #31
    2720:	e3a0c001 	mov	ip, #1
    2724:	e2833040 	add	r3, r3, #64	; 0x40
    2728:	e3a00000 	mov	r0, #0
    272c:	e1a03103 	lsl	r3, r3, #2
    2730:	e24336e3 	sub	r3, r3, #238026752	; 0xe300000
    2734:	e2433a7f 	sub	r3, r3, #520192	; 0x7f000
    2738:	e5931000 	ldr	r1, [r3]
    273c:	e181221c 	orr	r2, r1, ip, lsl r2
    2740:	e5832000 	str	r2, [r3]
    2744:	e12fff1e 	bx	lr
    2748:	e3e00000 	mvn	r0, #0
    274c:	e12fff1e 	bx	lr
    2750:	00003340 	andeq	r3, r0, r0, asr #6

00002754 <mem_query_int>:
    2754:	e59f3050 	ldr	r3, [pc, #80]	; 27ac <mem_query_int+0x58>
    2758:	e3a01a01 	mov	r1, #4096	; 0x1000
    275c:	e3a02a02 	mov	r2, #8192	; 0x2000
    2760:	e3500000 	cmp	r0, #0
    2764:	e34f11c8 	movt	r1, #61896	; 0xf1c8
    2768:	e34f21c8 	movt	r2, #61896	; 0xf1c8
    276c:	e8830006 	stm	r3, {r1, r2}
    2770:	0a00000b 	beq	27a4 <mem_query_int+0x50>
    2774:	e1a032a0 	lsr	r3, r0, #5
    2778:	e3a02001 	mov	r2, #1
    277c:	e200001f 	and	r0, r0, #31
    2780:	e2833080 	add	r3, r3, #128	; 0x80
    2784:	e1a03103 	lsl	r3, r3, #2
    2788:	e24336e3 	sub	r3, r3, #238026752	; 0xe300000
    278c:	e2433a7f 	sub	r3, r3, #520192	; 0x7f000
    2790:	e5933000 	ldr	r3, [r3]
    2794:	e0132012 	ands	r2, r3, r2, lsl r0
    2798:	03e00000 	mvneq	r0, #0
    279c:	13a00000 	movne	r0, #0
    27a0:	e12fff1e 	bx	lr
    27a4:	e3e00000 	mvn	r0, #0
    27a8:	e12fff1e 	bx	lr
    27ac:	00003340 	andeq	r3, r0, r0, asr #6

000027b0 <mem_gpio_save>:
    27b0:	e3a03b02 	mov	r3, #2048	; 0x800
    27b4:	e3a02eb2 	mov	r2, #2848	; 0xb20
    27b8:	e2400004 	sub	r0, r0, #4
    27bc:	e34f31c2 	movt	r3, #61890	; 0xf1c2
    27c0:	e34f21c2 	movt	r2, #61890	; 0xf1c2
    27c4:	e4931004 	ldr	r1, [r3], #4
    27c8:	e1530002 	cmp	r3, r2
    27cc:	e5a01004 	str	r1, [r0, #4]!
    27d0:	1afffffb 	bne	27c4 <mem_gpio_save+0x14>
    27d4:	e3a00000 	mov	r0, #0
    27d8:	e12fff1e 	bx	lr

000027dc <mem_gpio_restore>:
    27dc:	e3a03b02 	mov	r3, #2048	; 0x800
    27e0:	e3a02eb2 	mov	r2, #2848	; 0xb20
    27e4:	e2400004 	sub	r0, r0, #4
    27e8:	e34f31c2 	movt	r3, #61890	; 0xf1c2
    27ec:	e34f21c2 	movt	r2, #61890	; 0xf1c2
    27f0:	e5b01004 	ldr	r1, [r0, #4]!
    27f4:	e4831004 	str	r1, [r3], #4
    27f8:	e1530002 	cmp	r3, r2
    27fc:	1afffffb 	bne	27f0 <mem_gpio_restore+0x14>
    2800:	e3a00000 	mov	r0, #0
    2804:	e12fff1e 	bx	lr

00002808 <config_gpio_clk>:
    2808:	e59f303c 	ldr	r3, [pc, #60]	; 284c <config_gpio_clk+0x44>
    280c:	e5932000 	ldr	r2, [r3]
    2810:	e3520000 	cmp	r2, #0
    2814:	112fff1e 	bxne	lr
    2818:	e3a01068 	mov	r1, #104	; 0x68
    281c:	e3500000 	cmp	r0, #0
    2820:	e1a02001 	mov	r2, r1
    2824:	e34011c2 	movt	r1, #450	; 0x1c2
    2828:	e34f21c2 	movt	r2, #61890	; 0xf1c2
    282c:	01a00001 	moveq	r0, r1
    2830:	11a00002 	movne	r0, r2
    2834:	e3a01001 	mov	r1, #1
    2838:	e5902000 	ldr	r2, [r0]
    283c:	e5831000 	str	r1, [r3]
    2840:	e3823020 	orr	r3, r2, #32
    2844:	e5803000 	str	r3, [r0]
    2848:	e12fff1e 	bx	lr
    284c:	00003348 	andeq	r3, r0, r8, asr #6

00002850 <mem_tmr_save>:
    2850:	e3a03000 	mov	r3, #0
    2854:	e1a02000 	mov	r2, r0
    2858:	e34f31c2 	movt	r3, #61890	; 0xf1c2
    285c:	e303034c 	movw	r0, #13132	; 0x334c
    2860:	e5931c00 	ldr	r1, [r3, #3072]	; 0xc00
    2864:	e3a0cb03 	mov	ip, #3072	; 0xc00
    2868:	e3400000 	movt	r0, #0
    286c:	e34fc1c2 	movt	ip, #61890	; 0xf1c2
    2870:	e580c000 	str	ip, [r0]
    2874:	e3a00000 	mov	r0, #0
    2878:	e5821000 	str	r1, [r2]
    287c:	e5931c10 	ldr	r1, [r3, #3088]	; 0xc10
    2880:	e5821010 	str	r1, [r2, #16]
    2884:	e5931c14 	ldr	r1, [r3, #3092]	; 0xc14
    2888:	e5821014 	str	r1, [r2, #20]
    288c:	e5931c18 	ldr	r1, [r3, #3096]	; 0xc18
    2890:	e5821018 	str	r1, [r2, #24]
    2894:	e5931c20 	ldr	r1, [r3, #3104]	; 0xc20
    2898:	e5821020 	str	r1, [r2, #32]
    289c:	e5931c24 	ldr	r1, [r3, #3108]	; 0xc24
    28a0:	e5821024 	str	r1, [r2, #36]	; 0x24
    28a4:	e5933c28 	ldr	r3, [r3, #3112]	; 0xc28
    28a8:	e5823028 	str	r3, [r2, #40]	; 0x28
    28ac:	e12fff1e 	bx	lr

000028b0 <mem_tmr_restore>:
    28b0:	e303334c 	movw	r3, #13132	; 0x334c
    28b4:	e5901014 	ldr	r1, [r0, #20]
    28b8:	e3403000 	movt	r3, #0
    28bc:	e1a02000 	mov	r2, r0
    28c0:	e5933000 	ldr	r3, [r3]
    28c4:	e3a00000 	mov	r0, #0
    28c8:	e5831014 	str	r1, [r3, #20]
    28cc:	e5921018 	ldr	r1, [r2, #24]
    28d0:	e5831018 	str	r1, [r3, #24]
    28d4:	e5921010 	ldr	r1, [r2, #16]
    28d8:	e5831010 	str	r1, [r3, #16]
    28dc:	e5921024 	ldr	r1, [r2, #36]	; 0x24
    28e0:	e5831024 	str	r1, [r3, #36]	; 0x24
    28e4:	e5921028 	ldr	r1, [r2, #40]	; 0x28
    28e8:	e5831028 	str	r1, [r3, #40]	; 0x28
    28ec:	e5921020 	ldr	r1, [r2, #32]
    28f0:	e5831020 	str	r1, [r3, #32]
    28f4:	e5922000 	ldr	r2, [r2]
    28f8:	e5832000 	str	r2, [r3]
    28fc:	e12fff1e 	bx	lr

00002900 <mem_tmr_init>:
    2900:	e3a02000 	mov	r2, #0
    2904:	e303334c 	movw	r3, #13132	; 0x334c
    2908:	e34f21c2 	movt	r2, #61890	; 0xf1c2
    290c:	e3a01b03 	mov	r1, #3072	; 0xc00
    2910:	e592ccb4 	ldr	ip, [r2, #3252]	; 0xcb4
    2914:	e3403000 	movt	r3, #0
    2918:	e34f11c2 	movt	r1, #61890	; 0xf1c2
    291c:	e3a00000 	mov	r0, #0
    2920:	e8831002 	stm	r3, {r1, ip}
    2924:	e5921cb8 	ldr	r1, [r2, #3256]	; 0xcb8
    2928:	e5831008 	str	r1, [r3, #8]
    292c:	e5922ca0 	ldr	r2, [r2, #3232]	; 0xca0
    2930:	e583200c 	str	r2, [r3, #12]
    2934:	e12fff1e 	bx	lr

00002938 <mem_tmr_exit>:
    2938:	e303334c 	movw	r3, #13132	; 0x334c
    293c:	e3a00000 	mov	r0, #0
    2940:	e3403000 	movt	r3, #0
    2944:	e8931004 	ldm	r3, {r2, ip}
    2948:	e5931008 	ldr	r1, [r3, #8]
    294c:	e593300c 	ldr	r3, [r3, #12]
    2950:	e582c0b4 	str	ip, [r2, #180]	; 0xb4
    2954:	e58210b8 	str	r1, [r2, #184]	; 0xb8
    2958:	e58230a0 	str	r3, [r2, #160]	; 0xa0
    295c:	e12fff1e 	bx	lr

00002960 <mem_tmr_enable_watchdog>:
    2960:	e303334c 	movw	r3, #13132	; 0x334c
    2964:	e3403000 	movt	r3, #0
    2968:	e5933000 	ldr	r3, [r3]
    296c:	e59320b4 	ldr	r2, [r3, #180]	; 0xb4
    2970:	e3c22003 	bic	r2, r2, #3
    2974:	e58320b4 	str	r2, [r3, #180]	; 0xb4
    2978:	e59320b4 	ldr	r2, [r3, #180]	; 0xb4
    297c:	e3822001 	orr	r2, r2, #1
    2980:	e58320b4 	str	r2, [r3, #180]	; 0xb4
    2984:	e3a020b0 	mov	r2, #176	; 0xb0
    2988:	e58320b8 	str	r2, [r3, #184]	; 0xb8
    298c:	e59320a0 	ldr	r2, [r3, #160]	; 0xa0
    2990:	e3822001 	orr	r2, r2, #1
    2994:	e58320a0 	str	r2, [r3, #160]	; 0xa0
    2998:	e59320b8 	ldr	r2, [r3, #184]	; 0xb8
    299c:	e3822001 	orr	r2, r2, #1
    29a0:	e58320b8 	str	r2, [r3, #184]	; 0xb8
    29a4:	e12fff1e 	bx	lr

000029a8 <mem_tmr_disable_watchdog>:
    29a8:	e303334c 	movw	r3, #13132	; 0x334c
    29ac:	e3403000 	movt	r3, #0
    29b0:	e5933000 	ldr	r3, [r3]
    29b4:	e59320b4 	ldr	r2, [r3, #180]	; 0xb4
    29b8:	e3c22003 	bic	r2, r2, #3
    29bc:	e58320b4 	str	r2, [r3, #180]	; 0xb4
    29c0:	e59320b4 	ldr	r2, [r3, #180]	; 0xb4
    29c4:	e3822002 	orr	r2, r2, #2
    29c8:	e58320b4 	str	r2, [r3, #180]	; 0xb4
    29cc:	e59320a0 	ldr	r2, [r3, #160]	; 0xa0
    29d0:	e3c22001 	bic	r2, r2, #1
    29d4:	e58320a0 	str	r2, [r3, #160]	; 0xa0
    29d8:	e59320b8 	ldr	r2, [r3, #184]	; 0xb8
    29dc:	e3c22001 	bic	r2, r2, #1
    29e0:	e58320b8 	str	r2, [r3, #184]	; 0xb8
    29e4:	e12fff1e 	bx	lr

000029e8 <mem_tmr_set>:
    29e8:	e303334c 	movw	r3, #13132	; 0x334c
    29ec:	e3a01001 	mov	r1, #1
    29f0:	e3403000 	movt	r3, #0
    29f4:	e1a0c500 	lsl	ip, r0, #10
    29f8:	e5933000 	ldr	r3, [r3]
    29fc:	e3a02000 	mov	r2, #0
    2a00:	e1a00002 	mov	r0, r2
    2a04:	e5831004 	str	r1, [r3, #4]
    2a08:	e5831000 	str	r1, [r3]
    2a0c:	e5832010 	str	r2, [r3, #16]
    2a10:	e3a020d0 	mov	r2, #208	; 0xd0
    2a14:	e583c014 	str	ip, [r3, #20]
    2a18:	e5832010 	str	r2, [r3, #16]
    2a1c:	e5932010 	ldr	r2, [r3, #16]
    2a20:	e3822002 	orr	r2, r2, #2
    2a24:	e5832010 	str	r2, [r3, #16]
    2a28:	e5932010 	ldr	r2, [r3, #16]
    2a2c:	e1822001 	orr	r2, r2, r1
    2a30:	e5832010 	str	r2, [r3, #16]
    2a34:	e12fff1e 	bx	lr

00002a38 <mem_tmstmp_save>:
    2a38:	e3a03000 	mov	r3, #0
    2a3c:	e1a02000 	mov	r2, r0
    2a40:	e34f3172 	movt	r3, #61810	; 0xf172
    2a44:	e303035c 	movw	r0, #13148	; 0x335c
    2a48:	e5931000 	ldr	r1, [r3]
    2a4c:	e3400000 	movt	r0, #0
    2a50:	e5803000 	str	r3, [r0]
    2a54:	e3a00000 	mov	r0, #0
    2a58:	e5821000 	str	r1, [r2]
    2a5c:	e5933020 	ldr	r3, [r3, #32]
    2a60:	e5823020 	str	r3, [r2, #32]
    2a64:	e12fff1e 	bx	lr

00002a68 <mem_tmstmp_restore>:
    2a68:	e303335c 	movw	r3, #13148	; 0x335c
    2a6c:	e5901000 	ldr	r1, [r0]
    2a70:	e3403000 	movt	r3, #0
    2a74:	e1a02000 	mov	r2, r0
    2a78:	e5933000 	ldr	r3, [r3]
    2a7c:	e3a00000 	mov	r0, #0
    2a80:	e5831000 	str	r1, [r3]
    2a84:	e5922020 	ldr	r2, [r2, #32]
    2a88:	e5832020 	str	r2, [r3, #32]
    2a8c:	e12fff1e 	bx	lr

00002a90 <hwspinlock_init>:
    2a90:	e3a03000 	mov	r3, #0
    2a94:	e3500001 	cmp	r0, #1
    2a98:	034f31c2 	movteq	r3, #61890	; 0xf1c2
    2a9c:	134031c2 	movtne	r3, #450	; 0x1c2
    2aa0:	e59322c4 	ldr	r2, [r3, #708]	; 0x2c4
    2aa4:	e3a00000 	mov	r0, #0
    2aa8:	e3822501 	orr	r2, r2, #4194304	; 0x400000
    2aac:	e58322c4 	str	r2, [r3, #708]	; 0x2c4
    2ab0:	e5932064 	ldr	r2, [r3, #100]	; 0x64
    2ab4:	e3822501 	orr	r2, r2, #4194304	; 0x400000
    2ab8:	e5832064 	str	r2, [r3, #100]	; 0x64
    2abc:	e12fff1e 	bx	lr

00002ac0 <hwspin_lock_timeout>:
    2ac0:	e92d4008 	push	{r3, lr}
    2ac4:	e10fc000 	mrs	ip, CPSR
    2ac8:	f10c0080 	cpsid	i
    2acc:	e3062040 	movw	r2, #24640	; 0x6040
    2ad0:	e3432c70 	movt	r2, #15472	; 0x3c70
    2ad4:	e59f3058 	ldr	r3, [pc, #88]	; 2b34 <hwspin_lock_timeout+0x74>
    2ad8:	e0802002 	add	r2, r0, r2
    2adc:	e1a02102 	lsl	r2, r2, #2
    2ae0:	e583c000 	str	ip, [r3]
    2ae4:	e5923000 	ldr	r3, [r2]
    2ae8:	e3530001 	cmp	r3, #1
    2aec:	1a00000e 	bne	2b2c <hwspin_lock_timeout+0x6c>
    2af0:	e1b01501 	lsls	r1, r1, #10
    2af4:	1a000002 	bne	2b04 <hwspin_lock_timeout+0x44>
    2af8:	ea000006 	b	2b18 <hwspin_lock_timeout+0x58>
    2afc:	e2511001 	subs	r1, r1, #1
    2b00:	0a000004 	beq	2b18 <hwspin_lock_timeout+0x58>
    2b04:	e5923000 	ldr	r3, [r2]
    2b08:	e3530001 	cmp	r3, #1
    2b0c:	0afffffa 	beq	2afc <hwspin_lock_timeout+0x3c>
    2b10:	e3a00000 	mov	r0, #0
    2b14:	e8bd8008 	pop	{r3, pc}
    2b18:	e121f00c 	msr	CPSR_c, ip
    2b1c:	e59f0014 	ldr	r0, [pc, #20]	; 2b38 <hwspin_lock_timeout+0x78>
    2b20:	ebfffcc6 	bl	1e40 <printk>
    2b24:	e3e00000 	mvn	r0, #0
    2b28:	e8bd8008 	pop	{r3, pc}
    2b2c:	e3a00000 	mov	r0, #0
    2b30:	e8bd8008 	pop	{r3, pc}
    2b34:	00003360 	andeq	r3, r0, r0, ror #6
    2b38:	00003148 	andeq	r3, r0, r8, asr #2

00002b3c <hwspin_unlock>:
    2b3c:	e3063040 	movw	r3, #24640	; 0x6040
    2b40:	e3032360 	movw	r2, #13152	; 0x3360
    2b44:	e3433c70 	movt	r3, #15472	; 0x3c70
    2b48:	e3a01000 	mov	r1, #0
    2b4c:	e0803003 	add	r3, r0, r3
    2b50:	e3402000 	movt	r2, #0
    2b54:	e1a03103 	lsl	r3, r3, #2
    2b58:	e5922000 	ldr	r2, [r2]
    2b5c:	e5831000 	str	r1, [r3]
    2b60:	e121f002 	msr	CPSR_c, r2
    2b64:	e1a00001 	mov	r0, r1
    2b68:	e12fff1e 	bx	lr

00002b6c <hwspin_lock_timeout_nommu>:
    2b6c:	e10fc000 	mrs	ip, CPSR
    2b70:	f10c0080 	cpsid	i
    2b74:	e3062040 	movw	r2, #24640	; 0x6040
    2b78:	e59f3054 	ldr	r3, [pc, #84]	; 2bd4 <hwspin_lock_timeout_nommu+0x68>
    2b7c:	e3402070 	movt	r2, #112	; 0x70
    2b80:	e0802002 	add	r2, r0, r2
    2b84:	e1a02102 	lsl	r2, r2, #2
    2b88:	e583c000 	str	ip, [r3]
    2b8c:	e5923000 	ldr	r3, [r2]
    2b90:	e3530001 	cmp	r3, #1
    2b94:	1a00000c 	bne	2bcc <hwspin_lock_timeout_nommu+0x60>
    2b98:	e1b01501 	lsls	r1, r1, #10
    2b9c:	1a000002 	bne	2bac <hwspin_lock_timeout_nommu+0x40>
    2ba0:	ea000006 	b	2bc0 <hwspin_lock_timeout_nommu+0x54>
    2ba4:	e2511001 	subs	r1, r1, #1
    2ba8:	0a000004 	beq	2bc0 <hwspin_lock_timeout_nommu+0x54>
    2bac:	e5923000 	ldr	r3, [r2]
    2bb0:	e3530001 	cmp	r3, #1
    2bb4:	0afffffa 	beq	2ba4 <hwspin_lock_timeout_nommu+0x38>
    2bb8:	e3a00000 	mov	r0, #0
    2bbc:	e12fff1e 	bx	lr
    2bc0:	e121f00c 	msr	CPSR_c, ip
    2bc4:	e3e00000 	mvn	r0, #0
    2bc8:	e12fff1e 	bx	lr
    2bcc:	e3a00000 	mov	r0, #0
    2bd0:	e12fff1e 	bx	lr
    2bd4:	00003360 	andeq	r3, r0, r0, ror #6

00002bd8 <hwspin_unlock_nommu>:
    2bd8:	e3063040 	movw	r3, #24640	; 0x6040
    2bdc:	e3032360 	movw	r2, #13152	; 0x3360
    2be0:	e3403070 	movt	r3, #112	; 0x70
    2be4:	e3a01000 	mov	r1, #0
    2be8:	e0803003 	add	r3, r0, r3
    2bec:	e3402000 	movt	r2, #0
    2bf0:	e1a03103 	lsl	r3, r3, #2
    2bf4:	e5922000 	ldr	r2, [r2]
    2bf8:	e5831000 	str	r1, [r3]
    2bfc:	e121f002 	msr	CPSR_c, r2
    2c00:	e1a00001 	mov	r0, r1
    2c04:	e12fff1e 	bx	lr

00002c08 <mem_clk_init>:
    2c08:	e3500001 	cmp	r0, #1
    2c0c:	e3a03000 	mov	r3, #0
    2c10:	059f201c 	ldreq	r2, [pc, #28]	; 2c34 <mem_clk_init+0x2c>
    2c14:	034f31c2 	movteq	r3, #61890	; 0xf1c2
    2c18:	159f2014 	ldrne	r2, [pc, #20]	; 2c34 <mem_clk_init+0x2c>
    2c1c:	134031c2 	movtne	r3, #450	; 0x1c2
    2c20:	01a00003 	moveq	r0, r3
    2c24:	11a00003 	movne	r0, r3
    2c28:	05823000 	streq	r3, [r2]
    2c2c:	15823000 	strne	r3, [r2]
    2c30:	e12fff1e 	bx	lr
    2c34:	00003364 	andeq	r3, r0, r4, ror #6

00002c38 <mem_get_ba>:
    2c38:	e3033364 	movw	r3, #13156	; 0x3364
    2c3c:	e3403000 	movt	r3, #0
    2c40:	e5930000 	ldr	r0, [r3]
    2c44:	e12fff1e 	bx	lr

00002c48 <mem_clk_save>:
    2c48:	e3a03000 	mov	r3, #0
    2c4c:	e1a02000 	mov	r2, r0
    2c50:	e34f31c2 	movt	r3, #61890	; 0xf1c2
    2c54:	e3030364 	movw	r0, #13156	; 0x3364
    2c58:	e5931050 	ldr	r1, [r3, #80]	; 0x50
    2c5c:	e3400000 	movt	r0, #0
    2c60:	e5803000 	str	r3, [r0]
    2c64:	e3a00000 	mov	r0, #0
    2c68:	e5823000 	str	r3, [r2]
    2c6c:	e5821004 	str	r1, [r2, #4]
    2c70:	e5931058 	ldr	r1, [r3, #88]	; 0x58
    2c74:	e5821008 	str	r1, [r2, #8]
    2c78:	e5933054 	ldr	r3, [r3, #84]	; 0x54
    2c7c:	e582300c 	str	r3, [r2, #12]
    2c80:	e12fff1e 	bx	lr

00002c84 <mem_clk_restore>:
    2c84:	e5903000 	ldr	r3, [r0]
    2c88:	e3031364 	movw	r1, #13156	; 0x3364
    2c8c:	e590c004 	ldr	ip, [r0, #4]
    2c90:	e1a02000 	mov	r2, r0
    2c94:	e3401000 	movt	r1, #0
    2c98:	e3a00000 	mov	r0, #0
    2c9c:	e5813000 	str	r3, [r1]
    2ca0:	e583c050 	str	ip, [r3, #80]	; 0x50
    2ca4:	e5921008 	ldr	r1, [r2, #8]
    2ca8:	e5831058 	str	r1, [r3, #88]	; 0x58
    2cac:	e592200c 	ldr	r2, [r2, #12]
    2cb0:	e5832054 	str	r2, [r3, #84]	; 0x54
    2cb4:	e12fff1e 	bx	lr

00002cb8 <mem_clk_setdiv>:
    2cb8:	e92d4038 	push	{r3, r4, r5, lr}
    2cbc:	e2504000 	subs	r4, r0, #0
    2cc0:	0a000015 	beq	2d1c <mem_clk_setdiv+0x64>
    2cc4:	e59f5058 	ldr	r5, [pc, #88]	; 2d24 <mem_clk_setdiv+0x6c>
    2cc8:	e3a03000 	mov	r3, #0
    2ccc:	e34031c2 	movt	r3, #450	; 0x1c2
    2cd0:	e5941000 	ldr	r1, [r4]
    2cd4:	e3a00005 	mov	r0, #5
    2cd8:	e5853000 	str	r3, [r5]
    2cdc:	e5932050 	ldr	r2, [r3, #80]	; 0x50
    2ce0:	e7c12011 	bfi	r2, r1, #0, #2
    2ce4:	e5852004 	str	r2, [r5, #4]
    2ce8:	e5832050 	str	r2, [r3, #80]	; 0x50
    2cec:	e5942004 	ldr	r2, [r4, #4]
    2cf0:	e3c22a03 	bic	r2, r2, #12288	; 0x3000
    2cf4:	e3822a01 	orr	r2, r2, #4096	; 0x1000
    2cf8:	e5832054 	str	r2, [r3, #84]	; 0x54
    2cfc:	ebfff6ad 	bl	7b8 <delay_us>
    2d00:	e5953000 	ldr	r3, [r5]
    2d04:	e3a00005 	mov	r0, #5
    2d08:	e5942004 	ldr	r2, [r4, #4]
    2d0c:	e5832054 	str	r2, [r3, #84]	; 0x54
    2d10:	ebfff6a8 	bl	7b8 <delay_us>
    2d14:	e3a00000 	mov	r0, #0
    2d18:	e8bd8038 	pop	{r3, r4, r5, pc}
    2d1c:	e3e00000 	mvn	r0, #0
    2d20:	e8bd8038 	pop	{r3, r4, r5, pc}
    2d24:	00003364 	andeq	r3, r0, r4, ror #6

00002d28 <mem_clk_getdiv>:
    2d28:	e2502000 	subs	r2, r0, #0
    2d2c:	e52d4004 	push	{r4}		; (str r4, [sp, #-4]!)
    2d30:	03e00000 	mvneq	r0, #0
    2d34:	0a00000a 	beq	2d64 <mem_clk_getdiv+0x3c>
    2d38:	e59f102c 	ldr	r1, [pc, #44]	; 2d6c <mem_clk_getdiv+0x44>
    2d3c:	e3a03000 	mov	r3, #0
    2d40:	e34f31c2 	movt	r3, #61890	; 0xf1c2
    2d44:	e3a00000 	mov	r0, #0
    2d48:	e5813000 	str	r3, [r1]
    2d4c:	e593c050 	ldr	ip, [r3, #80]	; 0x50
    2d50:	e20c4003 	and	r4, ip, #3
    2d54:	e581c004 	str	ip, [r1, #4]
    2d58:	e5824000 	str	r4, [r2]
    2d5c:	e5933054 	ldr	r3, [r3, #84]	; 0x54
    2d60:	e5823004 	str	r3, [r2, #4]
    2d64:	e8bd0010 	pop	{r4}
    2d68:	e12fff1e 	bx	lr
    2d6c:	00003364 	andeq	r3, r0, r4, ror #6

00002d70 <mem_clk_set_pll_factor>:
    2d70:	e3033364 	movw	r3, #13156	; 0x3364
    2d74:	e3a02000 	mov	r2, #0
    2d78:	e3403000 	movt	r3, #0
    2d7c:	e34021c2 	movt	r2, #450	; 0x1c2
    2d80:	e1a01000 	mov	r1, r0
    2d84:	e52d4004 	push	{r4}		; (str r4, [sp, #-4]!)
    2d88:	e5832000 	str	r2, [r3]
    2d8c:	e3a00000 	mov	r0, #0
    2d90:	e5d14003 	ldrb	r4, [r1, #3]
    2d94:	e592c000 	ldr	ip, [r2]
    2d98:	e7d0c814 	bfi	ip, r4, #16, #1
    2d9c:	e583c008 	str	ip, [r3, #8]
    2da0:	e5d14002 	ldrb	r4, [r1, #2]
    2da4:	e7c1c014 	bfi	ip, r4, #0, #2
    2da8:	e583c008 	str	ip, [r3, #8]
    2dac:	e5d11000 	ldrb	r1, [r1]
    2db0:	e5c31009 	strb	r1, [r3, #9]
    2db4:	e5933008 	ldr	r3, [r3, #8]
    2db8:	e5823000 	str	r3, [r2]
    2dbc:	e8bd0010 	pop	{r4}
    2dc0:	e12fff1e 	bx	lr

00002dc4 <mem_clk_get_pll_factor>:
    2dc4:	e3033364 	movw	r3, #13156	; 0x3364
    2dc8:	e3a02000 	mov	r2, #0
    2dcc:	e3403000 	movt	r3, #0
    2dd0:	e34f21c2 	movt	r2, #61890	; 0xf1c2
    2dd4:	e92d0030 	push	{r4, r5}
    2dd8:	e1a01000 	mov	r1, r0
    2ddc:	e5832000 	str	r2, [r3]
    2de0:	e3a00000 	mov	r0, #0
    2de4:	e5922000 	ldr	r2, [r2]
    2de8:	e7e75452 	ubfx	r5, r2, #8, #8
    2dec:	e7e14052 	ubfx	r4, r2, #0, #2
    2df0:	e7e0c852 	ubfx	ip, r2, #16, #1
    2df4:	e5832008 	str	r2, [r3, #8]
    2df8:	e5c15000 	strb	r5, [r1]
    2dfc:	e5c14002 	strb	r4, [r1, #2]
    2e00:	e5c1c003 	strb	ip, [r1, #3]
    2e04:	e8bd0030 	pop	{r4, r5}
    2e08:	e12fff1e 	bx	lr

00002e0c <mem_clk_set_misc>:
    2e0c:	e1a02000 	mov	r2, r0
    2e10:	e5900000 	ldr	r0, [r0]
    2e14:	e3031364 	movw	r1, #13156	; 0x3364
    2e18:	e3a03000 	mov	r3, #0
    2e1c:	e34031c2 	movt	r3, #450	; 0x1c2
    2e20:	e3401000 	movt	r1, #0
    2e24:	e5813000 	str	r3, [r1]
    2e28:	e5830220 	str	r0, [r3, #544]	; 0x220
    2e2c:	e3a00000 	mov	r0, #0
    2e30:	e592c008 	ldr	ip, [r2, #8]
    2e34:	e583c250 	str	ip, [r3, #592]	; 0x250
    2e38:	e592c00c 	ldr	ip, [r2, #12]
    2e3c:	e583c238 	str	ip, [r3, #568]	; 0x238
    2e40:	e592c010 	ldr	ip, [r2, #16]
    2e44:	e583c254 	str	ip, [r3, #596]	; 0x254
    2e48:	e592c014 	ldr	ip, [r2, #20]
    2e4c:	e583c004 	str	ip, [r3, #4]
    2e50:	e592c024 	ldr	ip, [r2, #36]	; 0x24
    2e54:	e583c228 	str	ip, [r3, #552]	; 0x228
    2e58:	e592c028 	ldr	ip, [r2, #40]	; 0x28
    2e5c:	e583c22c 	str	ip, [r3, #556]	; 0x22c
    2e60:	e592c02c 	ldr	ip, [r2, #44]	; 0x2c
    2e64:	e583c234 	str	ip, [r3, #564]	; 0x234
    2e68:	e592c030 	ldr	ip, [r2, #48]	; 0x30
    2e6c:	e583c288 	str	ip, [r3, #648]	; 0x288
    2e70:	e592c034 	ldr	ip, [r2, #52]	; 0x34
    2e74:	e583c2a8 	str	ip, [r3, #680]	; 0x2a8
    2e78:	e592c018 	ldr	ip, [r2, #24]
    2e7c:	e583c010 	str	ip, [r3, #16]
    2e80:	e592c01c 	ldr	ip, [r2, #28]
    2e84:	e583c018 	str	ip, [r3, #24]
    2e88:	e592c020 	ldr	ip, [r2, #32]
    2e8c:	e583c028 	str	ip, [r3, #40]	; 0x28
    2e90:	e5922038 	ldr	r2, [r2, #56]	; 0x38
    2e94:	e5832058 	str	r2, [r3, #88]	; 0x58
    2e98:	e3a02002 	mov	r2, #2
    2e9c:	e593c050 	ldr	ip, [r3, #80]	; 0x50
    2ea0:	e7c1c012 	bfi	ip, r2, #0, #2
    2ea4:	e583c050 	str	ip, [r3, #80]	; 0x50
    2ea8:	e1a0200c 	mov	r2, ip
    2eac:	e3a0c001 	mov	ip, #1
    2eb0:	e7c1201c 	bfi	r2, ip, #0, #2
    2eb4:	e5812004 	str	r2, [r1, #4]
    2eb8:	e5832050 	str	r2, [r3, #80]	; 0x50
    2ebc:	e12fff1e 	bx	lr

00002ec0 <mem_clk_get_misc>:
    2ec0:	e3a03000 	mov	r3, #0
    2ec4:	e1a02000 	mov	r2, r0
    2ec8:	e34f31c2 	movt	r3, #61890	; 0xf1c2
    2ecc:	e3030364 	movw	r0, #13156	; 0x3364
    2ed0:	e5931220 	ldr	r1, [r3, #544]	; 0x220
    2ed4:	e3400000 	movt	r0, #0
    2ed8:	e5803000 	str	r3, [r0]
    2edc:	e3a00000 	mov	r0, #0
    2ee0:	e5821000 	str	r1, [r2]
    2ee4:	e5931250 	ldr	r1, [r3, #592]	; 0x250
    2ee8:	e5821008 	str	r1, [r2, #8]
    2eec:	e5931238 	ldr	r1, [r3, #568]	; 0x238
    2ef0:	e582100c 	str	r1, [r2, #12]
    2ef4:	e5931254 	ldr	r1, [r3, #596]	; 0x254
    2ef8:	e5821010 	str	r1, [r2, #16]
    2efc:	e5931004 	ldr	r1, [r3, #4]
    2f00:	e5821014 	str	r1, [r2, #20]
    2f04:	e5931228 	ldr	r1, [r3, #552]	; 0x228
    2f08:	e5821024 	str	r1, [r2, #36]	; 0x24
    2f0c:	e593122c 	ldr	r1, [r3, #556]	; 0x22c
    2f10:	e5821028 	str	r1, [r2, #40]	; 0x28
    2f14:	e5931288 	ldr	r1, [r3, #648]	; 0x288
    2f18:	e5821030 	str	r1, [r2, #48]	; 0x30
    2f1c:	e59312a8 	ldr	r1, [r3, #680]	; 0x2a8
    2f20:	e5821034 	str	r1, [r2, #52]	; 0x34
    2f24:	e5931010 	ldr	r1, [r3, #16]
    2f28:	e5821018 	str	r1, [r2, #24]
    2f2c:	e5931018 	ldr	r1, [r3, #24]
    2f30:	e582101c 	str	r1, [r2, #28]
    2f34:	e5931234 	ldr	r1, [r3, #564]	; 0x234
    2f38:	e582102c 	str	r1, [r2, #44]	; 0x2c
    2f3c:	e5931028 	ldr	r1, [r3, #40]	; 0x28
    2f40:	e5821020 	str	r1, [r2, #32]
    2f44:	e5933058 	ldr	r3, [r3, #88]	; 0x58
    2f48:	e5823038 	str	r3, [r2, #56]	; 0x38
    2f4c:	e12fff1e 	bx	lr

00002f50 <mem_clk_get_cpu_freq>:
    2f50:	e59f3050 	ldr	r3, [pc, #80]	; 2fa8 <mem_clk_get_cpu_freq+0x58>
    2f54:	e52d4004 	push	{r4}		; (str r4, [sp, #-4]!)
    2f58:	e5931000 	ldr	r1, [r3]
    2f5c:	e5912050 	ldr	r2, [r1, #80]	; 0x50
    2f60:	e3120a01 	tst	r2, #4096	; 0x1000
    2f64:	e5832004 	str	r2, [r3, #4]
    2f68:	1a000002 	bne	2f78 <mem_clk_get_cpu_freq+0x28>
    2f6c:	e3050dc0 	movw	r0, #24000	; 0x5dc0
    2f70:	e8bd0010 	pop	{r4}
    2f74:	e12fff1e 	bx	lr
    2f78:	e5912000 	ldr	r2, [r1]
    2f7c:	e3054dc0 	movw	r4, #24000	; 0x5dc0
    2f80:	e3120801 	tst	r2, #65536	; 0x10000
    2f84:	e7e70452 	ubfx	r0, r2, #8, #8
    2f88:	e202c003 	and	ip, r2, #3
    2f8c:	13a01004 	movne	r1, #4
    2f90:	03a01001 	moveq	r1, #1
    2f94:	e0000094 	mul	r0, r4, r0
    2f98:	e5832008 	str	r2, [r3, #8]
    2f9c:	e021119c 	mla	r1, ip, r1, r1
    2fa0:	e8bd0010 	pop	{r4}
    2fa4:	eafffd87 	b	25c8 <raw_lib_udiv>
    2fa8:	00003364 	andeq	r3, r0, r4, ror #6

Disassembly of section .rodata:

00002fac <CSWTCH.9>:
    2fac:	00000001 	andeq	r0, r0, r1
    2fb0:	00000002 	andeq	r0, r0, r2
    2fb4:	00000000 	andeq	r0, r0, r0
    2fb8:	00000003 	andeq	r0, r0, r3

00002fbc <CSWTCH.12>:
    2fbc:	00007d00 	andeq	r7, r0, r0, lsl #26
    2fc0:	016e3600 	cmneq	lr, r0, lsl #12
    2fc4:	47868c00 	strmi	r8, [r6, r0, lsl #24]

Disassembly of section .rodata.str1.4:

00002fc8 <.rodata.str1.4>:
    2fc8:	75736572 	ldrbvc	r6, [r3, #-1394]!	; 0x572
    2fcc:	3a31656d 	bcc	c5c588 <__bss_end+0xc59038>
    2fd0:	202e3120 	eorcs	r3, lr, r0, lsr #2
    2fd4:	6f666562 	svcvs	0x00666562
    2fd8:	72206572 	eorvc	r6, r0, #478150656	; 0x1c800000
    2fdc:	6f747365 	svcvs	0x00747365
    2fe0:	6d206572 	cfstr32vs	mvfx6, [r0, #-456]!	; 0xfffffe38
    2fe4:	202e756d 	eorcs	r7, lr, sp, ror #10
    2fe8:	0000000a 	andeq	r0, r0, sl
    2fec:	75736572 	ldrbvc	r6, [r3, #-1394]!	; 0x572
    2ff0:	3a31656d 	bcc	c5c5ac <__bss_end+0xc5905c>
    2ff4:	202e3320 	eorcs	r3, lr, r0, lsr #6
    2ff8:	65746661 	ldrbvs	r6, [r4, #-1633]!	; 0x661
    2ffc:	65722072 	ldrbvs	r2, [r2, #-114]!	; 0x72
    3000:	726f7473 	rsbvc	r7, pc, #1929379840	; 0x73000000
    3004:	6d6d2065 	stclvs	0, cr2, [sp, #-404]!	; 0xfffffe6c
    3008:	62202c75 	eorvs	r2, r0, #29952	; 0x7500
    300c:	726f6665 	rsbvc	r6, pc, #105906176	; 0x6500000
    3010:	756a2065 	strbvc	r2, [sl, #-101]!	; 0x65
    3014:	0a2e706d 	beq	b9f1d0 <__bss_end+0xb9bc80>
    3018:	00000000 	andeq	r0, r0, r0
    301c:	5f746567 	svcpl	0x00746567
    3020:	5f727563 	svcpl	0x00727563
    3024:	73756c63 	cmnvc	r5, #25344	; 0x6300
    3028:	5f726574 	svcpl	0x00726574
    302c:	3d206469 	cfstrscc	mvf6, [r0, #-420]!	; 0xfffffe5c
    3030:	2e642520 	cdpcs	5, 6, cr2, cr4, cr0, {1}
    3034:	00000a20 	andeq	r0, r0, r0, lsr #20
    3038:	5f6d656d 	svcpl	0x006d656d
    303c:	61726170 	cmnvs	r2, r0, ror r1
    3040:	666e695f 			; <UNDEFINED> instruction: 0x666e695f
    3044:	65642e6f 	strbvs	r2, [r4, #-3695]!	; 0xe6f
    3048:	5f677562 	svcpl	0x00677562
    304c:	6b73616d 	blvs	1cdb608 <__bss_end+0x1cd80b8>
    3050:	25203d20 	strcs	r3, [r0, #-3360]!	; 0xd20
    3054:	0a202e78 	beq	80ea3c <__bss_end+0x80b4ec>
    3058:	00000000 	andeq	r0, r0, r0
    305c:	616c6564 	cmnvs	ip, r4, ror #10
    3060:	656d2079 	strbvs	r2, [sp, #-121]!	; 0x79
    3064:	61705f6d 	cmnvs	r0, sp, ror #30
    3068:	695f6172 	ldmdbvs	pc, {r1, r4, r5, r6, r8, sp, lr}^	; <UNPREDICTABLE>
    306c:	2e6f666e 	cdpcs	6, 6, cr6, cr15, cr14, {3}
    3070:	70737573 	rsbsvc	r7, r3, r3, ror r5
    3074:	5f646e65 	svcpl	0x00646e65
    3078:	616c6564 	cmnvs	ip, r4, ror #10
    307c:	736d5f79 	cmnvc	sp, #484	; 0x1e4
    3080:	25203d20 	strcs	r3, [r0, #-3360]!	; 0xd20
    3084:	0a202e64 	beq	80ea1c <__bss_end+0x80b4cc>
    3088:	00000000 	andeq	r0, r0, r0
    308c:	72646461 	rsbvc	r6, r4, #1627389952	; 0x61000000
    3090:	3a465020 	bcc	1197118 <__bss_end+0x1193bc8>
    3094:	25783020 	ldrbcs	r3, [r8, #-32]!
    3098:	203d2078 	eorscs	r2, sp, r8, ror r0
    309c:	78257830 	stmdavc	r5!, {r4, r5, fp, ip, sp, lr}
    30a0:	000a202e 	andeq	r2, sl, lr, lsr #32
    30a4:	72646461 	rsbvc	r6, r4, #1627389952	; 0x61000000
    30a8:	3a485020 	bcc	1217130 <__bss_end+0x1213be0>
    30ac:	25783020 	ldrbcs	r3, [r8, #-32]!
    30b0:	203d2078 	eorscs	r2, sp, r8, ror r0
    30b4:	78257830 	stmdavc	r5!, {r4, r5, fp, ip, sp, lr}
    30b8:	000a202e 	andeq	r2, sl, lr, lsr #32
    30bc:	75736572 	ldrbvc	r6, [r3, #-1394]!	; 0x572
    30c0:	3a31656d 	bcc	c5c67c <__bss_end+0xc5912c>
    30c4:	61747320 	cmnvs	r4, r0, lsr #6
    30c8:	202e7472 	eorcs	r7, lr, r2, ror r4
    30cc:	0000000a 	andeq	r0, r0, sl
    30d0:	72646461 	rsbvc	r6, r4, #1627389952	; 0x61000000
    30d4:	2c782520 	cfldr64cs	mvdx2, [r8], #-128	; 0xffffff80
    30d8:	6c617620 	stclvs	6, cr7, [r1], #-128	; 0xffffff80
    30dc:	3d206575 	cfstr32cc	mvfx6, [r0, #-468]!	; 0xfffffe2c
    30e0:	2e782520 	cdpcs	5, 7, cr2, cr8, cr0, {1}
    30e4:	00000a20 	andeq	r0, r0, r0, lsr #20
    30e8:	33323130 	teqcc	r2, #12
    30ec:	37363534 			; <UNDEFINED> instruction: 0x37363534
    30f0:	42413938 	submi	r3, r1, #917504	; 0xe0000
    30f4:	46454443 	strbmi	r4, [r5], -r3, asr #8
    30f8:	00000000 	andeq	r0, r0, r0
    30fc:	20202020 	eorcs	r2, r0, r0, lsr #32
    3100:	20202020 	eorcs	r2, r0, r0, lsr #32
    3104:	20202020 	eorcs	r2, r0, r0, lsr #32
    3108:	20202020 	eorcs	r2, r0, r0, lsr #32
    310c:	00000000 	andeq	r0, r0, r0
    3110:	65747441 	ldrbvs	r7, [r4, #-1089]!	; 0x441
    3114:	6974706d 	ldmdbvs	r4!, {r0, r2, r3, r5, r6, ip, sp, lr}^
    3118:	6420676e 	strtvs	r6, [r0], #-1902	; 0x76e
    311c:	73697669 	cmnvc	r9, #110100480	; 0x6900000
    3120:	206e6f69 	rsbcs	r6, lr, r9, ror #30
    3124:	30207962 	eorcc	r7, r0, r2, ror #18
    3128:	00000021 	andeq	r0, r0, r1, lsr #32
    312c:	69746f6e 	ldmdbvs	r4!, {r1, r2, r3, r5, r6, r8, r9, sl, fp, sp, lr}^
    3130:	203a6563 	eorscs	r6, sl, r3, ror #10
    3134:	20636967 	rsbcs	r6, r3, r7, ror #18
    3138:	20726169 	rsbscs	r6, r2, r9, ror #2
    313c:	30203d3d 	eorcc	r3, r0, sp, lsr sp
    3140:	2e782578 	mrccs	5, 3, r2, cr8, cr8, {3}
    3144:	00000a20 	andeq	r0, r0, r0, lsr #20
    3148:	656b6174 	strbvs	r6, [fp, #-372]!	; 0x174
    314c:	73776820 	cmnvc	r7, #2097152	; 0x200000
    3150:	6c6e6970 	stclvs	9, cr6, [lr], #-448	; 0xfffffe40
    3154:	206b636f 	rsbcs	r6, fp, pc, ror #6
    3158:	656d6974 	strbvs	r6, [sp, #-2420]!	; 0x974
    315c:	0a74756f 	beq	1d20720 <__bss_end+0x1d1d1d0>
    3160:	00000000 	andeq	r0, r0, r0

Disassembly of section .data:

00003164 <tmpPtr>:
    3164:	00003168 	andeq	r3, r0, r8, ror #2

Disassembly of section .bss:

00003168 <status_reg>:
    3168:	00000000 	andeq	r0, r0, r0

0000316c <status_reg_pa>:
    316c:	00000000 	andeq	r0, r0, r0

00003170 <status_reg_tmp>:
    3170:	00000000 	andeq	r0, r0, r0

00003174 <status_reg_pa_tmp>:
    3174:	00000000 	andeq	r0, r0, r0

00003178 <print_flag>:
    3178:	00000000 	andeq	r0, r0, r0

0000317c <backup_perf_counter_ctrl_reg>:
    317c:	00000000 	andeq	r0, r0, r0

00003180 <backup_perf_counter_enable_reg>:
    3180:	00000000 	andeq	r0, r0, r0

00003184 <overhead>:
    3184:	00000000 	andeq	r0, r0, r0

00003188 <cpu_freq>:
    3188:	00000000 	andeq	r0, r0, r0

0000318c <saved_context>:
	...

0000322c <backup_gpio_uart>:
    322c:	00000000 	andeq	r0, r0, r0

00003230 <backup_ccu_uart>:
    3230:	00000000 	andeq	r0, r0, r0

00003234 <backup_ccu_uart_reset>:
    3234:	00000000 	andeq	r0, r0, r0

00003238 <backup_port_id>:
    3238:	00000000 	andeq	r0, r0, r0

0000323c <serial_inited_flag>:
    323c:	00000000 	andeq	r0, r0, r0

00003240 <debugger_buffer>:
	...

00003340 <GicDDisc>:
    3340:	00000000 	andeq	r0, r0, r0

00003344 <GicCDisc>:
    3344:	00000000 	andeq	r0, r0, r0

00003348 <gpio_clk_inited.2452>:
    3348:	00000000 	andeq	r0, r0, r0

0000334c <TmrReg>:
    334c:	00000000 	andeq	r0, r0, r0

00003350 <WatchDog1_Config_Reg_Bak>:
    3350:	00000000 	andeq	r0, r0, r0

00003354 <WatchDog1_Mod_Reg_Bak>:
    3354:	00000000 	andeq	r0, r0, r0

00003358 <WatchDog1_Irq_En_Bak>:
    3358:	00000000 	andeq	r0, r0, r0

0000335c <TmstmpReg>:
    335c:	00000000 	andeq	r0, r0, r0

00003360 <cpsr_backup>:
    3360:	00000000 	andeq	r0, r0, r0

00003364 <CmuReg>:
    3364:	00000000 	andeq	r0, r0, r0

00003368 <CmuReg_SysClkDiv_tmp>:
    3368:	00000000 	andeq	r0, r0, r0

0000336c <CmuReg_Pll1Ctl_tmp>:
    336c:	00000000 	andeq	r0, r0, r0

00003370 <mem_para_info>:
	...

00003434 <func_entry>:
    3434:	00000000 	andeq	r0, r0, r0

00003438 <saved_context_r13_irq>:
	...

00003440 <saved_context_r12_svc>:
	...

00003448 <saved_spsr_fiq>:
    3448:	00000000 	andeq	r0, r0, r0

0000344c <saved_spsr_und>:
    344c:	00000000 	andeq	r0, r0, r0

00003450 <saved_spsr_irq>:
    3450:	00000000 	andeq	r0, r0, r0

00003454 <saved_context_r13_abt>:
	...

0000345c <saved_spsr_mon>:
    345c:	00000000 	andeq	r0, r0, r0

00003460 <saved_empty_context_svc>:
	...

00003510 <saved_context_r13_fiq>:
	...

0000352c <saved_cpsr_svc>:
    352c:	00000000 	andeq	r0, r0, r0

00003530 <saved_context_r13_sys>:
	...

00003538 <saved_spsr_abt>:
    3538:	00000000 	andeq	r0, r0, r0

0000353c <saved_context_r13_mon>:
	...

00003544 <saved_spsr_svc>:
    3544:	00000000 	andeq	r0, r0, r0

00003548 <saved_context_r13_und>:
	...

Disassembly of section .debug_info:

00000000 <.debug_info>:
       0:	000001b0 			; <UNDEFINED> instruction: 0x000001b0
       4:	00000002 	andeq	r0, r0, r2
       8:	01040000 	mrseq	r0, (UNDEF: 4)
       c:	00000054 	andeq	r0, r0, r4, asr r0
      10:	0001f301 	andeq	pc, r1, r1, lsl #6
      14:	00014f00 	andeq	r4, r1, r0, lsl #30
      18:	00008c00 	andeq	r8, r0, r0, lsl #24
      1c:	00008c00 	andeq	r8, r0, r0, lsl #24
      20:	00000000 	andeq	r0, r0, r0
      24:	06010200 	streq	r0, [r1], -r0, lsl #4
      28:	0000008f 	andeq	r0, r0, pc, lsl #1
      2c:	8d080102 	stfhis	f0, [r8, #-8]
      30:	02000000 	andeq	r0, r0, #0
      34:	01d60502 	bicseq	r0, r6, r2, lsl #10
      38:	02020000 	andeq	r0, r2, #0
      3c:	0000b107 	andeq	fp, r0, r7, lsl #2
      40:	05040300 	streq	r0, [r4, #-768]	; 0x300
      44:	00746e69 	rsbseq	r6, r4, r9, ror #28
      48:	32070402 	andcc	r0, r7, #33554432	; 0x2000000
      4c:	02000001 	andeq	r0, r0, #1
      50:	01b10508 			; <UNDEFINED> instruction: 0x01b10508
      54:	08020000 	stmdaeq	r2, {}	; <UNPREDICTABLE>
      58:	00012807 	andeq	r2, r1, r7, lsl #16
      5c:	00310400 	eorseq	r0, r1, r0, lsl #8
      60:	02040000 	andeq	r0, r4, #0
      64:	0000ca89 	andeq	ip, r0, r9, lsl #21
      68:	001e0500 	andseq	r0, lr, r0, lsl #10
      6c:	05000000 	streq	r0, [r0, #-0]
      70:	000000a4 	andeq	r0, r0, r4, lsr #1
      74:	00470501 	subeq	r0, r7, r1, lsl #10
      78:	05020000 	streq	r0, [r2, #-0]
      7c:	00000081 	andeq	r0, r0, r1, lsl #1
      80:	01bf0503 			; <UNDEFINED> instruction: 0x01bf0503
      84:	05040000 	streq	r0, [r4, #-0]
      88:	0000011c 	andeq	r0, r0, ip, lsl r1
      8c:	01040505 	tsteq	r4, r5, lsl #10
      90:	05060000 	streq	r0, [r6, #-0]
      94:	0000013f 	andeq	r0, r0, pc, lsr r1
      98:	00120507 	andseq	r0, r2, r7, lsl #10
      9c:	05080000 	streq	r0, [r8, #-0]
      a0:	00000076 	andeq	r0, r0, r6, ror r0
      a4:	01110509 	tsteq	r1, r9, lsl #10
      a8:	050a0000 	streq	r0, [sl, #-0]
      ac:	000001cb 	andeq	r0, r0, fp, asr #3
      b0:	002b050b 	eoreq	r0, fp, fp, lsl #10
      b4:	050c0000 	streq	r0, [ip, #-0]
      b8:	000001a3 	andeq	r0, r0, r3, lsr #3
      bc:	0250050d 	subseq	r0, r0, #54525952	; 0x3400000
      c0:	050e0000 	streq	r0, [lr, #-0]
      c4:	00000039 	andeq	r0, r0, r9, lsr r0
      c8:	0102000f 	tsteq	r2, pc
      cc:	00009608 	andeq	r9, r0, r8, lsl #12
      d0:	07040200 	streq	r0, [r4, -r0, lsl #4]
      d4:	0000012d 	andeq	r0, r0, sp, lsr #2
      d8:	00000006 	andeq	r0, r0, r6
      dc:	49013000 	stmdbmi	r1, {ip, sp}
      e0:	00000171 	andeq	r0, r0, r1, ror r1
      e4:	0000f307 	andeq	pc, r0, r7, lsl #6
      e8:	484b0100 	stmdami	fp, {r8}^
      ec:	02000000 	andeq	r0, r0, #0
      f0:	3a070023 	bcc	1c0184 <__bss_end+0x1bcc34>
      f4:	01000002 	tsteq	r0, r2
      f8:	0001714c 	andeq	r7, r1, ip, asr #2
      fc:	04230200 	strteq	r0, [r3], #-512	; 0x200
     100:	0000cf07 	andeq	ip, r0, r7, lsl #30
     104:	484d0100 	stmdami	sp, {r8}^
     108:	02000000 	andeq	r0, r0, #0
     10c:	40070c23 	andmi	r0, r7, r3, lsr #24
     110:	01000002 	tsteq	r0, r2
     114:	0000484e 	andeq	r4, r0, lr, asr #16
     118:	10230200 	eorne	r0, r3, r0, lsl #4
     11c:	0000d907 	andeq	sp, r0, r7, lsl #18
     120:	484f0100 	stmdami	pc, {r8}^	; <UNPREDICTABLE>
     124:	02000000 	andeq	r0, r0, #0
     128:	2d071423 	cfstrscs	mvf1, [r7, #-140]	; 0xffffff74
     12c:	01000002 	tsteq	r0, r2
     130:	00018150 	andeq	r8, r1, r0, asr r1
     134:	18230200 	stmdane	r3!, {r9}
     138:	00019507 	andeq	r9, r1, r7, lsl #10
     13c:	81510100 	cmphi	r1, r0, lsl #2
     140:	02000001 	andeq	r0, r0, #1
     144:	c4071c23 	strgt	r1, [r7], #-3107	; 0xc23
     148:	01000000 	mrseq	r0, (UNDEF: 0)
     14c:	00018152 	andeq	r8, r1, r2, asr r1
     150:	20230200 	eorcs	r0, r3, r0, lsl #4
     154:	00009b07 	andeq	r9, r0, r7, lsl #22
     158:	81530100 	cmphi	r3, r0, lsl #2
     15c:	02000001 	andeq	r0, r0, #1
     160:	47072423 	strmi	r2, [r7, -r3, lsr #8]
     164:	01000002 	tsteq	r0, r2
     168:	00017154 	andeq	r7, r1, r4, asr r1
     16c:	28230200 	stmdacs	r3!, {r9}
     170:	002c0800 	eoreq	r0, ip, r0, lsl #16
     174:	01810000 	orreq	r0, r1, r0
     178:	48090000 	stmdami	r9, {}	; <UNPREDICTABLE>
     17c:	07000000 	streq	r0, [r0, -r0]
     180:	002c0800 	eoreq	r0, ip, r0, lsl #16
     184:	01910000 	orrseq	r0, r1, r0
     188:	48090000 	stmdami	r9, {}	; <UNPREDICTABLE>
     18c:	03000000 	movweq	r0, #0
     190:	01e00a00 	mvneq	r0, r0, lsl #20
     194:	55010000 	strpl	r0, [r1, #-0]
     198:	000000d8 	ldrdeq	r0, [r0], -r8
     19c:	0000e70b 	andeq	lr, r0, fp, lsl #14
     1a0:	ae240300 	cdpge	3, 2, cr0, cr4, cr0, {0}
     1a4:	01000001 	tsteq	r0, r1
     1a8:	00000305 	andeq	r0, r0, r5, lsl #6
     1ac:	910c0000 	mrsls	r0, (UNDEF: 12)
     1b0:	00000001 	andeq	r0, r0, r1
     1b4:	0000009e 	muleq	r0, lr, r0
     1b8:	00970002 	addseq	r0, r7, r2
     1bc:	01040000 	mrseq	r0, (UNDEF: 4)
     1c0:	000000bc 	strheq	r0, [r0], -ip
     1c4:	00000030 	andeq	r0, r0, r0, lsr r0
     1c8:	0000008c 	andeq	r0, r0, ip, lsl #1
     1cc:	68637261 	stmdavs	r3!, {r0, r5, r6, r9, ip, sp, lr}^
     1d0:	6d72612f 	ldfvse	f6, [r2, #-188]!	; 0xffffff44
     1d4:	63616d2f 	cmnvs	r1, #3008	; 0xbc0
     1d8:	75732d68 	ldrbvc	r2, [r3, #-3432]!	; 0xd68
     1dc:	2f69786e 	svccs	0x0069786e
     1e0:	732f6d70 	teqvc	pc, #7168	; 0x1c00
     1e4:	646e6174 	strbtvs	r6, [lr], #-372	; 0x174
     1e8:	732f7962 	teqvc	pc, #1605632	; 0x188000
     1ec:	72657075 	rsbvc	r7, r5, #117	; 0x75
     1f0:	7365722f 	cmnvc	r5, #-268435454	; 0xf0000002
     1f4:	2f656d75 	svccs	0x00656d75
     1f8:	75736572 	ldrbvc	r6, [r3, #-1394]!	; 0x572
     1fc:	2e31656d 	cdpcs	5, 3, cr6, cr1, cr13, {3}
     200:	682f0053 	stmdavs	pc!, {r0, r1, r4, r6}	; <UNPREDICTABLE>
     204:	2f656d6f 	svccs	0x00656d6f
     208:	2f776761 	svccs	0x00776761
     20c:	54333841 	ldrtpl	r3, [r3], #-2113	; 0x841
     210:	312e355f 	teqcc	lr, pc, asr r5
     214:	412f312e 	teqmi	pc, lr, lsr #2
     218:	5f543338 	svcpl	0x00543338
     21c:	2e312e35 	mrccs	14, 1, r2, cr1, cr5, {1}
     220:	65575f31 	ldrbvs	r5, [r7, #-3889]	; 0xf31
     224:	2f756469 	svccs	0x00756469
     228:	5f544550 	svcpl	0x00544550
     22c:	54333841 	ldrtpl	r3, [r3], #-2113	; 0x841
     230:	312e355f 	teqcc	lr, pc, asr r5
     234:	6c2f312e 	stfvss	f3, [pc], #-184	; 184 <resume1_c_part+0xa8>
     238:	65686369 	strbvs	r6, [r8, #-873]!	; 0x369
     23c:	696c2f65 	stmdbvs	ip!, {r0, r2, r5, r6, r8, r9, sl, fp, sp}^
     240:	2d78756e 	cfldr64cs	mvdx7, [r8, #-440]!	; 0xfffffe48
     244:	00342e33 	eorseq	r2, r4, r3, lsr lr
     248:	20554e47 	subscs	r4, r5, r7, asr #28
     24c:	32205341 	eorcc	r5, r0, #67108865	; 0x4000001
     250:	0032322e 	eorseq	r3, r2, lr, lsr #4
     254:	00cc8001 	sbceq	r8, ip, r1
     258:	00020000 	andeq	r0, r2, r0
     25c:	000000ab 	andeq	r0, r0, fp, lsr #1
     260:	00540104 	subseq	r0, r4, r4, lsl #2
     264:	5c010000 	stcpl	0, cr0, [r1], {-0}
     268:	4f000002 	svcmi	0x00000002
     26c:	8c000001 	stchi	0, cr0, [r0], {1}
     270:	b4000000 	strlt	r0, [r0], #-0
     274:	3b000000 	blcc	27c <set_pll+0x68>
     278:	02000001 	andeq	r0, r0, #1
     27c:	008f0601 	addeq	r0, pc, r1, lsl #12
     280:	01020000 	mrseq	r0, (UNDEF: 2)
     284:	00008d08 	andeq	r8, r0, r8, lsl #26
     288:	05020200 	streq	r0, [r2, #-512]	; 0x200
     28c:	000001d6 	ldrdeq	r0, [r0], -r6
     290:	b1070202 	tstlt	r7, r2, lsl #4
     294:	03000000 	movweq	r0, #0
     298:	6e690504 	cdpvs	5, 6, cr0, cr9, cr4, {0}
     29c:	04020074 	streq	r0, [r2], #-116	; 0x74
     2a0:	00013207 	andeq	r3, r1, r7, lsl #4
     2a4:	05080200 	streq	r0, [r8, #-512]	; 0x200
     2a8:	000001b1 			; <UNDEFINED> instruction: 0x000001b1
     2ac:	28070802 	stmdacs	r7, {r1, fp}
     2b0:	02000001 	andeq	r0, r0, #1
     2b4:	00960801 	addseq	r0, r6, r1, lsl #16
     2b8:	04040000 	streq	r0, [r4], #-0
     2bc:	00000048 	andeq	r0, r0, r8, asr #32
     2c0:	2d070402 	cfstrscs	mvf0, [r7, #-8]
     2c4:	05000001 	streq	r0, [r0, #-1]
     2c8:	9a010604 	bls	41ae0 <__bss_end+0x3e590>
     2cc:	01000002 	tsteq	r0, r2
     2d0:	008c0123 	addeq	r0, ip, r3, lsr #2
     2d4:	00b40000 	adcseq	r0, r4, r0
     2d8:	7d020000 	stcvc	0, cr0, [r2, #-0]
     2dc:	166c0700 	strbtne	r0, [ip], -r0, lsl #14
     2e0:	23010000 	movwcs	r0, #4096	; 0x1000
     2e4:	00000071 	andeq	r0, r0, r1, ror r0
     2e8:	00000000 	andeq	r0, r0, r0
     2ec:	63727308 	cmnvs	r2, #536870912	; 0x20000000
     2f0:	71230100 	teqvc	r3, r0, lsl #2
     2f4:	13000000 	movwne	r0, #0
     2f8:	08000000 	stmdaeq	r0, {}	; <UNPREDICTABLE>
     2fc:	2301006e 	movwcs	r0, #4206	; 0x106e
     300:	00000041 	andeq	r0, r0, r1, asr #32
     304:	00000026 	andeq	r0, r0, r6, lsr #32
     308:	00029209 	andeq	r9, r2, r9, lsl #4
     30c:	64250100 	strtvs	r0, [r5], #-256	; 0x100
     310:	51000000 	mrspl	r0, (UNDEF: 0)
     314:	0a000000 	beq	31c <set_pll+0x108>
     318:	0000028a 	andeq	r0, r0, sl, lsl #5
     31c:	00642601 	rsbeq	r2, r4, r1, lsl #12
     320:	50010000 	andpl	r0, r1, r0
     324:	00680000 	rsbeq	r0, r8, r0
     328:	00020000 	andeq	r0, r2, r0
     32c:	00000136 	andeq	r0, r0, r6, lsr r1
     330:	00540104 	subseq	r0, r4, r4, lsl #2
     334:	a5010000 	strge	r0, [r1, #-0]
     338:	4f000002 	svcmi	0x00000002
     33c:	b4000001 	strlt	r0, [r0], #-1
     340:	b4000000 	strlt	r0, [r0], #-0
     344:	b1000000 	mrslt	r0, (UNDEF: 0)
     348:	02000001 	andeq	r0, r0, #1
     34c:	008f0601 	addeq	r0, pc, r1, lsl #12
     350:	01020000 	mrseq	r0, (UNDEF: 2)
     354:	00008d08 	andeq	r8, r0, r8, lsl #26
     358:	05020200 	streq	r0, [r2, #-512]	; 0x200
     35c:	000001d6 	ldrdeq	r0, [r0], -r6
     360:	b1070202 	tstlt	r7, r2, lsl #4
     364:	03000000 	movweq	r0, #0
     368:	6e690504 	cdpvs	5, 6, cr0, cr9, cr4, {0}
     36c:	04020074 	streq	r0, [r2], #-116	; 0x74
     370:	00013207 	andeq	r3, r1, r7, lsl #4
     374:	05080200 	streq	r0, [r8, #-512]	; 0x200
     378:	000001b1 			; <UNDEFINED> instruction: 0x000001b1
     37c:	28070802 	stmdacs	r7, {r1, fp}
     380:	02000001 	andeq	r0, r0, #1
     384:	00960801 	addseq	r0, r6, r1, lsl #16
     388:	04020000 	streq	r0, [r2], #-0
     38c:	00012d07 	andeq	r2, r1, r7, lsl #26
     390:	009b0000 	addseq	r0, fp, r0
     394:	00020000 	andeq	r0, r2, r0
     398:	00000160 	andeq	r0, r0, r0, ror #2
     39c:	01ce0104 	biceq	r0, lr, r4, lsl #2
     3a0:	00b40000 	adcseq	r0, r4, r0
     3a4:	00dc0000 	sbcseq	r0, ip, r0
     3a8:	72610000 	rsbvc	r0, r1, #0
     3ac:	612f6863 	teqvs	pc, r3, ror #16
     3b0:	6d2f6d72 	stcvs	13, cr6, [pc, #-456]!	; 1f0 <resume1_c_part+0x114>
     3b4:	2d686361 	stclcs	3, cr6, [r8, #-388]!	; 0xfffffe7c
     3b8:	786e7573 	stmdavc	lr!, {r0, r1, r4, r5, r6, r8, sl, ip, sp, lr}^
     3bc:	6d702f69 	ldclvs	15, cr2, [r0, #-420]!	; 0xfffffe5c
     3c0:	6174732f 	cmnvs	r4, pc, lsr #6
     3c4:	7962646e 	stmdbvc	r2!, {r1, r2, r3, r5, r6, sl, sp, lr}^
     3c8:	7075732f 	rsbsvc	r7, r5, pc, lsr #6
     3cc:	732f7265 	teqvc	pc, #1342177286	; 0x50000006
     3d0:	72657075 	rsbvc	r7, r5, #117	; 0x75
     3d4:	6c65645f 	cfstrdvs	mvd6, [r5], #-380	; 0xfffffe84
     3d8:	532e7961 	teqpl	lr, #1589248	; 0x184000
     3dc:	6f682f00 	svcvs	0x00682f00
     3e0:	612f656d 	teqvs	pc, sp, ror #10
     3e4:	412f7767 	teqmi	pc, r7, ror #14
     3e8:	5f543338 	svcpl	0x00543338
     3ec:	2e312e35 	mrccs	14, 1, r2, cr1, cr5, {1}
     3f0:	38412f31 	stmdacc	r1, {r0, r4, r5, r8, r9, sl, fp, sp}^
     3f4:	355f5433 	ldrbcc	r5, [pc, #-1075]	; ffffffc9 <__bss_end+0xffffca79>
     3f8:	312e312e 	teqcc	lr, lr, lsr #2
     3fc:	6965575f 	stmdbvs	r5!, {r0, r1, r2, r3, r4, r6, r8, r9, sl, ip, lr}^
     400:	502f7564 	eorpl	r7, pc, r4, ror #10
     404:	415f5445 	cmpmi	pc, r5, asr #8
     408:	5f543338 	svcpl	0x00543338
     40c:	2e312e35 	mrccs	14, 1, r2, cr1, cr5, {1}
     410:	696c2f31 	stmdbvs	ip!, {r0, r4, r5, r8, r9, sl, fp, sp}^
     414:	65656863 	strbvs	r6, [r5, #-2147]!	; 0x863
     418:	6e696c2f 	cdpvs	12, 6, cr6, cr9, cr15, {1}
     41c:	332d7875 	teqcc	sp, #7667712	; 0x750000
     420:	4700342e 	strmi	r3, [r0, -lr, lsr #8]
     424:	4120554e 	teqmi	r0, lr, asr #10
     428:	2e322053 	mrccs	0, 1, r2, cr2, cr3, {2}
     42c:	01003232 	tsteq	r0, r2, lsr r2
     430:	00006880 	andeq	r6, r0, r0, lsl #17
     434:	74000200 	strvc	r0, [r0], #-512	; 0x200
     438:	04000001 	streq	r0, [r0], #-1
     43c:	00005401 	andeq	r5, r0, r1, lsl #8
     440:	02d60100 	sbcseq	r0, r6, #0
     444:	014f0000 	mrseq	r0, SPSR
     448:	00dc0000 	sbcseq	r0, ip, r0
     44c:	00dc0000 	sbcseq	r0, ip, r0
     450:	02390000 	eorseq	r0, r9, #0
     454:	01020000 	mrseq	r0, (UNDEF: 2)
     458:	00008f06 	andeq	r8, r0, r6, lsl #30
     45c:	08010200 	stmdaeq	r1, {r9}
     460:	0000008d 	andeq	r0, r0, sp, lsl #1
     464:	d6050202 	strle	r0, [r5], -r2, lsl #4
     468:	02000001 	andeq	r0, r0, #1
     46c:	00b10702 	adcseq	r0, r1, r2, lsl #14
     470:	04030000 	streq	r0, [r3], #-0
     474:	746e6905 	strbtvc	r6, [lr], #-2309	; 0x905
     478:	07040200 	streq	r0, [r4, -r0, lsl #4]
     47c:	00000132 	andeq	r0, r0, r2, lsr r1
     480:	b1050802 	tstlt	r5, r2, lsl #16
     484:	02000001 	andeq	r0, r0, #1
     488:	01280708 	teqeq	r8, r8, lsl #14
     48c:	01020000 	mrseq	r0, (UNDEF: 2)
     490:	00009608 	andeq	r9, r0, r8, lsl #12
     494:	07040200 	streq	r0, [r4, -r0, lsl #4]
     498:	0000012d 	andeq	r0, r0, sp, lsr #2
     49c:	00006800 	andeq	r6, r0, r0, lsl #16
     4a0:	9e000200 	cdpls	2, 0, cr0, cr0, cr0, {0}
     4a4:	04000001 	streq	r0, [r0], #-1
     4a8:	00005401 	andeq	r5, r0, r1, lsl #8
     4ac:	03090100 	movweq	r0, #37120	; 0x9100
     4b0:	014f0000 	mrseq	r0, SPSR
     4b4:	00dc0000 	sbcseq	r0, ip, r0
     4b8:	00dc0000 	sbcseq	r0, ip, r0
     4bc:	02560000 	subseq	r0, r6, #0
     4c0:	01020000 	mrseq	r0, (UNDEF: 2)
     4c4:	00008f06 	andeq	r8, r0, r6, lsl #30
     4c8:	08010200 	stmdaeq	r1, {r9}
     4cc:	0000008d 	andeq	r0, r0, sp, lsl #1
     4d0:	d6050202 	strle	r0, [r5], -r2, lsl #4
     4d4:	02000001 	andeq	r0, r0, #1
     4d8:	00b10702 	adcseq	r0, r1, r2, lsl #14
     4dc:	04030000 	streq	r0, [r3], #-0
     4e0:	746e6905 	strbtvc	r6, [lr], #-2309	; 0x905
     4e4:	07040200 	streq	r0, [r4, -r0, lsl #4]
     4e8:	00000132 	andeq	r0, r0, r2, lsr r1
     4ec:	b1050802 	tstlt	r5, r2, lsl #16
     4f0:	02000001 	andeq	r0, r0, #1
     4f4:	01280708 	teqeq	r8, r8, lsl #14
     4f8:	01020000 	mrseq	r0, (UNDEF: 2)
     4fc:	00009608 	andeq	r9, r0, r8, lsl #12
     500:	07040200 	streq	r0, [r4, -r0, lsl #4]
     504:	0000012d 	andeq	r0, r0, sp, lsr #2
     508:	00006800 	andeq	r6, r0, r0, lsl #16
     50c:	c8000200 	stmdagt	r0, {r9}
     510:	04000001 	streq	r0, [r0], #-1
     514:	00005401 	andeq	r5, r0, r1, lsl #8
     518:	033c0100 	teqeq	ip, #0
     51c:	014f0000 	mrseq	r0, SPSR
     520:	00dc0000 	sbcseq	r0, ip, r0
     524:	00dc0000 	sbcseq	r0, ip, r0
     528:	02730000 	rsbseq	r0, r3, #0
     52c:	01020000 	mrseq	r0, (UNDEF: 2)
     530:	00008f06 	andeq	r8, r0, r6, lsl #30
     534:	08010200 	stmdaeq	r1, {r9}
     538:	0000008d 	andeq	r0, r0, sp, lsl #1
     53c:	d6050202 	strle	r0, [r5], -r2, lsl #4
     540:	02000001 	andeq	r0, r0, #1
     544:	00b10702 	adcseq	r0, r1, r2, lsl #14
     548:	04030000 	streq	r0, [r3], #-0
     54c:	746e6905 	strbtvc	r6, [lr], #-2309	; 0x905
     550:	07040200 	streq	r0, [r4, -r0, lsl #4]
     554:	00000132 	andeq	r0, r0, r2, lsr r1
     558:	b1050802 	tstlt	r5, r2, lsl #16
     55c:	02000001 	andeq	r0, r0, #1
     560:	01280708 	teqeq	r8, r8, lsl #14
     564:	01020000 	mrseq	r0, (UNDEF: 2)
     568:	00009608 	andeq	r9, r0, r8, lsl #12
     56c:	07040200 	streq	r0, [r4, -r0, lsl #4]
     570:	0000012d 	andeq	r0, r0, sp, lsr #2
     574:	0010bc00 	andseq	fp, r0, r0, lsl #24
     578:	f2000200 	vhsub.s8	d0, d0, d0
     57c:	04000001 	streq	r0, [r0], #-1
     580:	00005401 	andeq	r5, r0, r1, lsl #8
     584:	07030100 	streq	r0, [r3, -r0, lsl #2]
     588:	014f0000 	mrseq	r0, SPSR
     58c:	00dc0000 	sbcseq	r0, ip, r0
     590:	03800000 	orreq	r0, r0, #0
     594:	02900000 	addseq	r0, r0, #0
     598:	01020000 	mrseq	r0, (UNDEF: 2)
     59c:	00008f06 	andeq	r8, r0, r6, lsl #30
     5a0:	0b1b0300 	bleq	6c11a8 <__bss_end+0x6bdc58>
     5a4:	0f020000 	svceq	0x00020000
     5a8:	00000037 	andeq	r0, r0, r7, lsr r0
     5ac:	8d080102 	stfhis	f0, [r8, #-8]
     5b0:	02000000 	andeq	r0, r0, #0
     5b4:	01d60502 	bicseq	r0, r6, r2, lsl #10
     5b8:	02020000 	andeq	r0, r2, #0
     5bc:	0000b107 	andeq	fp, r0, r7, lsl #2
     5c0:	05040400 	streq	r0, [r4, #-1024]	; 0x400
     5c4:	00746e69 	rsbseq	r6, r4, r9, ror #28
     5c8:	00083603 	andeq	r3, r8, r3, lsl #12
     5cc:	5e130200 	cdppl	2, 1, cr0, cr3, cr0, {0}
     5d0:	02000000 	andeq	r0, r0, #0
     5d4:	01320704 	teqeq	r2, r4, lsl #14
     5d8:	08020000 	stmdaeq	r2, {}	; <UNPREDICTABLE>
     5dc:	0001b105 	andeq	fp, r1, r5, lsl #2
     5e0:	07080200 	streq	r0, [r8, -r0, lsl #4]
     5e4:	00000128 	andeq	r0, r0, r8, lsr #2
     5e8:	1a030405 	bne	c1604 <__bss_end+0xbe0b4>
     5ec:	00000104 	andeq	r0, r0, r4, lsl #2
     5f0:	0005a506 	andeq	sl, r5, r6, lsl #10
     5f4:	531c0300 	tstpl	ip, #0
     5f8:	04000000 	streq	r0, [r0], #-0
     5fc:	23021e02 	movwcs	r1, #11778	; 0x2e02
     600:	0a720600 	beq	1c81e08 <__bss_end+0x1c7e8b8>
     604:	1d030000 	stcne	0, cr0, [r3, #-0]
     608:	00000053 	andeq	r0, r0, r3, asr r0
     60c:	02180604 	andseq	r0, r8, #4194304	; 0x400000
     610:	ad060023 	stcge	0, cr0, [r6, #-140]	; 0xffffff74
     614:	03000005 	movweq	r0, #5
     618:	0000531e 	andeq	r5, r0, lr, lsl r3
     61c:	10080400 	andne	r0, r8, r0, lsl #8
     620:	06002302 	streq	r2, [r0], -r2, lsl #6
     624:	000005bd 			; <UNDEFINED> instruction: 0x000005bd
     628:	00531f03 	subseq	r1, r3, r3, lsl #30
     62c:	01040000 	mrseq	r0, (UNDEF: 4)
     630:	0023020f 	eoreq	r0, r3, pc, lsl #4
     634:	000a9006 	andeq	r9, sl, r6
     638:	53200300 	teqpl	r0, #0
     63c:	04000000 	streq	r0, [r0], #-0
     640:	23020807 	movwcs	r0, #10247	; 0x2807
     644:	077d0600 	ldrbeq	r0, [sp, -r0, lsl #12]!
     648:	21030000 	mrscs	r0, (UNDEF: 3)
     64c:	00000053 	andeq	r0, r0, r3, asr r0
     650:	02050304 	andeq	r0, r5, #268435456	; 0x10000000
     654:	9a060023 	bls	1806e8 <__bss_end+0x17d198>
     658:	0300000a 	movweq	r0, #10
     65c:	00005322 	andeq	r5, r0, r2, lsr #6
     660:	01040400 	tsteq	r4, r0, lsl #8
     664:	06002302 	streq	r2, [r0], -r2, lsl #6
     668:	00000a34 	andeq	r0, r0, r4, lsr sl
     66c:	00532303 	subseq	r2, r3, r3, lsl #6
     670:	01040000 	mrseq	r0, (UNDEF: 4)
     674:	00230200 	eoreq	r0, r3, r0, lsl #4
     678:	03040700 	movweq	r0, #18176	; 0x4700
     67c:	00012318 	andeq	r2, r1, r8, lsl r3
     680:	03dc0800 	bicseq	r0, ip, #0
     684:	19030000 	stmdbne	r3, {}	; <UNPREDICTABLE>
     688:	00000053 	andeq	r0, r0, r3, asr r0
     68c:	00085f08 	andeq	r5, r8, r8, lsl #30
     690:	73250300 	teqvc	r5, #0
     694:	00000000 	andeq	r0, r0, r0
     698:	000a3a03 	andeq	r3, sl, r3, lsl #20
     69c:	04260300 	strteq	r0, [r6], #-768	; 0x300
     6a0:	05000001 	streq	r0, [r0, #-1]
     6a4:	bf3e0304 	svclt	0x003e0304
     6a8:	06000001 	streq	r0, [r0], -r1
     6ac:	00000cad 	andeq	r0, r0, sp, lsr #25
     6b0:	00534003 	subseq	r4, r3, r3
     6b4:	02040000 	andeq	r0, r4, #0
     6b8:	0023021e 	eoreq	r0, r3, lr, lsl r2
     6bc:	000a7206 	andeq	r7, sl, r6, lsl #4
     6c0:	53410300 	movtpl	r0, #4864	; 0x1300
     6c4:	04000000 	streq	r0, [r0], #-0
     6c8:	2302140a 	movwcs	r1, #9226	; 0x240a
     6cc:	06b30600 	ldrteq	r0, [r3], r0, lsl #12
     6d0:	42030000 	andmi	r0, r3, #0
     6d4:	00000053 	andeq	r0, r0, r3, asr r0
     6d8:	02130104 	andseq	r0, r3, #1
     6dc:	7c060023 	stcvc	0, cr0, [r6], {35}	; 0x23
     6e0:	0300000a 	movweq	r0, #10
     6e4:	00005343 	andeq	r5, r0, r3, asr #6
     6e8:	10030400 	andne	r0, r3, r0, lsl #8
     6ec:	06002302 	streq	r2, [r0], -r2, lsl #6
     6f0:	0000083c 	andeq	r0, r0, ip, lsr r8
     6f4:	00534403 	subseq	r4, r3, r3, lsl #8
     6f8:	02040000 	andeq	r0, r4, #0
     6fc:	0023020e 	eoreq	r0, r3, lr, lsl #4
     700:	000a8606 	andeq	r8, sl, r6, lsl #12
     704:	53450300 	movtpl	r0, #21248	; 0x5300
     708:	04000000 	streq	r0, [r0], #-0
     70c:	2302040a 	movwcs	r0, #9226	; 0x240a
     710:	06230600 	strteq	r0, [r3], -r0, lsl #12
     714:	46030000 	strmi	r0, [r3], -r0
     718:	00000053 	andeq	r0, r0, r3, asr r0
     71c:	02030104 	andeq	r0, r3, #1
     720:	90060023 	andls	r0, r6, r3, lsr #32
     724:	0300000a 	movweq	r0, #10
     728:	00005347 	andeq	r5, r0, r7, asr #6
     72c:	00030400 	andeq	r0, r3, r0, lsl #8
     730:	00002302 	andeq	r2, r0, r2, lsl #6
     734:	3c030407 	cfstrscc	mvf0, [r3], {7}
     738:	000001de 	ldrdeq	r0, [r0], -lr
     73c:	0003dc08 	andeq	sp, r3, r8, lsl #24
     740:	533d0300 	teqpl	sp, #0
     744:	08000000 	stmdaeq	r0, {}	; <UNPREDICTABLE>
     748:	0000085f 	andeq	r0, r0, pc, asr r8
     74c:	012e4803 	teqeq	lr, r3, lsl #16
     750:	03000000 	movweq	r0, #0
     754:	000004aa 	andeq	r0, r0, sl, lsr #9
     758:	01bf4903 			; <UNDEFINED> instruction: 0x01bf4903
     75c:	6e090000 	cdpvs	0, 0, cr0, cr9, cr0, {0}
     760:	04000003 	streq	r0, [r0], #-3
     764:	026d4f03 	rsbeq	r4, sp, #12
     768:	72060000 	andvc	r0, r6, #0
     76c:	0300000a 	movweq	r0, #10
     770:	00005351 	andeq	r5, r0, r1, asr r3
     774:	1c040400 	cfstrsne	mvf0, [r4], {-0}
     778:	06002302 	streq	r2, [r0], -r2, lsl #6
     77c:	000008b3 			; <UNDEFINED> instruction: 0x000008b3
     780:	00535203 	subseq	r5, r3, r3, lsl #4
     784:	02040000 	andeq	r0, r4, #0
     788:	0023021a 	eoreq	r0, r3, sl, lsl r2
     78c:	00081f06 	andeq	r1, r8, r6, lsl #30
     790:	53530300 	cmppl	r3, #0
     794:	04000000 	streq	r0, [r0], #-0
     798:	23021802 	movwcs	r1, #10242	; 0x2802
     79c:	09d30600 	ldmibeq	r3, {r9, sl}^
     7a0:	54030000 	strpl	r0, [r3], #-0
     7a4:	00000053 	andeq	r0, r0, r3, asr r0
     7a8:	02160204 	andseq	r0, r6, #1073741824	; 0x40000000
     7ac:	7c060023 	stcvc	0, cr0, [r6], {35}	; 0x23
     7b0:	0300000a 	movweq	r0, #10
     7b4:	00005355 	andeq	r5, r0, r5, asr r3
     7b8:	14020400 	strne	r0, [r2], #-1024	; 0x400
     7bc:	06002302 	streq	r2, [r0], -r2, lsl #6
     7c0:	000009b5 			; <UNDEFINED> instruction: 0x000009b5
     7c4:	00535603 	subseq	r5, r3, r3, lsl #12
     7c8:	02040000 	andeq	r0, r4, #0
     7cc:	00230212 	eoreq	r0, r3, r2, lsl r2
     7d0:	000a8606 	andeq	r8, sl, r6, lsl #12
     7d4:	53570300 	cmppl	r7, #0
     7d8:	04000000 	streq	r0, [r0], #-0
     7dc:	23020012 	movwcs	r0, #8210	; 0x2012
     7e0:	07030000 	streq	r0, [r3, -r0]
     7e4:	0300000c 	movweq	r0, #12
     7e8:	0001e958 	andeq	lr, r1, r8, asr r9
     7ec:	03040500 	movweq	r0, #17664	; 0x4500
     7f0:	0002e75f 	andeq	lr, r2, pc, asr r7
     7f4:	063b0600 	ldrteq	r0, [fp], -r0, lsl #12
     7f8:	61030000 	mrsvs	r0, (UNDEF: 3)
     7fc:	00000053 	andeq	r0, r0, r3, asr r0
     800:	021b0504 	andseq	r0, fp, #16777216	; 0x1000000
     804:	a4060023 	strge	r0, [r6], #-35	; 0x23
     808:	0300000c 	movweq	r0, #12
     80c:	00005362 	andeq	r5, r0, r2, ror #6
     810:	100b0400 	andne	r0, fp, r0, lsl #8
     814:	06002302 	streq	r2, [r0], -r2, lsl #6
     818:	00000640 	andeq	r0, r0, r0, asr #12
     81c:	00536303 	subseq	r6, r3, r3, lsl #6
     820:	02040000 	andeq	r0, r4, #0
     824:	0023020e 	eoreq	r0, r3, lr, lsl #4
     828:	000a7c06 	andeq	r7, sl, r6, lsl #24
     82c:	53640300 	cmnpl	r4, #0
     830:	04000000 	streq	r0, [r0], #-0
     834:	23020806 	movwcs	r0, #10246	; 0x2806
     838:	06250600 	strteq	r0, [r5], -r0, lsl #12
     83c:	65030000 	strvs	r0, [r3, #-0]
     840:	00000053 	andeq	r0, r0, r3, asr r0
     844:	02060204 	andeq	r0, r6, #1073741824	; 0x40000000
     848:	86060023 	strhi	r0, [r6], -r3, lsr #32
     84c:	0300000a 	movweq	r0, #10
     850:	00005366 	andeq	r5, r0, r6, ror #6
     854:	00060400 	andeq	r0, r6, r0, lsl #8
     858:	00002302 	andeq	r2, r0, r2, lsl #6
     85c:	5d030407 	cfstrspl	mvf0, [r3, #-28]	; 0xffffffe4
     860:	00000306 	andeq	r0, r0, r6, lsl #6
     864:	0003dc08 	andeq	sp, r3, r8, lsl #24
     868:	535e0300 	cmppl	lr, #0
     86c:	08000000 	stmdaeq	r0, {}	; <UNPREDICTABLE>
     870:	0000085f 	andeq	r0, r0, pc, asr r8
     874:	02786703 	rsbseq	r6, r8, #786432	; 0xc0000
     878:	03000000 	movweq	r0, #0
     87c:	000008ed 	andeq	r0, r0, sp, ror #17
     880:	02e76803 	rsceq	r6, r7, #196608	; 0x30000
     884:	b7090000 	strlt	r0, [r9, -r0]
     888:	04000007 	streq	r0, [r0], #-7
     88c:	03406a03 	movteq	r6, #2563	; 0xa03
     890:	85060000 	strhi	r0, [r6, #-0]
     894:	0300000c 	movweq	r0, #12
     898:	0000536c 	andeq	r5, r0, ip, ror #6
     89c:	10100400 	andsne	r0, r0, r0, lsl #8
     8a0:	06002302 	streq	r2, [r0], -r2, lsl #6
     8a4:	00000ca4 	andeq	r0, r0, r4, lsr #25
     8a8:	00536d03 	subseq	r6, r3, r3, lsl #26
     8ac:	10040000 	andne	r0, r4, r0
     8b0:	00230200 	eoreq	r0, r3, r0, lsl #4
     8b4:	0b4c0300 	bleq	13014bc <__bss_end+0x12fdf6c>
     8b8:	6e030000 	cdpvs	0, 0, cr0, cr3, cr0, {0}
     8bc:	00000311 	andeq	r0, r0, r1, lsl r3
     8c0:	000d270a 	andeq	r2, sp, sl, lsl #14
     8c4:	0302dc00 	movweq	sp, #11264	; 0x2c00
     8c8:	000b2170 	andeq	r2, fp, r0, ror r1
     8cc:	07860b00 	streq	r0, [r6, r0, lsl #22]
     8d0:	72030000 	andvc	r0, r3, #0
     8d4:	00000b21 	andeq	r0, r0, r1, lsr #22
     8d8:	0b002302 	bleq	94e8 <__bss_end+0x5f98>
     8dc:	0000079a 	muleq	r0, sl, r7
     8e0:	0b267303 	bleq	99d4f4 <__bss_end+0x999fa4>
     8e4:	23020000 	movwcs	r0, #8192	; 0x2000
     8e8:	0d1f0b04 	vldreq	d0, [pc, #-16]	; 8e0 <get_event_counter+0x14>
     8ec:	74030000 	strvc	r0, [r3], #-0
     8f0:	00000b26 	andeq	r0, r0, r6, lsr #22
     8f4:	0b082302 	bleq	209504 <__bss_end+0x205fb4>
     8f8:	00000a7c 	andeq	r0, r0, ip, ror sl
     8fc:	0b267503 	bleq	99dd10 <__bss_end+0x99a7c0>
     900:	23020000 	movwcs	r0, #8192	; 0x2000
     904:	08db0b0c 	ldmeq	fp, {r2, r3, r8, r9, fp}^
     908:	76030000 	strvc	r0, [r3], -r0
     90c:	00000b26 	andeq	r0, r0, r6, lsr #22
     910:	0b102302 	bleq	409520 <__bss_end+0x405fd0>
     914:	00000a86 	andeq	r0, r0, r6, lsl #21
     918:	0b267703 	bleq	99e52c <__bss_end+0x99afdc>
     91c:	23020000 	movwcs	r0, #8192	; 0x2000
     920:	047c0b14 	ldrbteq	r0, [ip], #-2836	; 0xb14
     924:	78030000 	stmdavc	r3, {}	; <UNPREDICTABLE>
     928:	00000b26 	andeq	r0, r0, r6, lsr #22
     92c:	0b182302 	bleq	60953c <__bss_end+0x605fec>
     930:	00000a90 	muleq	r0, r0, sl
     934:	0b267903 	bleq	99ed48 <__bss_end+0x99b7f8>
     938:	23020000 	movwcs	r0, #8192	; 0x2000
     93c:	0a220b1c 	beq	8835b4 <__bss_end+0x880064>
     940:	7a030000 	bvc	c0948 <__bss_end+0xbd3f8>
     944:	00000b26 	andeq	r0, r0, r6, lsr #22
     948:	0b202302 	bleq	809558 <__bss_end+0x806008>
     94c:	00000a9a 	muleq	r0, sl, sl
     950:	0b267b03 	bleq	99f564 <__bss_end+0x99c014>
     954:	23020000 	movwcs	r0, #8192	; 0x2000
     958:	04340b24 	ldrteq	r0, [r4], #-2852	; 0xb24
     95c:	7c030000 	stcvc	0, cr0, [r3], {-0}
     960:	00000b26 	andeq	r0, r0, r6, lsr #22
     964:	0b282302 	bleq	a09574 <__bss_end+0xa06024>
     968:	00000aa4 	andeq	r0, r0, r4, lsr #21
     96c:	0b267d03 	bleq	99fd80 <__bss_end+0x99c830>
     970:	23020000 	movwcs	r0, #8192	; 0x2000
     974:	0a0a0b2c 	beq	28362c <__bss_end+0x2800dc>
     978:	7e030000 	cdpvc	0, 0, cr0, cr3, cr0, {0}
     97c:	00000b26 	andeq	r0, r0, r6, lsr #22
     980:	0b302302 	bleq	c09590 <__bss_end+0xc06040>
     984:	00000aae 	andeq	r0, r0, lr, lsr #21
     988:	0b267f03 	bleq	9a059c <__bss_end+0x99d04c>
     98c:	23020000 	movwcs	r0, #8192	; 0x2000
     990:	07af0b34 			; <UNDEFINED> instruction: 0x07af0b34
     994:	80030000 	andhi	r0, r3, r0
     998:	00000b26 	andeq	r0, r0, r6, lsr #22
     99c:	0b382302 	bleq	e095ac <__bss_end+0xe0605c>
     9a0:	00000ab8 			; <UNDEFINED> instruction: 0x00000ab8
     9a4:	0b268103 	bleq	9a0db8 <__bss_end+0x99d868>
     9a8:	23020000 	movwcs	r0, #8192	; 0x2000
     9ac:	0b3a0b3c 	bleq	e836a4 <__bss_end+0xe80154>
     9b0:	82030000 	andhi	r0, r3, #0
     9b4:	00000b26 	andeq	r0, r0, r6, lsr #22
     9b8:	0b402302 	bleq	10095c8 <__bss_end+0x1006078>
     9bc:	00000d9a 	muleq	r0, sl, sp
     9c0:	0b268303 	bleq	9a15d4 <__bss_end+0x99e084>
     9c4:	23020000 	movwcs	r0, #8192	; 0x2000
     9c8:	04730b44 	ldrbteq	r0, [r3], #-2884	; 0xb44
     9cc:	84030000 	strhi	r0, [r3], #-0
     9d0:	00000b26 	andeq	r0, r0, r6, lsr #22
     9d4:	0b482302 	bleq	12095e4 <__bss_end+0x1206094>
     9d8:	00000be3 	andeq	r0, r0, r3, ror #23
     9dc:	0b268503 	bleq	9a1df0 <__bss_end+0x99e8a0>
     9e0:	23020000 	movwcs	r0, #8192	; 0x2000
     9e4:	08e30b4c 	stmiaeq	r3!, {r2, r3, r6, r8, r9, fp}^
     9e8:	86030000 	strhi	r0, [r3], -r0
     9ec:	00000b2b 	andeq	r0, r0, fp, lsr #22
     9f0:	0b502302 	bleq	1409600 <__bss_end+0x14060b0>
     9f4:	000008b3 			; <UNDEFINED> instruction: 0x000008b3
     9f8:	0b308703 	bleq	c2260c <__bss_end+0xc1f0bc>
     9fc:	23020000 	movwcs	r0, #8192	; 0x2000
     a00:	05b50b54 	ldreq	r0, [r5, #2900]!	; 0xb54
     a04:	88030000 	stmdahi	r3, {}	; <UNPREDICTABLE>
     a08:	00000b35 	andeq	r0, r0, r5, lsr fp
     a0c:	0b582302 	bleq	160961c <__bss_end+0x16060cc>
     a10:	00000a50 	andeq	r0, r0, r0, asr sl
     a14:	0b268903 	bleq	9a2e28 <__bss_end+0x99f8d8>
     a18:	23020000 	movwcs	r0, #8192	; 0x2000
     a1c:	0b310b5c 	bleq	c43794 <__bss_end+0xc40244>
     a20:	8a030000 	bhi	c0a28 <__bss_end+0xbd4d8>
     a24:	00000b26 	andeq	r0, r0, r6, lsr #22
     a28:	0b602302 	bleq	1809638 <__bss_end+0x18060e8>
     a2c:	00000740 	andeq	r0, r0, r0, asr #14
     a30:	0b268b03 	bleq	9a3644 <__bss_end+0x9a00f4>
     a34:	23020000 	movwcs	r0, #8192	; 0x2000
     a38:	0cb70b64 	vldmiaeq	r7!, {d0-<overflow reg d49>}
     a3c:	8c030000 	stchi	0, cr0, [r3], {-0}
     a40:	00000b26 	andeq	r0, r0, r6, lsr #22
     a44:	0b682302 	bleq	1a09654 <__bss_end+0x1a06104>
     a48:	00000962 	andeq	r0, r0, r2, ror #18
     a4c:	0b268d03 	bleq	9a3e60 <__bss_end+0x9a0910>
     a50:	23020000 	movwcs	r0, #8192	; 0x2000
     a54:	0ac20b6c 	beq	ff08380c <__bss_end+0xff0802bc>
     a58:	8e030000 	cdphi	0, 0, cr0, cr3, cr0, {0}
     a5c:	00000b4a 	andeq	r0, r0, sl, asr #22
     a60:	0b702302 	bleq	1c09670 <__bss_end+0x1c06120>
     a64:	00000d90 	muleq	r0, r0, sp
     a68:	0b268f03 	bleq	9a467c <__bss_end+0x9a112c>
     a6c:	23020000 	movwcs	r0, #8192	; 0x2000
     a70:	04200b78 	strteq	r0, [r0], #-2936	; 0xb78
     a74:	90030000 	andls	r0, r3, r0
     a78:	00000b26 	andeq	r0, r0, r6, lsr #22
     a7c:	0b7c2302 	bleq	1f0968c <__bss_end+0x1f0613c>
     a80:	00000d5d 	andeq	r0, r0, sp, asr sp
     a84:	0b269103 	bleq	9a4e98 <__bss_end+0x9a1948>
     a88:	23030000 	movwcs	r0, #12288	; 0x3000
     a8c:	c00b0180 	andgt	r0, fp, r0, lsl #3
     a90:	0300000c 	movweq	r0, #12
     a94:	000b2692 	muleq	fp, r2, r6
     a98:	84230300 	strthi	r0, [r3], #-768	; 0x300
     a9c:	64530c01 	ldrbvs	r0, [r3], #-3073	; 0xc01
     aa0:	93030030 	movwls	r0, #12336	; 0x3030
     aa4:	00000b26 	andeq	r0, r0, r6, lsr #22
     aa8:	01882303 	orreq	r2, r8, r3, lsl #6
     aac:	3164530c 	cmncc	r4, ip, lsl #6
     ab0:	26940300 	ldrcs	r0, [r4], r0, lsl #6
     ab4:	0300000b 	movweq	r0, #11
     ab8:	0c018c23 	stceq	12, cr8, [r1], {35}	; 0x23
     abc:	00326453 	eorseq	r6, r2, r3, asr r4
     ac0:	0b269503 	bleq	9a5ed4 <__bss_end+0x9a2984>
     ac4:	23030000 	movwcs	r0, #12288	; 0x3000
     ac8:	cb0b0190 	blgt	2c1110 <__bss_end+0x2bdbc0>
     acc:	0300000c 	movweq	r0, #12
     ad0:	000b4f96 	muleq	fp, r6, pc	; <UNPREDICTABLE>
     ad4:	94230300 	strtls	r0, [r3], #-768	; 0x300
     ad8:	73530c01 	cmpvc	r3, #256	; 0x100
     adc:	26970300 	ldrcs	r0, [r7], r0, lsl #6
     ae0:	0300000b 	movweq	r0, #11
     ae4:	0b019c23 	bleq	67b78 <__bss_end+0x64628>
     ae8:	00000b27 	andeq	r0, r0, r7, lsr #22
     aec:	0b269803 	bleq	9a6b00 <__bss_end+0x9a35b0>
     af0:	23030000 	movwcs	r0, #12288	; 0x3000
     af4:	2c0b01a0 	stfcss	f0, [fp], {160}	; 0xa0
     af8:	0300000b 	movweq	r0, #11
     afc:	000b2699 	muleq	fp, r9, r6
     b00:	a4230300 	strtge	r0, [r3], #-768	; 0x300
     b04:	0cd60b01 	fldmiaxeq	r6, {d16-d15}	;@ Deprecated
     b08:	9a030000 	bls	c0b10 <__bss_end+0xbd5c0>
     b0c:	00000b54 	andeq	r0, r0, r4, asr fp
     b10:	01a82303 			; <UNDEFINED> instruction: 0x01a82303
     b14:	0004640b 	andeq	r6, r4, fp, lsl #8
     b18:	269b0300 	ldrcs	r0, [fp], r0, lsl #6
     b1c:	0300000b 	movweq	r0, #11
     b20:	0b01b023 	bleq	6cbb4 <__bss_end+0x69664>
     b24:	00000469 	andeq	r0, r0, r9, ror #8
     b28:	0b269c03 	bleq	9a7b3c <__bss_end+0x9a45ec>
     b2c:	23030000 	movwcs	r0, #12288	; 0x3000
     b30:	6e0b01b4 	mcrvs	1, 0, r0, cr11, cr4, {5}
     b34:	03000004 	movweq	r0, #4
     b38:	000b269d 	muleq	fp, sp, r6
     b3c:	b8230300 	stmdalt	r3!, {r8, r9}
     b40:	05270b01 	streq	r0, [r7, #-2817]!	; 0xb01
     b44:	9e030000 	cdpls	0, 0, cr0, cr3, cr0, {0}
     b48:	00000b26 	andeq	r0, r0, r6, lsr #22
     b4c:	01bc2303 			; <UNDEFINED> instruction: 0x01bc2303
     b50:	0009590b 	andeq	r5, r9, fp, lsl #18
     b54:	269f0300 	ldrcs	r0, [pc], r0, lsl #6
     b58:	0300000b 	movweq	r0, #11
     b5c:	0b01c023 	bleq	70bf0 <__bss_end+0x6d6a0>
     b60:	00000891 	muleq	r0, r1, r8
     b64:	0b59a003 	bleq	1668b78 <__bss_end+0x1665628>
     b68:	23030000 	movwcs	r0, #12288	; 0x3000
     b6c:	550c01c4 	strpl	r0, [ip, #-452]	; 0x1c4
     b70:	03006273 	movweq	r6, #627	; 0x273
     b74:	000b26a1 	andeq	r2, fp, r1, lsr #13
     b78:	cc230300 	stcgt	3, cr0, [r3], #-0
     b7c:	0c540b01 	mrrceq	11, 0, r0, r4, cr1
     b80:	a2030000 	andge	r0, r3, #0
     b84:	00000b26 	andeq	r0, r0, r6, lsr #22
     b88:	01d02303 	bicseq	r2, r0, r3, lsl #6
     b8c:	0007ce0b 	andeq	ip, r7, fp, lsl #28
     b90:	6ea30300 	cdpvs	3, 10, cr0, cr3, cr0, {0}
     b94:	0300000b 	movweq	r0, #11
     b98:	0b01d423 	bleq	75c2c <__bss_end+0x726dc>
     b9c:	00000d13 	andeq	r0, r0, r3, lsl sp
     ba0:	0b26a403 	bleq	9a9bb4 <__bss_end+0x9a6664>
     ba4:	23030000 	movwcs	r0, #12288	; 0x3000
     ba8:	ff0b01f0 			; <UNDEFINED> instruction: 0xff0b01f0
     bac:	0300000b 	movweq	r0, #11
     bb0:	000b26a5 	andeq	r2, fp, r5, lsr #13
     bb4:	f4230300 	vld2.8	{d0-d3}, [r3], r0
     bb8:	0c8e0b01 	fstmiaxeq	lr, {d0-d-1}	;@ Deprecated
     bbc:	a6030000 	strge	r0, [r3], -r0
     bc0:	00000b26 	andeq	r0, r0, r6, lsr #22
     bc4:	01f82303 	mvnseq	r2, r3, lsl #6
     bc8:	0009db0b 	andeq	sp, r9, fp, lsl #22
     bcc:	26a70300 	strtcs	r0, [r7], r0, lsl #6
     bd0:	0300000b 	movweq	r0, #11
     bd4:	0b01fc23 	bleq	7fc68 <__bss_end+0x7c718>
     bd8:	000009ac 	andeq	r0, r0, ip, lsr #19
     bdc:	0b26a803 	bleq	9aabf0 <__bss_end+0x9a76a0>
     be0:	23030000 	movwcs	r0, #12288	; 0x3000
     be4:	8e0b0280 	cdphi	2, 0, cr0, cr11, cr0, {4}
     be8:	03000007 	movweq	r0, #7
     bec:	000b26a9 	andeq	r2, fp, r9, lsr #13
     bf0:	84230300 	strthi	r0, [r3], #-768	; 0x300
     bf4:	03b80b02 			; <UNDEFINED> instruction: 0x03b80b02
     bf8:	aa030000 	bge	c0c00 <__bss_end+0xbd6b0>
     bfc:	00000b26 	andeq	r0, r0, r6, lsr #22
     c00:	02882303 	addeq	r2, r8, #201326592	; 0xc000000
     c04:	00050e0b 	andeq	r0, r5, fp, lsl #28
     c08:	26ab0300 	strtcs	r0, [fp], r0, lsl #6
     c0c:	0300000b 	movweq	r0, #11
     c10:	0b028c23 	bleq	a3ca4 <__bss_end+0xa0754>
     c14:	000003c4 	andeq	r0, r0, r4, asr #7
     c18:	0b26ac03 	bleq	9abc2c <__bss_end+0x9a86dc>
     c1c:	23030000 	movwcs	r0, #12288	; 0x3000
     c20:	d00b0290 	mulle	fp, r0, r2
     c24:	03000003 	movweq	r0, #3
     c28:	000b26ad 	andeq	r2, fp, sp, lsr #13
     c2c:	94230300 	strtls	r0, [r3], #-768	; 0x300
     c30:	04100b02 	ldreq	r0, [r0], #-2818	; 0xb02
     c34:	ae030000 	cdpge	0, 0, cr0, cr3, cr0, {0}
     c38:	00000b26 	andeq	r0, r0, r6, lsr #22
     c3c:	02982303 	addseq	r2, r8, #201326592	; 0xc000000
     c40:	0004180b 	andeq	r1, r4, fp, lsl #16
     c44:	26af0300 	strtcs	r0, [pc], r0, lsl #6
     c48:	0300000b 	movweq	r0, #11
     c4c:	0b029c23 	bleq	a7ce0 <__bss_end+0xa4790>
     c50:	000007df 	ldrdeq	r0, [r0], -pc	; <UNPREDICTABLE>
     c54:	0b83b003 	bleq	fe0ecc68 <__bss_end+0xfe0e9718>
     c58:	23030000 	movwcs	r0, #12288	; 0x3000
     c5c:	580b02a0 	stmdapl	fp, {r5, r7, r9}
     c60:	0300000a 	movweq	r0, #10
     c64:	000b26b1 			; <UNDEFINED> instruction: 0x000b26b1
     c68:	b0230300 	eorlt	r0, r3, r0, lsl #6
     c6c:	0af10b02 	beq	ffc4387c <__bss_end+0xffc4032c>
     c70:	b2030000 	andlt	r0, r3, #0
     c74:	00000b26 	andeq	r0, r0, r6, lsr #22
     c78:	02b42303 	adcseq	r2, r4, #201326592	; 0xc000000
     c7c:	00043c0b 	andeq	r3, r4, fp, lsl #24
     c80:	26b30300 	ldrtcs	r0, [r3], r0, lsl #6
     c84:	0300000b 	movweq	r0, #11
     c88:	0c02b823 	stceq	8, cr11, [r2], {35}	; 0x23
     c8c:	03006556 	movweq	r6, #1366	; 0x556
     c90:	000b26b4 			; <UNDEFINED> instruction: 0x000b26b4
     c94:	bc230300 	stclt	3, cr0, [r3], #-0
     c98:	099f0b02 	ldmibeq	pc, {r1, r8, r9, fp}	; <UNPREDICTABLE>
     c9c:	b5030000 	strlt	r0, [r3, #-0]
     ca0:	00000b26 	andeq	r0, r0, r6, lsr #22
     ca4:	02c02303 	sbceq	r2, r0, #201326592	; 0xc000000
     ca8:	7376410c 	cmnvc	r6, #3
     cac:	26b60300 	ldrtcs	r0, [r6], r0, lsl #6
     cb0:	0300000b 	movweq	r0, #11
     cb4:	0b02c423 	bleq	b1d48 <__bss_end+0xae7f8>
     cb8:	00000448 	andeq	r0, r0, r8, asr #8
     cbc:	0b26b703 	bleq	9ae8d0 <__bss_end+0x9ab380>
     cc0:	23030000 	movwcs	r0, #12288	; 0x3000
     cc4:	ea0b02c8 	b	2c17ec <__bss_end+0x2be29c>
     cc8:	03000007 	movweq	r0, #7
     ccc:	000b26b8 			; <UNDEFINED> instruction: 0x000b26b8
     cd0:	cc230300 	stcgt	3, cr0, [r3], #-0
     cd4:	089c0b02 	ldmeq	ip, {r1, r8, r9, fp}
     cd8:	b9030000 	stmdblt	r3, {}	; <UNPREDICTABLE>
     cdc:	00000b26 	andeq	r0, r0, r6, lsr #22
     ce0:	02d02303 	sbcseq	r2, r0, #201326592	; 0xc000000
     ce4:	000b830b 	andeq	r8, fp, fp, lsl #6
     ce8:	26ba0300 	ldrtcs	r0, [sl], r0, lsl #6
     cec:	0300000b 	movweq	r0, #11
     cf0:	0b02d423 	bleq	b5d84 <__bss_end+0xb2834>
     cf4:	000004ec 	andeq	r0, r0, ip, ror #9
     cf8:	0b26bb03 	bleq	9af90c <__bss_end+0x9ac3bc>
     cfc:	23030000 	movwcs	r0, #12288	; 0x3000
     d00:	360b02d8 			; <UNDEFINED> instruction: 0x360b02d8
     d04:	03000005 	movweq	r0, #5
     d08:	000b26bc 			; <UNDEFINED> instruction: 0x000b26bc
     d0c:	dc230300 	stcle	3, cr0, [r3], #-0
     d10:	04f80b02 	ldrbteq	r0, [r8], #2818	; 0xb02
     d14:	bd030000 	stclt	0, cr0, [r3, #-0]
     d18:	00000b26 	andeq	r0, r0, r6, lsr #22
     d1c:	02e02303 	rsceq	r2, r0, #201326592	; 0xc000000
     d20:	0007f50b 	andeq	pc, r7, fp, lsl #10
     d24:	26be0300 	ldrtcs	r0, [lr], r0, lsl #6
     d28:	0300000b 	movweq	r0, #11
     d2c:	0b02e423 	bleq	b9dc0 <__bss_end+0xb6870>
     d30:	00000ad1 	ldrdeq	r0, [r0], -r1
     d34:	0b26bf03 	bleq	9b0948 <__bss_end+0x9ad3f8>
     d38:	23030000 	movwcs	r0, #12288	; 0x3000
     d3c:	dd0b02e8 	sfmle	f0, 4, [fp, #-928]	; 0xfffffc60
     d40:	0300000a 	movweq	r0, #10
     d44:	000b26c0 	andeq	r2, fp, r0, asr #13
     d48:	ec230300 	stc	3, cr0, [r3], #-0
     d4c:	08000b02 	stmdaeq	r0, {r1, r8, r9, fp}
     d50:	c1030000 	mrsgt	r0, (UNDEF: 3)
     d54:	00000b88 	andeq	r0, r0, r8, lsl #23
     d58:	02f02303 	rscseq	r2, r0, #201326592	; 0xc000000
     d5c:	000ce10b 	andeq	lr, ip, fp, lsl #2
     d60:	26c20300 	strbcs	r0, [r2], r0, lsl #6
     d64:	0300000b 	movweq	r0, #11
     d68:	0b038023 	bleq	e0dfc <__bss_end+0xdd8ac>
     d6c:	00000676 	andeq	r0, r0, r6, ror r6
     d70:	0b26c303 	bleq	9b1984 <__bss_end+0x9ae434>
     d74:	23030000 	movwcs	r0, #12288	; 0x3000
     d78:	820b0384 	andhi	r0, fp, #268435458	; 0x10000002
     d7c:	03000006 	movweq	r0, #6
     d80:	000b26c4 	andeq	r2, fp, r4, asr #13
     d84:	88230300 	stmdahi	r3!, {r8, r9}
     d88:	068e0b03 	streq	r0, [lr], r3, lsl #22
     d8c:	c5030000 	strgt	r0, [r3, #-0]
     d90:	00000b26 	andeq	r0, r0, r6, lsr #22
     d94:	038c2303 	orreq	r2, ip, #201326592	; 0xc000000
     d98:	00080b0b 	andeq	r0, r8, fp, lsl #22
     d9c:	8dc60300 	stclhi	3, cr0, [r6]
     da0:	0300000b 	movweq	r0, #11
     da4:	0b039023 	bleq	e4e38 <__bss_end+0xe18e8>
     da8:	000006ab 	andeq	r0, r0, fp, lsr #13
     dac:	0b26c703 	bleq	9b29c0 <__bss_end+0x9af470>
     db0:	23030000 	movwcs	r0, #12288	; 0x3000
     db4:	2c0b03a0 	stccs	3, cr0, [fp], {160}	; 0xa0
     db8:	03000006 	movweq	r0, #6
     dbc:	000b26c8 	andeq	r2, fp, r8, asr #13
     dc0:	a4230300 	strtge	r0, [r3], #-768	; 0x300
     dc4:	09090b03 	stmdbeq	r9, {r0, r1, r8, r9, fp}
     dc8:	c9030000 	stmdbgt	r3, {}	; <UNPREDICTABLE>
     dcc:	00000b26 	andeq	r0, r0, r6, lsr #22
     dd0:	03a82303 			; <UNDEFINED> instruction: 0x03a82303
     dd4:	0006eb0b 	andeq	lr, r6, fp, lsl #22
     dd8:	26ca0300 	strbcs	r0, [sl], r0, lsl #6
     ddc:	0300000b 	movweq	r0, #11
     de0:	0b03ac23 	bleq	ebe74 <__bss_end+0xe8924>
     de4:	000006f7 	strdeq	r0, [r0], -r7
     de8:	0b26cb03 	bleq	9b39fc <__bss_end+0x9b04ac>
     dec:	23030000 	movwcs	r0, #12288	; 0x3000
     df0:	bb0b03b0 	bllt	2c1cb8 <__bss_end+0x2be768>
     df4:	03000008 	movweq	r0, #8
     df8:	000ba2cc 	andeq	sl, fp, ip, asr #5
     dfc:	b4230300 	strtlt	r0, [r3], #-768	; 0x300
     e00:	03f00b03 	mvnseq	r0, #3072	; 0xc00
     e04:	cd030000 	stcgt	0, cr0, [r3, #-0]
     e08:	00000b26 	andeq	r0, r0, r6, lsr #22
     e0c:	03c02303 	biceq	r2, r0, #201326592	; 0xc000000
     e10:	0007a30b 	andeq	sl, r7, fp, lsl #6
     e14:	b7ce0300 	strblt	r0, [lr, r0, lsl #6]
     e18:	0300000b 	movweq	r0, #11
     e1c:	0b03c423 	bleq	f1eb0 <__bss_end+0xee960>
     e20:	0000069a 	muleq	r0, sl, r6
     e24:	0bbccf03 	bleq	fef34a38 <__bss_end+0xfef314e8>
     e28:	23030000 	movwcs	r0, #12288	; 0x3000
     e2c:	7f0b0480 	svcvc	0x000b0480
     e30:	03000009 	movweq	r0, #9
     e34:	000b26d0 	ldrdeq	r2, [fp], -r0
     e38:	84230300 	strthi	r0, [r3], #-768	; 0x300
     e3c:	0c980b04 	vldmiaeq	r8, {d0-d1}
     e40:	d1030000 	mrsle	r0, (UNDEF: 3)
     e44:	00000b26 	andeq	r0, r0, r6, lsr #22
     e48:	04882303 	streq	r2, [r8], #771	; 0x303
     e4c:	000c600b 	andeq	r6, ip, fp
     e50:	26d20300 	ldrbcs	r0, [r2], r0, lsl #6
     e54:	0300000b 	movweq	r0, #11
     e58:	0b048c23 	bleq	123eec <__bss_end+0x12099c>
     e5c:	000005c5 	andeq	r0, r0, r5, asr #11
     e60:	0bc1d303 	bleq	ff075a74 <__bss_end+0xff072524>
     e64:	23030000 	movwcs	r0, #12288	; 0x3000
     e68:	560b0490 			; <UNDEFINED> instruction: 0x560b0490
     e6c:	03000008 	movweq	r0, #8
     e70:	000bd6d5 	ldrdeq	sp, [fp], -r5
     e74:	a0230300 	eorge	r0, r3, r0, lsl #6
     e78:	04c80b04 	strbeq	r0, [r8], #2820	; 0xb04
     e7c:	d6030000 	strle	r0, [r3], -r0
     e80:	00000b26 	andeq	r0, r0, r6, lsr #22
     e84:	04a42303 	strteq	r2, [r4], #771	; 0x303
     e88:	0003e20b 	andeq	lr, r3, fp, lsl #4
     e8c:	26d70300 	ldrbcs	r0, [r7], r0, lsl #6
     e90:	0300000b 	movweq	r0, #11
     e94:	0b04a823 	bleq	12af28 <__bss_end+0x1279d8>
     e98:	0000087a 	andeq	r0, r0, sl, ror r8
     e9c:	0b26d803 	bleq	9b6eb0 <__bss_end+0x9b3960>
     ea0:	23030000 	movwcs	r0, #12288	; 0x3000
     ea4:	d30b04ac 	movwle	r0, #46252	; 0xb4ac
     ea8:	03000006 	movweq	r0, #6
     eac:	000b26d9 	ldrdeq	r2, [fp], -r9
     eb0:	b0230300 	eorlt	r0, r3, r0, lsl #6
     eb4:	0b650b04 	bleq	1943acc <__bss_end+0x194057c>
     eb8:	da030000 	ble	c0ec0 <__bss_end+0xbd970>
     ebc:	00000b26 	andeq	r0, r0, r6, lsr #22
     ec0:	04b42303 	ldrteq	r2, [r4], #771	; 0x303
     ec4:	000d4f0b 	andeq	r4, sp, fp, lsl #30
     ec8:	26db0300 	ldrbcs	r0, [fp], r0, lsl #6
     ecc:	0300000b 	movweq	r0, #11
     ed0:	0b04b823 	bleq	12ef64 <__bss_end+0x12ba14>
     ed4:	00000607 	andeq	r0, r0, r7, lsl #12
     ed8:	0b26dc03 	bleq	9b7eec <__bss_end+0x9b499c>
     edc:	23030000 	movwcs	r0, #12288	; 0x3000
     ee0:	de0b04bc 	mcrle	4, 0, r0, cr11, cr12, {5}
     ee4:	03000006 	movweq	r0, #6
     ee8:	000b26dd 	ldrdeq	r2, [fp], -sp
     eec:	c0230300 	eorgt	r0, r3, r0, lsl #6
     ef0:	051b0b04 	ldreq	r0, [fp, #-2820]	; 0xb04
     ef4:	de030000 	cdple	0, 0, cr0, cr3, cr0, {0}
     ef8:	00000b26 	andeq	r0, r0, r6, lsr #22
     efc:	04c42303 	strbeq	r2, [r4], #771	; 0x303
     f00:	0009c90b 	andeq	ip, r9, fp, lsl #18
     f04:	26df0300 	ldrbcs	r0, [pc], r0, lsl #6
     f08:	0300000b 	movweq	r0, #11
     f0c:	0b04c823 	bleq	132fa0 <__bss_end+0x12fa50>
     f10:	000009fc 	strdeq	r0, [r0], -ip
     f14:	0b26e003 	bleq	9b8f28 <__bss_end+0x9b59d8>
     f18:	23030000 	movwcs	r0, #12288	; 0x3000
     f1c:	2e0b04cc 	cdpcs	4, 0, cr0, cr11, cr12, {6}
     f20:	03000005 	movweq	r0, #5
     f24:	000b26e2 	andeq	r2, fp, r2, ror #13
     f28:	d0230300 	eorle	r0, r3, r0, lsl #6
     f2c:	09c00b04 	stmibeq	r0, {r2, r8, r9, fp}^
     f30:	e3030000 	movw	r0, #12288	; 0x3000
     f34:	00000b26 	andeq	r0, r0, r6, lsr #22
     f38:	04d42303 	ldrbeq	r2, [r4], #771	; 0x303
     f3c:	0005d10b 	andeq	sp, r5, fp, lsl #2
     f40:	dbe50300 	blle	ff941b48 <__bss_end+0xff93e5f8>
     f44:	0300000b 	movweq	r0, #11
     f48:	0b04d823 	bleq	136fdc <__bss_end+0x133a8c>
     f4c:	00000a15 	andeq	r0, r0, r5, lsl sl
     f50:	0b26e603 	bleq	9ba764 <__bss_end+0x9b7214>
     f54:	23030000 	movwcs	r0, #12288	; 0x3000
     f58:	dd0b04e0 	cfstrsle	mvf0, [fp, #-896]	; 0xfffffc80
     f5c:	03000005 	movweq	r0, #5
     f60:	000be0e7 	andeq	lr, fp, r7, ror #1
     f64:	e4230300 	strt	r0, [r3], #-768	; 0x300
     f68:	05900b04 	ldreq	r0, [r0, #2820]	; 0xb04
     f6c:	e8030000 	stmda	r3, {}	; <UNPREDICTABLE>
     f70:	00000b26 	andeq	r0, r0, r6, lsr #22
     f74:	04f02303 	ldrbteq	r2, [r0], #771	; 0x303
     f78:	0005e90b 	andeq	lr, r5, fp, lsl #18
     f7c:	e5e90300 	strb	r0, [r9, #768]!	; 0x300
     f80:	0300000b 	movweq	r0, #11
     f84:	0b04f423 	bleq	13e018 <__bss_end+0x13aac8>
     f88:	00000935 	andeq	r0, r0, r5, lsr r9
     f8c:	0b26ea03 	bleq	9bb7a0 <__bss_end+0x9b8250>
     f90:	23030000 	movwcs	r0, #12288	; 0x3000
     f94:	e80b0580 	stmda	fp, {r7, r8, sl}
     f98:	03000009 	movweq	r0, #9
     f9c:	000b26ec 	andeq	r2, fp, ip, ror #13
     fa0:	84230300 	strthi	r0, [r3], #-768	; 0x300
     fa4:	08c60b05 	stmiaeq	r6, {r0, r2, r8, r9, fp}^
     fa8:	ed030000 	stc	0, cr0, [r3, #-0]
     fac:	00000b26 	andeq	r0, r0, r6, lsr #22
     fb0:	05882303 	streq	r2, [r8, #771]	; 0x303
     fb4:	0009880b 	andeq	r8, r9, fp, lsl #16
     fb8:	26ee0300 	strbtcs	r0, [lr], r0, lsl #6
     fbc:	0300000b 	movweq	r0, #11
     fc0:	0b058c23 	bleq	164054 <__bss_end+0x160b04>
     fc4:	00000b8f 	andeq	r0, r0, pc, lsl #23
     fc8:	0b26ef03 	bleq	9bcbdc <__bss_end+0x9b968c>
     fcc:	23030000 	movwcs	r0, #12288	; 0x3000
     fd0:	fb0b0590 	blx	2c261a <__bss_end+0x2bf0ca>
     fd4:	03000005 	movweq	r0, #5
     fd8:	000beaf0 	strdeq	lr, [fp], -r0
     fdc:	94230300 	strtls	r0, [r3], #-768	; 0x300
     fe0:	096b0b05 	stmdbeq	fp!, {r0, r2, r8, r9, fp}^
     fe4:	f1030000 			; <UNDEFINED> instruction: 0xf1030000
     fe8:	00000b26 	andeq	r0, r0, r6, lsr #22
     fec:	05a42303 	streq	r2, [r4, #771]!	; 0x303
     ff0:	000c700b 	andeq	r7, ip, fp
     ff4:	26f20300 	ldrbtcs	r0, [r2], r0, lsl #6
     ff8:	0300000b 	movweq	r0, #11
     ffc:	0b05a823 	bleq	16b090 <__bss_end+0x167b40>
    1000:	00000388 	andeq	r0, r0, r8, lsl #7
    1004:	0b26f303 	bleq	9bdc18 <__bss_end+0x9ba6c8>
    1008:	23030000 	movwcs	r0, #12288	; 0x3000
    100c:	ed0b05ac 	cfstr32	mvfx0, [fp, #-688]	; 0xfffffd50
    1010:	0300000b 	movweq	r0, #11
    1014:	000b26f4 	strdeq	r2, [fp], -r4
    1018:	b0230300 	eorlt	r0, r3, r0, lsl #6
    101c:	03950b05 	orrseq	r0, r5, #5120	; 0x1400
    1020:	f5030000 			; <UNDEFINED> instruction: 0xf5030000
    1024:	00000bef 	andeq	r0, r0, pc, ror #23
    1028:	05b42303 	ldreq	r2, [r4, #771]!	; 0x303
    102c:	0009170b 	andeq	r1, r9, fp, lsl #14
    1030:	26f70300 	ldrbtcs	r0, [r7], r0, lsl #6
    1034:	0300000b 	movweq	r0, #11
    1038:	0b05c023 	bleq	1710cc <__bss_end+0x16db7c>
    103c:	00000921 	andeq	r0, r0, r1, lsr #18
    1040:	0b26f803 	bleq	9bf054 <__bss_end+0x9bbb04>
    1044:	23030000 	movwcs	r0, #12288	; 0x3000
    1048:	2b0b05c4 	blcs	2c2760 <__bss_end+0x2bf210>
    104c:	03000009 	movweq	r0, #9
    1050:	000b26f9 	strdeq	r2, [fp], -r9
    1054:	c8230300 	stmdagt	r3!, {r8, r9}
    1058:	08640b05 	stmdaeq	r4!, {r0, r2, r8, r9, fp}^
    105c:	fa030000 	blx	c1064 <__bss_end+0xbdb14>
    1060:	00000b26 	andeq	r0, r0, r6, lsr #22
    1064:	05cc2303 	strbeq	r2, [ip, #771]	; 0x303
    1068:	000a680b 	andeq	r6, sl, fp, lsl #16
    106c:	26fb0300 	ldrbtcs	r0, [fp], r0, lsl #6
    1070:	0300000b 	movweq	r0, #11
    1074:	0b05d023 	bleq	175108 <__bss_end+0x171bb8>
    1078:	0000086f 	andeq	r0, r0, pc, ror #16
    107c:	0b26fc03 	bleq	9c0090 <__bss_end+0x9bcb40>
    1080:	23030000 	movwcs	r0, #12288	; 0x3000
    1084:	450b05d4 	strmi	r0, [fp, #-1492]	; 0x5d4
    1088:	03000006 	movweq	r0, #6
    108c:	000b26fd 	strdeq	r2, [fp], -sp
    1090:	d8230300 	stmdale	r3!, {r8, r9}
    1094:	230d0005 	movwcs	r0, #53253	; 0xd005
    1098:	0d000001 	stceq	0, cr0, [r0, #-4]
    109c:	00000053 	andeq	r0, r0, r3, asr r0
    10a0:	0001de0d 	andeq	sp, r1, sp, lsl #28
    10a4:	026d0d00 	rsbeq	r0, sp, #0
    10a8:	060d0000 	streq	r0, [sp], -r0
    10ac:	0e000003 	cdpeq	0, 0, cr0, cr0, cr3, {0}
    10b0:	00000053 	andeq	r0, r0, r3, asr r0
    10b4:	00000b4a 	andeq	r0, r0, sl, asr #22
    10b8:	00005e0f 	andeq	r5, r0, pc, lsl #28
    10bc:	0d000100 	stfeqs	f0, [r0, #-0]
    10c0:	00000b3a 	andeq	r0, r0, sl, lsr fp
    10c4:	000b3a0d 	andeq	r3, fp, sp, lsl #20
    10c8:	0b3a0d00 	bleq	e844d0 <__bss_end+0xe80f80>
    10cc:	3a0d0000 	bcc	3410d4 <__bss_end+0x33db84>
    10d0:	0e00000b 	cdpeq	0, 0, cr0, cr0, cr11, {0}
    10d4:	00000053 	andeq	r0, r0, r3, asr r0
    10d8:	00000b6e 	andeq	r0, r0, lr, ror #22
    10dc:	00005e0f 	andeq	r5, r0, pc, lsl #28
    10e0:	0d000600 	stceq	6, cr0, [r0, #-0]
    10e4:	00000b5e 	andeq	r0, r0, lr, asr fp
    10e8:	0000530e 	andeq	r5, r0, lr, lsl #6
    10ec:	000b8300 	andeq	r8, fp, r0, lsl #6
    10f0:	005e0f00 	subseq	r0, lr, r0, lsl #30
    10f4:	00030000 	andeq	r0, r3, r0
    10f8:	000b730d 	andeq	r7, fp, sp, lsl #6
    10fc:	0b730d00 	bleq	1cc4504 <__bss_end+0x1cc0fb4>
    1100:	730d0000 	movwvc	r0, #53248	; 0xd000
    1104:	0e00000b 	cdpeq	0, 0, cr0, cr0, cr11, {0}
    1108:	00000053 	andeq	r0, r0, r3, asr r0
    110c:	00000ba2 	andeq	r0, r0, r2, lsr #23
    1110:	00005e0f 	andeq	r5, r0, pc, lsl #28
    1114:	0d000200 	sfmeq	f0, 4, [r0, #-0]
    1118:	00000b92 	muleq	r0, r2, fp
    111c:	0000530e 	andeq	r5, r0, lr, lsl #6
    1120:	000bb700 	andeq	fp, fp, r0, lsl #14
    1124:	005e0f00 	subseq	r0, lr, r0, lsl #30
    1128:	000e0000 	andeq	r0, lr, r0
    112c:	000ba70d 	andeq	sl, fp, sp, lsl #14
    1130:	03400d00 	movteq	r0, #3328	; 0xd00
    1134:	730d0000 	movwvc	r0, #53248	; 0xd000
    1138:	0e00000b 	cdpeq	0, 0, cr0, cr0, cr11, {0}
    113c:	00000053 	andeq	r0, r0, r3, asr r0
    1140:	00000bd6 	ldrdeq	r0, [r0], -r6
    1144:	00005e0f 	andeq	r5, r0, pc, lsl #28
    1148:	0d000000 	stceq	0, cr0, [r0, #-0]
    114c:	00000bc6 	andeq	r0, r0, r6, asr #23
    1150:	000b3a0d 	andeq	r3, fp, sp, lsl #20
    1154:	0b920d00 	bleq	fe48455c <__bss_end+0xfe48100c>
    1158:	920d0000 	andls	r0, sp, #0
    115c:	0d00000b 	stceq	0, cr0, [r0, #-44]	; 0xffffffd4
    1160:	00000b73 	andeq	r0, r0, r3, ror fp
    1164:	000b920d 	andeq	r9, fp, sp, lsl #4
    1168:	0bb20300 	bleq	fec81d70 <__bss_end+0xfec7e820>
    116c:	fe030000 	cdp2	0, 0, cr0, cr3, cr0, {0}
    1170:	0000034b 	andeq	r0, r0, fp, asr #6
    1174:	0bf40410 	bleq	ffd021bc <__bss_end+0xffcfec6c>
    1178:	2a090000 	bcs	241180 <__bss_end+0x23dc30>
    117c:	0800000a 	stmdaeq	r0, {r1, r3}
    1180:	0c2e1804 	stceq	8, cr1, [lr], #-16
    1184:	2c0b0000 	stccs	0, cr0, [fp], {-0}
    1188:	04000004 	streq	r0, [r0], #-4
    118c:	00005319 	andeq	r5, r0, r9, lsl r3
    1190:	00230200 	eoreq	r0, r3, r0, lsl #4
    1194:	00064f0b 	andeq	r4, r6, fp, lsl #30
    1198:	531a0400 	tstpl	sl, #0
    119c:	02000000 	andeq	r0, r0, #0
    11a0:	09000423 	stmdbeq	r0, {r0, r1, r5, sl}
    11a4:	00000bc4 	andeq	r0, r0, r4, asr #23
    11a8:	0d1d043c 	cfldrseq	mvf0, [sp, #-240]	; 0xffffff10
    11ac:	0b00000d 	bleq	11e8 <__save_processor_state+0x2e8>
    11b0:	00000c23 	andeq	r0, r0, r3, lsr #24
    11b4:	00531e04 	subseq	r1, r3, r4, lsl #28
    11b8:	23020000 	movwcs	r0, #8192	; 0x2000
    11bc:	0bd90b00 	bleq	ff643dc4 <__bss_end+0xff640874>
    11c0:	1f040000 	svcne	0x00040000
    11c4:	00000053 	andeq	r0, r0, r3, asr r0
    11c8:	0b042302 	bleq	109dd8 <__bss_end+0x106888>
    11cc:	000006a2 	andeq	r0, r0, r2, lsr #13
    11d0:	00532004 	subseq	r2, r3, r4
    11d4:	23020000 	movwcs	r0, #8192	; 0x2000
    11d8:	04e00b08 	strbteq	r0, [r0], #2824	; 0xb08
    11dc:	2b040000 	blcs	1011e4 <__bss_end+0xfdc94>
    11e0:	00000053 	andeq	r0, r0, r3, asr r0
    11e4:	0b0c2302 	bleq	309df4 <__bss_end+0x3068a4>
    11e8:	000009c0 	andeq	r0, r0, r0, asr #19
    11ec:	00532c04 	subseq	r2, r3, r4, lsl #24
    11f0:	23020000 	movwcs	r0, #8192	; 0x2000
    11f4:	079a0b10 			; <UNDEFINED> instruction: 0x079a0b10
    11f8:	2d040000 	stccs	0, cr0, [r4, #-0]
    11fc:	00000053 	andeq	r0, r0, r3, asr r0
    1200:	0b142302 	bleq	509e10 <__bss_end+0x5068c0>
    1204:	000008db 	ldrdeq	r0, [r0], -fp
    1208:	00532e04 	subseq	r2, r3, r4, lsl #28
    120c:	23020000 	movwcs	r0, #8192	; 0x2000
    1210:	047c0b18 	ldrbteq	r0, [ip], #-2840	; 0xb18
    1214:	2f040000 	svccs	0x00040000
    1218:	00000053 	andeq	r0, r0, r3, asr r0
    121c:	0b1c2302 	bleq	709e2c <__bss_end+0x7068dc>
    1220:	00000434 	andeq	r0, r0, r4, lsr r4
    1224:	00533004 	subseq	r3, r3, r4
    1228:	23020000 	movwcs	r0, #8192	; 0x2000
    122c:	03e20b20 	mvneq	r0, #32768	; 0x8000
    1230:	31040000 	mrscc	r0, (UNDEF: 4)
    1234:	00000053 	andeq	r0, r0, r3, asr r0
    1238:	0b242302 	bleq	909e48 <__bss_end+0x9068f8>
    123c:	0000087a 	andeq	r0, r0, sl, ror r8
    1240:	00533204 	subseq	r3, r3, r4, lsl #4
    1244:	23020000 	movwcs	r0, #8192	; 0x2000
    1248:	0b650b28 	bleq	1943ef0 <__bss_end+0x19409a0>
    124c:	33040000 	movwcc	r0, #16384	; 0x4000
    1250:	00000053 	andeq	r0, r0, r3, asr r0
    1254:	0b2c2302 	bleq	b09e64 <__bss_end+0xb06914>
    1258:	000008c6 	andeq	r0, r0, r6, asr #17
    125c:	00533404 	subseq	r3, r3, r4, lsl #8
    1260:	23020000 	movwcs	r0, #8192	; 0x2000
    1264:	0c700b30 	ldcleq	11, cr0, [r0], #-192	; 0xffffff40
    1268:	35040000 	strcc	r0, [r4, #-0]
    126c:	00000053 	andeq	r0, r0, r3, asr r0
    1270:	0b342302 	bleq	d09e80 <__bss_end+0xd06930>
    1274:	000005b5 			; <UNDEFINED> instruction: 0x000005b5
    1278:	00533604 	subseq	r3, r3, r4, lsl #12
    127c:	23020000 	movwcs	r0, #8192	; 0x2000
    1280:	84090038 	strhi	r0, [r9], #-56	; 0x38
    1284:	08000008 	stmdaeq	r0, {r3}
    1288:	0d603b04 	vstmdbeq	r0!, {d19-d20}
    128c:	ad0b0000 	stcge	0, cr0, [fp, #-0]
    1290:	04000005 	streq	r0, [r0], #-5
    1294:	00002c3c 	andeq	r2, r0, ip, lsr ip
    1298:	00230200 	eoreq	r0, r3, r0, lsl #4
    129c:	00059d0b 	andeq	r9, r5, fp, lsl #26
    12a0:	2c3d0400 	cfldrscs	mvf0, [sp], #-0
    12a4:	02000000 	andeq	r0, r0, #0
    12a8:	a50b0123 	strge	r0, [fp, #-291]	; 0x123
    12ac:	04000005 	streq	r0, [r0], #-5
    12b0:	00002c3e 	andeq	r2, r0, lr, lsr ip
    12b4:	02230200 	eoreq	r0, r3, #0
    12b8:	0005bd0b 	andeq	fp, r5, fp, lsl #26
    12bc:	2c3f0400 	cfldrscs	mvf0, [pc], #-0	; 12c4 <__save_processor_state+0x3c4>
    12c0:	02000000 	andeq	r0, r0, #0
    12c4:	500c0323 	andpl	r0, ip, r3, lsr #6
    12c8:	04006c6c 	streq	r6, [r0], #-3180	; 0xc6c
    12cc:	00005340 	andeq	r5, r0, r0, asr #6
    12d0:	04230200 	strteq	r0, [r3], #-512	; 0x200
    12d4:	00311100 	eorseq	r1, r1, r0, lsl #2
    12d8:	06040000 	streq	r0, [r4], -r0
    12dc:	000dcd89 	andeq	ip, sp, r9, lsl #27
    12e0:	001e1200 	andseq	r1, lr, r0, lsl #4
    12e4:	12000000 	andne	r0, r0, #0
    12e8:	000000a4 	andeq	r0, r0, r4, lsr #1
    12ec:	00471201 	subeq	r1, r7, r1, lsl #4
    12f0:	12020000 	andne	r0, r2, #0
    12f4:	00000081 	andeq	r0, r0, r1, lsl #1
    12f8:	01bf1203 			; <UNDEFINED> instruction: 0x01bf1203
    12fc:	12040000 	andne	r0, r4, #0
    1300:	0000011c 	andeq	r0, r0, ip, lsl r1
    1304:	01041205 	tsteq	r4, r5, lsl #4
    1308:	12060000 	andne	r0, r6, #0
    130c:	0000013f 	andeq	r0, r0, pc, lsr r1
    1310:	00121207 	andseq	r1, r2, r7, lsl #4
    1314:	12080000 	andne	r0, r8, #0
    1318:	00000076 	andeq	r0, r0, r6, ror r0
    131c:	01111209 	tsteq	r1, r9, lsl #4
    1320:	120a0000 	andne	r0, sl, #0
    1324:	000001cb 	andeq	r0, r0, fp, asr #3
    1328:	002b120b 	eoreq	r1, fp, fp, lsl #4
    132c:	120c0000 	andne	r0, ip, #0
    1330:	000001a3 	andeq	r0, r0, r3, lsr #3
    1334:	0250120d 	subseq	r1, r0, #-805306368	; 0xd0000000
    1338:	120e0000 	andne	r0, lr, #0
    133c:	00000039 	andeq	r0, r0, r9, lsr r0
    1340:	0102000f 	tsteq	r2, pc
    1344:	00009608 	andeq	r9, r0, r8, lsl #12
    1348:	5e041000 	cdppl	0, 0, cr1, cr4, cr0, {0}
    134c:	02000000 	andeq	r0, r0, #0
    1350:	012d0704 	teqeq	sp, r4, lsl #14
    1354:	04130000 	ldreq	r0, [r3], #-0
    1358:	0e3f2805 	cdpeq	8, 3, cr2, cr15, cr5, {0}
    135c:	64120000 	ldrvs	r0, [r2], #-0
    1360:	01000007 	tsteq	r0, r7
    1364:	000d3712 	andeq	r3, sp, r2, lsl r7
    1368:	84120200 	ldrhi	r0, [r2], #-512	; 0x200
    136c:	04000004 	streq	r0, [r0], #-4
    1370:	00055812 	andeq	r5, r5, r2, lsl r8
    1374:	5b120800 	blpl	48337c <__bss_end+0x47fe2c>
    1378:	10000006 	andne	r0, r0, r6
    137c:	000c3412 	andeq	r3, ip, r2, lsl r4
    1380:	3c122000 	ldccc	0, cr2, [r2], {-0}
    1384:	c0000005 	andgt	r0, r0, r5
    1388:	0d631200 	sfmeq	f1, 2, [r3, #-0]
    138c:	01800000 	orreq	r0, r0, r0
    1390:	000cf312 	andeq	pc, ip, r2, lsl r3	; <UNPREDICTABLE>
    1394:	12028000 	andne	r8, r2, #0
    1398:	00000aff 	strdeq	r0, [r0], -pc	; <UNPREDICTABLE>
    139c:	49120480 	ldmdbmi	r2, {r7, sl}
    13a0:	80000007 	andhi	r0, r0, r7
    13a4:	0b731208 	bleq	1cc5bcc <__bss_end+0x1cc267c>
    13a8:	10800000 	addne	r0, r0, r0
    13ac:	00056e12 	andeq	r6, r5, r2, lsl lr
    13b0:	00208000 	eoreq	r8, r0, r0
    13b4:	00045a09 	andeq	r5, r4, r9, lsl #20
    13b8:	4c052400 	cfstrsmi	mvf2, [r5], {-0}
    13bc:	00000ec9 	andeq	r0, r0, r9, asr #29
    13c0:	000cee0b 	andeq	lr, ip, fp, lsl #28
    13c4:	534e0500 	movtpl	r0, #58624	; 0xe500
    13c8:	02000000 	andeq	r0, r0, #0
    13cc:	630c0023 	movwvs	r0, #49187	; 0xc023
    13d0:	50050072 	andpl	r0, r5, r2, ror r0
    13d4:	00000053 	andeq	r0, r0, r3, asr r0
    13d8:	0b042302 	bleq	109fe8 <__bss_end+0x106a98>
    13dc:	00000acc 	andeq	r0, r0, ip, asr #21
    13e0:	00535105 	subseq	r5, r3, r5, lsl #2
    13e4:	23020000 	movwcs	r0, #8192	; 0x2000
    13e8:	0b200b08 	bleq	804010 <__bss_end+0x800ac0>
    13ec:	53050000 	movwpl	r0, #20480	; 0x5000
    13f0:	00000053 	andeq	r0, r0, r3, asr r0
    13f4:	0b0c2302 	bleq	30a004 <__bss_end+0x306ab4>
    13f8:	00000c2d 	andeq	r0, r0, sp, lsr #24
    13fc:	00535405 	subseq	r5, r3, r5, lsl #8
    1400:	23020000 	movwcs	r0, #8192	; 0x2000
    1404:	08300b10 	ldmdaeq	r0!, {r4, r8, r9, fp}
    1408:	55050000 	strpl	r0, [r5, #-0]
    140c:	00000053 	andeq	r0, r0, r3, asr r0
    1410:	0b142302 	bleq	50a020 <__bss_end+0x506ad0>
    1414:	000006ce 	andeq	r0, r0, lr, asr #13
    1418:	00535805 	subseq	r5, r3, r5, lsl #16
    141c:	23020000 	movwcs	r0, #8192	; 0x2000
    1420:	0d8b0b18 	vstreq	d0, [fp, #96]	; 0x60
    1424:	5b050000 	blpl	14142c <__bss_end+0x13dedc>
    1428:	00000053 	andeq	r0, r0, r3, asr r0
    142c:	0b1c2302 	bleq	70a03c <__bss_end+0x706aec>
    1430:	000006bd 			; <UNDEFINED> instruction: 0x000006bd
    1434:	00535c05 	subseq	r5, r3, r5, lsl #24
    1438:	23020000 	movwcs	r0, #8192	; 0x2000
    143c:	7f090020 	svcvc	0x00090020
    1440:	c400000d 	strgt	r0, [r0], #-13
    1444:	0f806205 	svceq	0x00806205
    1448:	a40b0000 	strge	r0, [fp], #-0
    144c:	05000008 	streq	r0, [r0, #-8]
    1450:	000f8063 	andeq	r8, pc, r3, rrx
    1454:	00230200 	eoreq	r0, r3, r0, lsl #4
    1458:	000e260b 	andeq	r2, lr, fp, lsl #12
    145c:	26640500 	strbtcs	r0, [r4], -r0, lsl #10
    1460:	0200000b 	andeq	r0, r0, #11
    1464:	9b0b0423 	blls	2c24f8 <__bss_end+0x2befa8>
    1468:	05000004 	streq	r0, [r0, #-4]
    146c:	00005365 	andeq	r5, r0, r5, ror #6
    1470:	08230200 	stmdaeq	r3!, {r9}
    1474:	0009950b 	andeq	r9, r9, fp, lsl #10
    1478:	53660500 	cmnpl	r6, #0
    147c:	02000000 	andeq	r0, r0, #0
    1480:	cf0b0c23 	svcgt	0x000b0c23
    1484:	0500000b 	streq	r0, [r0, #-11]
    1488:	00005367 	andeq	r5, r0, r7, ror #6
    148c:	10230200 	eorne	r0, r3, r0, lsl #4
    1490:	0003ad0b 	andeq	sl, r3, fp, lsl #26
    1494:	53680500 	cmnpl	r8, #0
    1498:	02000000 	andeq	r0, r0, #0
    149c:	120b1423 	andne	r1, fp, #587202560	; 0x23000000
    14a0:	05000006 	streq	r0, [r0, #-6]
    14a4:	00005369 	andeq	r5, r0, r9, ror #6
    14a8:	18230200 	stmdane	r3!, {r9}
    14ac:	0003f60b 	andeq	pc, r3, fp, lsl #12
    14b0:	886a0500 	stmdahi	sl!, {r8, sl}^
    14b4:	0200000f 	andeq	r0, r0, #15
    14b8:	330b1c23 	movwcc	r1, #48163	; 0xbc23
    14bc:	05000006 	streq	r0, [r0, #-6]
    14c0:	000c056b 	andeq	r0, ip, fp, ror #10
    14c4:	54230200 	strtpl	r0, [r3], #-512	; 0x200
    14c8:	0008160b 	andeq	r1, r8, fp, lsl #12
    14cc:	2e6c0500 	cdpcs	5, 6, cr0, cr12, cr0, {0}
    14d0:	0200000c 	andeq	r0, r0, #12
    14d4:	a00b5c23 	andge	r5, fp, r3, lsr #24
    14d8:	0500001e 	streq	r0, [r0, #-30]
    14dc:	000d0d6d 	andeq	r0, sp, sp, ror #26
    14e0:	98230300 	stmdals	r3!, {r8, r9}
    14e4:	04540b01 	ldrbeq	r0, [r4], #-2817	; 0xb01
    14e8:	6e050000 	cdpvs	0, 0, cr0, cr5, cr0, {0}
    14ec:	00000e3f 	andeq	r0, r0, pc, lsr lr
    14f0:	01a02303 	lsleq	r2, r3, #6
    14f4:	86041000 	strhi	r1, [r4], -r0
    14f8:	1400000f 	strne	r0, [r0], #-15
    14fc:	00530e04 	subseq	r0, r3, r4, lsl #28
    1500:	0f980000 	svceq	0x00980000
    1504:	5e0f0000 	cdppl	0, 0, cr0, cr15, cr0, {0}
    1508:	0d000000 	stceq	0, cr0, [r0, #-0]
    150c:	9e041000 	cdpls	0, 0, cr1, cr4, cr0, {0}
    1510:	1500000f 	strne	r0, [r0, #-15]
    1514:	00004c01 	andeq	r4, r0, r1, lsl #24
    1518:	47011600 	strmi	r1, [r1, -r0, lsl #12]
    151c:	01000008 	tsteq	r0, r8
    1520:	004c0133 	subeq	r0, ip, r3, lsr r1
    1524:	00dc0000 	sbcseq	r0, ip, r0
    1528:	02140000 	andseq	r0, r4, #0
    152c:	00640000 	rsbeq	r0, r4, r0
    1530:	01170000 	tsteq	r7, r0
    1534:	00000a60 	andeq	r0, r0, r0, ror #20
    1538:	14017d01 	strne	r7, [r1], #-3329	; 0xd01
    153c:	80000002 	andhi	r0, r0, r2
    1540:	84000003 	strhi	r0, [r0], #-3
    1544:	3d000000 	stccc	0, cr0, [r0, #-0]
    1548:	18000010 	stmdane	r0, {r4}
    154c:	00000b45 	andeq	r0, r0, r5, asr #22
    1550:	0bff7f01 	bleq	fffe115c <__bss_end+0xfffddc0c>
    1554:	00a40000 	adceq	r0, r4, r0
    1558:	10180000 	andsne	r0, r8, r0
    155c:	01000009 	tsteq	r0, r9
    1560:	00005e80 	andeq	r5, r0, r0, lsl #29
    1564:	0000cd00 	andeq	ip, r0, r0, lsl #26
    1568:	03a21900 			; <UNDEFINED> instruction: 0x03a21900
    156c:	81010000 	mrshi	r0, (UNDEF: 1)
    1570:	0000005e 	andeq	r0, r0, lr, asr r0
    1574:	09431900 	stmdbeq	r3, {r8, fp, ip}^
    1578:	82010000 	andhi	r0, r1, #0
    157c:	0000005e 	andeq	r0, r0, lr, asr r0
    1580:	04d51900 	ldrbeq	r1, [r5], #2304	; 0x900
    1584:	83010000 	movwhi	r0, #4096	; 0x1000
    1588:	0000005e 	andeq	r0, r0, lr, asr r0
    158c:	0ae91900 	beq	ffa47994 <__bss_end+0xffa44444>
    1590:	84010000 	strhi	r0, [r1], #-0
    1594:	0000005e 	andeq	r0, r0, lr, asr r0
    1598:	0af61900 	beq	ffd879a0 <__bss_end+0xffd84450>
    159c:	85010000 	strhi	r0, [r1, #-0]
    15a0:	0000005e 	andeq	r0, r0, lr, asr r0
    15a4:	05f51900 	ldrbeq	r1, [r5, #2304]!	; 0x900
    15a8:	86010000 	strhi	r0, [r1], -r0
    15ac:	0000005e 	andeq	r0, r0, lr, asr r0
    15b0:	d91a0000 	ldmdble	sl, {}	; <UNPREDICTABLE>
    15b4:	01000007 	tsteq	r0, r7
    15b8:	00004c0f 	andeq	r4, r0, pc, lsl #24
    15bc:	082a1a00 	stmdaeq	sl!, {r9, fp, ip}
    15c0:	0f010000 	svceq	0x00010000
    15c4:	0000004c 	andeq	r0, r0, ip, asr #32
    15c8:	000da21a 	andeq	sl, sp, sl, lsl r2
    15cc:	5e100100 	mufpls	f0, f0, f0
    15d0:	1b000000 	blne	15d8 <disable_cache_invalidate+0x10>
    15d4:	00000b9d 	muleq	r0, sp, fp
    15d8:	0dd41101 	ldfeqe	f1, [r4, #4]
    15dc:	03050000 	movweq	r0, #20480	; 0x5000
    15e0:	00003164 	andeq	r3, r0, r4, ror #2
    15e4:	000f2e19 	andeq	r2, pc, r9, lsl lr	; <UNPREDICTABLE>
    15e8:	5e120100 	mufpls	f0, f2, f0
    15ec:	00000000 	andeq	r0, r0, r0
    15f0:	000ba41c 	andeq	sl, fp, ip, lsl r4
    15f4:	c9060100 	stmdbgt	r6, {r8}
    15f8:	0100000e 	tsteq	r0, lr
    15fc:	33700305 	cmncc	r0, #335544320	; 0x14000000
    1600:	c21d0000 	andsgt	r0, sp, #0
    1604:	01000006 	tsteq	r0, r6
    1608:	00109a08 	andseq	r9, r0, r8, lsl #20
    160c:	10010100 	andne	r0, r1, r0, lsl #2
    1610:	000dcd04 	andeq	ip, sp, r4, lsl #26
    1614:	05041d00 	streq	r1, [r4, #-3328]	; 0xd00
    1618:	09010000 	stmdbeq	r1, {}	; <UNPREDICTABLE>
    161c:	0000109a 	muleq	r0, sl, r0
    1620:	4e1c0101 	mufmie	f0, f4, f1
    1624:	01000009 	tsteq	r0, r9
    1628:	000f980e 	andeq	r9, pc, lr, lsl #16
    162c:	03050100 	movweq	r0, #20736	; 0x5100
    1630:	00003434 	andeq	r3, r0, r4, lsr r4
    1634:	0003dd00 	andeq	sp, r3, r0, lsl #26
    1638:	82000200 	andhi	r0, r0, #0
    163c:	04000003 	streq	r0, [r0], #-3
    1640:	00005401 	andeq	r5, r0, r1, lsl #8
    1644:	0e4b0100 	dvfeqe	f0, f3, f0
    1648:	014f0000 	mrseq	r0, SPSR
    164c:	03800000 	orreq	r0, r0, #0
    1650:	06f80000 	ldrbteq	r0, [r8], r0
    1654:	04160000 	ldreq	r0, [r6], #-0
    1658:	01020000 	mrseq	r0, (UNDEF: 2)
    165c:	00008f06 	andeq	r8, r0, r6, lsl #30
    1660:	08010200 	stmdaeq	r1, {r9}
    1664:	0000008d 	andeq	r0, r0, sp, lsl #1
    1668:	d6050202 	strle	r0, [r5], -r2, lsl #4
    166c:	02000001 	andeq	r0, r0, #1
    1670:	00b10702 	adcseq	r0, r1, r2, lsl #14
    1674:	04030000 	streq	r0, [r3], #-0
    1678:	746e6905 	strbtvc	r6, [lr], #-2309	; 0x905
    167c:	08360400 	ldmdaeq	r6!, {sl}
    1680:	13030000 	movwne	r0, #12288	; 0x3000
    1684:	00000053 	andeq	r0, r0, r3, asr r0
    1688:	32070402 	andcc	r0, r7, #33554432	; 0x2000000
    168c:	02000001 	andeq	r0, r0, #1
    1690:	01b10508 			; <UNDEFINED> instruction: 0x01b10508
    1694:	08020000 	stmdaeq	r2, {}	; <UNPREDICTABLE>
    1698:	00012807 	andeq	r2, r1, r7, lsl #16
    169c:	0f070500 	svceq	0x00070500
    16a0:	02040000 	andeq	r0, r4, #0
    16a4:	0000ca1d 	andeq	ip, r0, sp, lsl sl
    16a8:	0e030600 	cfmadd32eq	mvax0, mvfx0, mvfx3, mvfx0
    16ac:	1f020000 	svcne	0x00020000
    16b0:	00000048 	andeq	r0, r0, r8, asr #32
    16b4:	02180804 	andseq	r0, r8, #262144	; 0x40000
    16b8:	ab060023 	blge	18174c <__bss_end+0x17e1fc>
    16bc:	0200000e 	andeq	r0, r0, #14
    16c0:	00004820 	andeq	r4, r0, r0, lsr #16
    16c4:	10080400 	andne	r0, r8, r0, lsl #8
    16c8:	06002302 	streq	r2, [r0], -r2, lsl #6
    16cc:	00000dac 	andeq	r0, r0, ip, lsr #27
    16d0:	00482102 	subeq	r2, r8, r2, lsl #2
    16d4:	02040000 	andeq	r0, r4, #0
    16d8:	0023020e 	eoreq	r0, r3, lr, lsl #4
    16dc:	000ca406 	andeq	sl, ip, r6, lsl #8
    16e0:	48220200 	stmdami	r2!, {r9}
    16e4:	04000000 	streq	r0, [r0], #-0
    16e8:	2302010d 	movwcs	r0, #8461	; 0x210d
    16ec:	0f4b0600 	svceq	0x004b0600
    16f0:	23020000 	movwcs	r0, #8192	; 0x2000
    16f4:	00000048 	andeq	r0, r0, r8, asr #32
    16f8:	02000104 	andeq	r0, r0, #1
    16fc:	07000023 	streq	r0, [r0, -r3, lsr #32]
    1700:	e91b0204 	ldmdb	fp, {r2, r9}
    1704:	08000000 	stmdaeq	r0, {}	; <UNPREDICTABLE>
    1708:	000003dc 	ldrdeq	r0, [r0], -ip
    170c:	00481c02 	subeq	r1, r8, r2, lsl #24
    1710:	5f080000 	svcpl	0x00080000
    1714:	02000008 	andeq	r0, r0, #8
    1718:	00006826 	andeq	r6, r0, r6, lsr #16
    171c:	35040000 	strcc	r0, [r4, #-0]
    1720:	0200000f 	andeq	r0, r0, #15
    1724:	0000ca27 	andeq	ip, r0, r7, lsr #20
    1728:	00480900 	subeq	r0, r8, r0, lsl #18
    172c:	310a0000 	mrscc	r0, (UNDEF: 10)
    1730:	04000000 	streq	r0, [r0], #-0
    1734:	01668904 	cmneq	r6, r4, lsl #18
    1738:	1e0b0000 	cdpne	0, 0, cr0, cr11, cr0, {0}
    173c:	00000000 	andeq	r0, r0, r0
    1740:	0000a40b 	andeq	sl, r0, fp, lsl #8
    1744:	470b0100 	strmi	r0, [fp, -r0, lsl #2]
    1748:	02000000 	andeq	r0, r0, #0
    174c:	0000810b 	andeq	r8, r0, fp, lsl #2
    1750:	bf0b0300 	svclt	0x000b0300
    1754:	04000001 	streq	r0, [r0], #-1
    1758:	00011c0b 	andeq	r1, r1, fp, lsl #24
    175c:	040b0500 	streq	r0, [fp], #-1280	; 0x500
    1760:	06000001 	streq	r0, [r0], -r1
    1764:	00013f0b 	andeq	r3, r1, fp, lsl #30
    1768:	120b0700 	andne	r0, fp, #0
    176c:	08000000 	stmdaeq	r0, {}	; <UNPREDICTABLE>
    1770:	0000760b 	andeq	r7, r0, fp, lsl #12
    1774:	110b0900 	tstne	fp, r0, lsl #18
    1778:	0a000001 	beq	1784 <set_serial_clk+0x2c>
    177c:	0001cb0b 	andeq	ip, r1, fp, lsl #22
    1780:	2b0b0b00 	blcs	2c4388 <__bss_end+0x2c0e38>
    1784:	0c000000 	stceq	0, cr0, [r0], {-0}
    1788:	0001a30b 	andeq	sl, r1, fp, lsl #6
    178c:	500b0d00 	andpl	r0, fp, r0, lsl #26
    1790:	0e000002 	cdpeq	0, 0, cr0, cr0, cr2, {0}
    1794:	0000390b 	andeq	r3, r0, fp, lsl #18
    1798:	02000f00 	andeq	r0, r0, #0
    179c:	00960801 	addseq	r0, r6, r1, lsl #16
    17a0:	04020000 	streq	r0, [r2], #-0
    17a4:	00012d07 	andeq	r2, r1, r7, lsl #26
    17a8:	18010c00 	stmdane	r1, {sl, fp}
    17ac:	0100000f 	tsteq	r0, pc
    17b0:	0380010b 	orreq	r0, r0, #-1073741822	; 0xc0000002
    17b4:	03a00000 	moveq	r0, #0
    17b8:	01120000 	tsteq	r2, r0
    17bc:	019c0000 	orrseq	r0, ip, r0
    17c0:	c10d0000 	mrsgt	r0, (UNDEF: 13)
    17c4:	0100000d 	tsteq	r0, sp
    17c8:	0000f40e 	andeq	pc, r0, lr, lsl #8
    17cc:	74910200 	ldrvc	r0, [r1], #512	; 0x200
    17d0:	21010e00 	tstcs	r1, r0, lsl #28
    17d4:	0100000e 	tsteq	r0, lr
    17d8:	03a00119 	moveq	r0, #1073741830	; 0x40000006
    17dc:	03a40000 			; <UNDEFINED> instruction: 0x03a40000
    17e0:	7d020000 	stcvc	0, cr0, [r2, #-0]
    17e4:	da010e00 	ble	44fec <__bss_end+0x41a9c>
    17e8:	0100000e 	tsteq	r0, lr
    17ec:	03a40129 			; <UNDEFINED> instruction: 0x03a40129
    17f0:	03a80000 			; <UNDEFINED> instruction: 0x03a80000
    17f4:	7d020000 	stcvc	0, cr0, [r2, #-0]
    17f8:	80010e00 	andhi	r0, r1, r0, lsl #28
    17fc:	0100000e 	tsteq	r0, lr
    1800:	03a80138 			; <UNDEFINED> instruction: 0x03a80138
    1804:	03cc0000 	biceq	r0, ip, #0
    1808:	7d020000 	stcvc	0, cr0, [r2, #-0]
    180c:	0b010e00 	bleq	45014 <__bss_end+0x41ac4>
    1810:	0100000e 	tsteq	r0, lr
    1814:	03cc0141 	biceq	r0, ip, #1073741840	; 0x40000010
    1818:	03f00000 	mvnseq	r0, #0
    181c:	7d020000 	stcvc	0, cr0, [r2, #-0]
    1820:	2f010c00 	svccs	0x00010c00
    1824:	0100000e 	tsteq	r0, lr
    1828:	03f0014a 	mvnseq	r0, #-2147483630	; 0x80000012
    182c:	04840000 	streq	r0, [r4], #0
    1830:	01320000 	teqeq	r2, r0
    1834:	02130000 	andseq	r0, r3, #0
    1838:	690f0000 	stmdbvs	pc, {}	; <UNPREDICTABLE>
    183c:	414c0100 	mrsmi	r0, (UNDEF: 92)
    1840:	52000000 	andpl	r0, r0, #0
    1844:	00000001 	andeq	r0, r0, r1
    1848:	0ee9010e 	cdpeq	1, 14, cr0, cr9, cr14, {0}
    184c:	60010000 	andvs	r0, r1, r0
    1850:	00048401 	andeq	r8, r4, r1, lsl #8
    1854:	00048800 	andeq	r8, r4, r0, lsl #16
    1858:	007d0200 	rsbseq	r0, sp, r0, lsl #4
    185c:	0f25010c 	svceq	0x0025010c
    1860:	65010000 	strvs	r0, [r1, #-0]
    1864:	00048801 	andeq	r8, r4, r1, lsl #16
    1868:	00051c00 	andeq	r1, r5, r0, lsl #24
    186c:	00016600 	andeq	r6, r1, r0, lsl #12
    1870:	00025000 	andeq	r5, r2, r0
    1874:	61761000 	cmnvs	r6, r0
    1878:	6501006c 	strvs	r0, [r1, #-108]	; 0x6c
    187c:	000000f4 	strdeq	r0, [r0], -r4
    1880:	00000192 	muleq	r0, r2, r1
    1884:	90011100 	andls	r1, r1, r0, lsl #2
    1888:	0100000e 	tsteq	r0, lr
    188c:	00480179 	subeq	r0, r8, r9, ror r1
    1890:	051c0000 	ldreq	r0, [ip, #-0]
    1894:	05700000 	ldrbeq	r0, [r0, #-0]!
    1898:	01b10000 			; <UNDEFINED> instruction: 0x01b10000
    189c:	027d0000 	rsbseq	r0, sp, #0
    18a0:	760f0000 	strvc	r0, [pc], -r0
    18a4:	01006c61 	tsteq	r0, r1, ror #24
    18a8:	0000417b 	andeq	r4, r0, fp, ror r1
    18ac:	0001d100 	andeq	sp, r1, r0, lsl #2
    18b0:	010c0000 	mrseq	r0, (UNDEF: 12)
    18b4:	00000eb3 			; <UNDEFINED> instruction: 0x00000eb3
    18b8:	70018901 	andvc	r8, r1, r1, lsl #18
    18bc:	e8000005 	stmda	r0, {r0, r2}
    18c0:	fb000005 	blx	18de <serial_puts_nommu+0x16>
    18c4:	b3000001 	movwlt	r0, #1
    18c8:	0f000002 	svceq	0x00000002
    18cc:	8b010069 	blhi	41a78 <__bss_end+0x3e528>
    18d0:	00000041 	andeq	r0, r0, r1, asr #32
    18d4:	0000021b 	andeq	r0, r0, fp, lsl r2
    18d8:	6c61760f 	stclvs	6, cr7, [r1], #-60	; 0xffffffc4
    18dc:	418c0100 	orrmi	r0, ip, r0, lsl #2
    18e0:	3a000000 	bcc	18e8 <serial_puts_nommu+0x20>
    18e4:	00000002 	andeq	r0, r0, r2
    18e8:	0de5010c 	stfeqe	f0, [r5, #48]!	; 0x30
    18ec:	9f010000 	svcls	0x00010000
    18f0:	0005e801 	andeq	lr, r5, r1, lsl #16
    18f4:	00067c00 	andeq	r7, r6, r0, lsl #24
    18f8:	00026400 	andeq	r6, r2, r0, lsl #8
    18fc:	0002dc00 	andeq	sp, r2, r0, lsl #24
    1900:	61761000 	cmnvs	r6, r0
    1904:	9f01006c 	svcls	0x0001006c
    1908:	000000f4 	strdeq	r0, [r0], -r4
    190c:	00000290 	muleq	r0, r0, r2
    1910:	78010e00 	stmdavc	r1, {r9, sl, fp}
    1914:	0100000e 	tsteq	r0, lr
    1918:	067c01f7 			; <UNDEFINED> instruction: 0x067c01f7
    191c:	06940000 	ldreq	r0, [r4], r0
    1920:	7d020000 	stcvc	0, cr0, [r2, #-0]
    1924:	b4011200 	strlt	r1, [r1], #-512	; 0x200
    1928:	0100000d 	tsteq	r0, sp
    192c:	069401ff 			; <UNDEFINED> instruction: 0x069401ff
    1930:	06ac0000 	strteq	r0, [ip], r0
    1934:	7d020000 	stcvc	0, cr0, [r2, #-0]
    1938:	00031700 	andeq	r1, r3, r0, lsl #14
    193c:	0ec31300 	cdpeq	3, 12, cr1, cr3, cr0, {0}
    1940:	01010000 	mrseq	r0, (UNDEF: 1)
    1944:	00004801 	andeq	r4, r0, r1, lsl #16
    1948:	00520100 	subseq	r0, r2, r0, lsl #2
    194c:	0e9f0114 	mrceq	1, 4, r0, cr15, cr4, {0}
    1950:	0b010000 	bleq	41958 <__bss_end+0x3e408>
    1954:	06ac0101 	strteq	r0, [ip], r1, lsl #2
    1958:	06c40000 	strbeq	r0, [r4], r0
    195c:	7d020000 	stcvc	0, cr0, [r2, #-0]
    1960:	00033f00 	andeq	r3, r3, r0, lsl #30
    1964:	0ec31300 	cdpeq	3, 12, cr1, cr3, cr0, {0}
    1968:	0d010000 	stceq	0, cr0, [r1, #-0]
    196c:	00004801 	andeq	r4, r0, r1, lsl #16
    1970:	00520100 	subseq	r0, r2, r0, lsl #2
    1974:	0dfb0115 	ldfeqe	f0, [fp, #84]!	; 0x54
    1978:	1a010000 	bne	41980 <__bss_end+0x3e430>
    197c:	06c40101 	strbeq	r0, [r4], r1, lsl #2
    1980:	06f80000 	ldrbteq	r0, [r8], r0
    1984:	02af0000 	adceq	r0, pc, #0
    1988:	037a0000 	cmneq	sl, #0
    198c:	6e160000 	cdpvs	0, 1, cr0, cr6, cr0, {0}
    1990:	01006d75 	tsteq	r0, r5, ror sp
    1994:	0041011a 	subeq	r0, r1, sl, lsl r1
    1998:	02cf0000 	sbceq	r0, pc, #0
    199c:	c3170000 	tstgt	r7, #0
    19a0:	0100000e 	tsteq	r0, lr
    19a4:	0048011c 	subeq	r0, r8, ip, lsl r1
    19a8:	02e20000 	rsceq	r0, r2, #0
    19ac:	0d000000 	stceq	0, cr0, [r0, #-0]
    19b0:	00000dcb 	andeq	r0, r0, fp, asr #27
    19b4:	038b3401 	orreq	r3, fp, #16777216	; 0x1000000
    19b8:	03050000 	movweq	r0, #20480	; 0x5000
    19bc:	00003168 	andeq	r3, r0, r8, ror #2
    19c0:	03910418 	orrseq	r0, r1, #402653184	; 0x18000000
    19c4:	e9090000 	stmdb	r9, {}	; <UNPREDICTABLE>
    19c8:	0d000000 	stceq	0, cr0, [r0, #-0]
    19cc:	00000dd6 	ldrdeq	r0, [r0], -r6
    19d0:	00e93501 	rsceq	r3, r9, r1, lsl #10
    19d4:	03050000 	movweq	r0, #20480	; 0x5000
    19d8:	00003170 	andeq	r3, r0, r0, ror r1
    19dc:	000ef90d 	andeq	pc, lr, sp, lsl #18
    19e0:	8b360100 	blhi	d81de8 <__bss_end+0xd7e898>
    19e4:	05000003 	streq	r0, [r0, #-3]
    19e8:	00316c03 	eorseq	r6, r1, r3, lsl #24
    19ec:	0ec80d00 	cdpeq	13, 12, cr0, cr8, cr0, {0}
    19f0:	37010000 	strcc	r0, [r1, -r0]
    19f4:	000000e9 	andeq	r0, r0, r9, ror #1
    19f8:	31740305 	cmncc	r4, r5, lsl #6
    19fc:	40190000 	andsmi	r0, r9, r0
    1a00:	0100000e 	tsteq	r0, lr
    1a04:	0003db09 	andeq	sp, r3, r9, lsl #22
    1a08:	03050100 	movweq	r0, #20736	; 0x5100
    1a0c:	00003178 	andeq	r3, r0, r8, ror r1
    1a10:	00004109 	andeq	r4, r0, r9, lsl #2
    1a14:	04f60000 	ldrbteq	r0, [r6], #0
    1a18:	00020000 	andeq	r0, r2, r0
    1a1c:	00000514 	andeq	r0, r0, r4, lsl r5
    1a20:	00540104 	subseq	r0, r4, r4, lsl #2
    1a24:	64010000 	strvs	r0, [r1], #-0
    1a28:	4f000010 	svcmi	0x00000010
    1a2c:	f8000001 			; <UNDEFINED> instruction: 0xf8000001
    1a30:	f8000006 			; <UNDEFINED> instruction: 0xf8000006
    1a34:	63000008 	movwvs	r0, #8
    1a38:	02000005 	andeq	r0, r0, #5
    1a3c:	008f0601 	addeq	r0, pc, r1, lsl #12
    1a40:	01020000 	mrseq	r0, (UNDEF: 2)
    1a44:	00008d08 	andeq	r8, r0, r8, lsl #26
    1a48:	05020200 	streq	r0, [r2, #-512]	; 0x200
    1a4c:	000001d6 	ldrdeq	r0, [r0], -r6
    1a50:	b1070202 	tstlt	r7, r2, lsl #4
    1a54:	03000000 	movweq	r0, #0
    1a58:	00001032 	andeq	r1, r0, r2, lsr r0
    1a5c:	004c1202 	subeq	r1, ip, r2, lsl #4
    1a60:	04040000 	streq	r0, [r4], #-0
    1a64:	746e6905 	strbtvc	r6, [lr], #-2309	; 0x905
    1a68:	08360300 	ldmdaeq	r6!, {r8, r9}
    1a6c:	13020000 	movwne	r0, #8192	; 0x2000
    1a70:	0000005e 	andeq	r0, r0, lr, asr r0
    1a74:	32070402 	andcc	r0, r7, #33554432	; 0x2000000
    1a78:	02000001 	andeq	r0, r0, #1
    1a7c:	01b10508 			; <UNDEFINED> instruction: 0x01b10508
    1a80:	08020000 	stmdaeq	r2, {}	; <UNPREDICTABLE>
    1a84:	00012807 	andeq	r2, r1, r7, lsl #16
    1a88:	10e60500 	rscne	r0, r6, r0, lsl #10
    1a8c:	03040000 	movweq	r0, #16384	; 0x4000
    1a90:	00009814 	andeq	r9, r0, r4, lsl r8
    1a94:	0ff70600 	svceq	0x00f70600
    1a98:	06010000 	streq	r0, [r1], -r0
    1a9c:	00001109 	andeq	r1, r0, r9, lsl #2
    1aa0:	10930602 	addsne	r0, r3, r2, lsl #12
    1aa4:	06030000 	streq	r0, [r3], -r0
    1aa8:	00001014 	andeq	r1, r0, r4, lsl r0
    1aac:	31050005 	tstcc	r5, r5
    1ab0:	04000000 	streq	r0, [r0], #-0
    1ab4:	01058904 	tsteq	r5, r4, lsl #18
    1ab8:	1e060000 	cdpne	0, 0, cr0, cr6, cr0, {0}
    1abc:	00000000 	andeq	r0, r0, r0
    1ac0:	0000a406 	andeq	sl, r0, r6, lsl #8
    1ac4:	47060100 	strmi	r0, [r6, -r0, lsl #2]
    1ac8:	02000000 	andeq	r0, r0, #0
    1acc:	00008106 	andeq	r8, r0, r6, lsl #2
    1ad0:	bf060300 	svclt	0x00060300
    1ad4:	04000001 	streq	r0, [r0], #-1
    1ad8:	00011c06 	andeq	r1, r1, r6, lsl #24
    1adc:	04060500 	streq	r0, [r6], #-1280	; 0x500
    1ae0:	06000001 	streq	r0, [r0], -r1
    1ae4:	00013f06 	andeq	r3, r1, r6, lsl #30
    1ae8:	12060700 	andne	r0, r6, #0
    1aec:	08000000 	stmdaeq	r0, {}	; <UNPREDICTABLE>
    1af0:	00007606 	andeq	r7, r0, r6, lsl #12
    1af4:	11060900 	tstne	r6, r0, lsl #18
    1af8:	0a000001 	beq	1b04 <serial_puts+0x4c>
    1afc:	0001cb06 	andeq	ip, r1, r6, lsl #22
    1b00:	2b060b00 	blcs	184708 <__bss_end+0x1811b8>
    1b04:	0c000000 	stceq	0, cr0, [r0], {-0}
    1b08:	0001a306 	andeq	sl, r1, r6, lsl #6
    1b0c:	50060d00 	andpl	r0, r6, r0, lsl #26
    1b10:	0e000002 	cdpeq	0, 0, cr0, cr0, cr2, {0}
    1b14:	00003906 	andeq	r3, r0, r6, lsl #18
    1b18:	02000f00 	andeq	r0, r0, #0
    1b1c:	00960801 	addseq	r0, r6, r1, lsl #16
    1b20:	04020000 	streq	r0, [r2], #-0
    1b24:	00012d07 	andeq	r2, r1, r7, lsl #26
    1b28:	a0010700 	andge	r0, r1, r0, lsl #14
    1b2c:	01000010 	tsteq	r0, r0, lsl r0
    1b30:	00530141 	subseq	r0, r3, r1, asr #2
    1b34:	31010000 	mrscc	r0, (UNDEF: 1)
    1b38:	08000001 	stmdaeq	r0, {r0}
    1b3c:	00001367 	andeq	r1, r0, r7, ror #6
    1b40:	00534301 	subseq	r4, r3, r1, lsl #6
    1b44:	09000000 	stmdbeq	r0, {}	; <UNPREDICTABLE>
    1b48:	0010af01 	andseq	sl, r0, r1, lsl #30
    1b4c:	010c0100 	mrseq	r0, (UNDEF: 28)
    1b50:	00016101 	andeq	r6, r1, r1, lsl #2
    1b54:	100b0a00 	andne	r0, fp, r0, lsl #20
    1b58:	0c010000 	stceq	0, cr0, [r1], {-0}
    1b5c:	00000053 	andeq	r0, r0, r3, asr r0
    1b60:	000fb50a 	andeq	fp, pc, sl, lsl #10
    1b64:	530c0100 	movwpl	r0, #49408	; 0xc100
    1b68:	08000000 	stmdaeq	r0, {}	; <UNPREDICTABLE>
    1b6c:	00001367 	andeq	r1, r0, r7, ror #6
    1b70:	00530f01 	subseq	r0, r3, r1, lsl #30
    1b74:	0b000000 	bleq	1b7c <serial_gets+0x14>
    1b78:	000010f5 	strdeq	r1, [r0], -r5
    1b7c:	5301b501 	movwpl	fp, #5377	; 0x1501
    1b80:	01000000 	mrseq	r0, (UNDEF: 0)
    1b84:	00000189 	andeq	r0, r0, r9, lsl #3
    1b88:	00105f0a 	andseq	r5, r0, sl, lsl #30
    1b8c:	73b50100 			; <UNDEFINED> instruction: 0x73b50100
    1b90:	08000000 	stmdaeq	r0, {}	; <UNPREDICTABLE>
    1b94:	00000fd2 	ldrdeq	r0, [r0], -r2
    1b98:	004cb701 	subeq	fp, ip, r1, lsl #14
    1b9c:	0c000000 	stceq	0, cr0, [r0], {-0}
    1ba0:	00000131 	andeq	r0, r0, r1, lsr r1
    1ba4:	000006f8 	strdeq	r0, [r0], -r8
    1ba8:	0000072c 	andeq	r0, r0, ip, lsr #14
    1bac:	b7007d02 	strlt	r7, [r0, -r2, lsl #26]
    1bb0:	0d000001 	stceq	0, cr0, [r0, #-4]
    1bb4:	0000013f 	andeq	r0, r0, pc, lsr r1
    1bb8:	00000300 	andeq	r0, r0, r0, lsl #6
    1bbc:	00014a0e 	andeq	r4, r1, lr, lsl #20
    1bc0:	0f510100 	svceq	0x00510100
    1bc4:	00000155 	andeq	r0, r0, r5, asr r1
    1bc8:	00000313 	andeq	r0, r0, r3, lsl r3
    1bcc:	1f011000 	svcne	0x00011000
    1bd0:	01000010 	tsteq	r0, r0, lsl r0
    1bd4:	072c012c 	streq	r0, [ip, -ip, lsr #2]!
    1bd8:	07480000 	strbeq	r0, [r8, -r0]
    1bdc:	7d020000 	stcvc	0, cr0, [r2, #-0]
    1be0:	7d011000 	stcvc	0, cr1, [r1, #-0]
    1be4:	0100000f 	tsteq	r0, pc
    1be8:	07480136 	smlaldxeq	r0, r8, r6, r1
    1bec:	076c0000 	strbeq	r0, [ip, -r0]!
    1bf0:	7d020000 	stcvc	0, cr0, [r2, #-0]
    1bf4:	01130c00 	tsteq	r3, r0, lsl #24
    1bf8:	076c0000 	strbeq	r0, [ip, -r0]!
    1bfc:	07740000 	ldrbeq	r0, [r4, -r0]!
    1c00:	7d020000 	stcvc	0, cr0, [r2, #-0]
    1c04:	0001fb00 	andeq	pc, r1, r0, lsl #22
    1c08:	01251100 	teqeq	r5, r0, lsl #2
    1c0c:	50010000 	andpl	r0, r1, r0
    1c10:	c4011200 	strgt	r1, [r1], #-512	; 0x200
    1c14:	0100000f 	tsteq	r0, pc
    1c18:	07740149 	ldrbeq	r0, [r4, -r9, asr #2]!
    1c1c:	07840000 	streq	r0, [r4, r0]
    1c20:	7d020000 	stcvc	0, cr0, [r2, #-0]
    1c24:	00022300 	andeq	r2, r2, r0, lsl #6
    1c28:	13671300 	cmnne	r7, #0
    1c2c:	4b010000 	blmi	41c34 <__bss_end+0x3e6e4>
    1c30:	00000053 	andeq	r0, r0, r3, asr r0
    1c34:	0000035c 	andeq	r0, r0, ip, asr r3
    1c38:	6a011400 	bvs	46c40 <__bss_end+0x436f0>
    1c3c:	0100000f 	tsteq	r0, pc
    1c40:	07840154 			; <UNDEFINED> instruction: 0x07840154
    1c44:	07b80000 	ldreq	r0, [r8, r0]!
    1c48:	038a0000 	orreq	r0, sl, #0
    1c4c:	02a50000 	adceq	r0, r5, #0
    1c50:	c8130000 	ldmdagt	r3, {}	; <UNPREDICTABLE>
    1c54:	01000006 	tsteq	r0, r6
    1c58:	00005356 	andeq	r5, r0, r6, asr r3
    1c5c:	0003aa00 	andeq	sl, r3, r0, lsl #20
    1c60:	6e651500 	cdpvs	5, 6, cr1, cr5, cr0, {0}
    1c64:	57010064 	strpl	r0, [r1, -r4, rrx]
    1c68:	00000053 	andeq	r0, r0, r3, asr r0
    1c6c:	000003be 			; <UNDEFINED> instruction: 0x000003be
    1c70:	00011316 	andeq	r1, r1, r6, lsl r3
    1c74:	00078800 	andeq	r8, r7, r0, lsl #16
    1c78:	00078c00 	andeq	r8, r7, r0, lsl #24
    1c7c:	815c0100 	cmphi	ip, r0, lsl #2
    1c80:	17000002 	strne	r0, [r0, -r2]
    1c84:	00000788 	andeq	r0, r0, r8, lsl #15
    1c88:	0000078c 	andeq	r0, r0, ip, lsl #15
    1c8c:	0001250f 	andeq	r2, r1, pc, lsl #10
    1c90:	0003d200 	andeq	sp, r3, r0, lsl #4
    1c94:	18000000 	stmdane	r0, {}	; <UNPREDICTABLE>
    1c98:	00000113 	andeq	r0, r0, r3, lsl r1
    1c9c:	0000078c 	andeq	r0, r0, ip, lsl #15
    1ca0:	00000790 	muleq	r0, r0, r7
    1ca4:	8c175d01 	ldchi	13, cr5, [r7], {1}
    1ca8:	90000007 	andls	r0, r0, r7
    1cac:	0f000007 	svceq	0x00000007
    1cb0:	00000125 	andeq	r0, r0, r5, lsr #2
    1cb4:	000003e5 	andeq	r0, r0, r5, ror #7
    1cb8:	14000000 	strne	r0, [r0], #-0
    1cbc:	000f9101 	andeq	r9, pc, r1, lsl #2
    1cc0:	01660100 	cmneq	r6, r0, lsl #2
    1cc4:	000007b8 			; <UNDEFINED> instruction: 0x000007b8
    1cc8:	00000840 	andeq	r0, r0, r0, asr #16
    1ccc:	000003f8 	strdeq	r0, [r0], -r8
    1cd0:	00000395 	muleq	r0, r5, r3
    1cd4:	00737519 	rsbseq	r7, r3, r9, lsl r5
    1cd8:	00536601 	subseq	r6, r3, r1, lsl #12
    1cdc:	04180000 	ldreq	r0, [r8], #-0
    1ce0:	04130000 	ldreq	r0, [r3], #-0
    1ce4:	01000010 	tsteq	r0, r0, lsl r0
    1ce8:	00005368 	andeq	r5, r0, r8, ror #6
    1cec:	00044100 	andeq	r4, r4, r0, lsl #2
    1cf0:	75631500 	strbvc	r1, [r3, #-1280]!	; 0x500
    1cf4:	69010072 	stmdbvs	r1, {r1, r4, r5, r6}
    1cf8:	00000053 	andeq	r0, r0, r3, asr r0
    1cfc:	00000471 	andeq	r0, r0, r1, ror r4
    1d00:	000f6313 	andeq	r6, pc, r3, lsl r3	; <UNPREDICTABLE>
    1d04:	536a0100 	cmnpl	sl, #0
    1d08:	a7000000 	strge	r0, [r0, -r0]
    1d0c:	13000004 	movwne	r0, #4
    1d10:	00000f54 	andeq	r0, r0, r4, asr pc
    1d14:	00536b01 	subseq	r6, r3, r1, lsl #22
    1d18:	04d20000 	ldrbeq	r0, [r2], #0
    1d1c:	6f1a0000 	svcvs	0x001a0000
    1d20:	01007475 	tsteq	r0, r5, ror r4
    1d24:	0007d09f 	muleq	r7, pc, r0	; <UNPREDICTABLE>
    1d28:	01131600 	tsteq	r3, r0, lsl #12
    1d2c:	07e40000 	strbeq	r0, [r4, r0]!
    1d30:	07e80000 	strbeq	r0, [r8, r0]!
    1d34:	76010000 	strvc	r0, [r1], -r0
    1d38:	00000338 	andeq	r0, r0, r8, lsr r3
    1d3c:	0007e417 	andeq	lr, r7, r7, lsl r4
    1d40:	0007e800 	andeq	lr, r7, r0, lsl #16
    1d44:	01251100 	teqeq	r5, r0, lsl #2
    1d48:	53010000 	movwpl	r0, #4096	; 0x1000
    1d4c:	31160000 	tstcc	r6, r0
    1d50:	08000001 	stmdaeq	r0, {r0}
    1d54:	28000008 	stmdacs	r0, {r3}
    1d58:	01000008 	tsteq	r0, r8
    1d5c:	0003717c 	andeq	r7, r3, ip, ror r1
    1d60:	014a0d00 	cmpeq	sl, r0, lsl #26
    1d64:	04fd0000 	ldrbteq	r0, [sp], #0
    1d68:	3f0d0000 	svccc	0x000d0000
    1d6c:	11000001 	tstne	r0, r1
    1d70:	17000005 	strne	r0, [r0, -r5]
    1d74:	00000808 	andeq	r0, r0, r8, lsl #16
    1d78:	00000828 	andeq	r0, r0, r8, lsr #16
    1d7c:	0001550f 	andeq	r5, r1, pc, lsl #10
    1d80:	00052500 	andeq	r2, r5, r0, lsl #10
    1d84:	18000000 	stmdane	r0, {}	; <UNPREDICTABLE>
    1d88:	00000113 	andeq	r0, r0, r3, lsl r1
    1d8c:	00000828 	andeq	r0, r0, r8, lsr #16
    1d90:	0000082c 	andeq	r0, r0, ip, lsr #16
    1d94:	28178001 	ldmdacs	r7, {r0, pc}
    1d98:	2c000008 	stccs	0, cr0, [r0], {8}
    1d9c:	0f000008 	svceq	0x00000008
    1da0:	00000125 	andeq	r0, r0, r5, lsr #2
    1da4:	00000549 	andeq	r0, r0, r9, asr #10
    1da8:	14000000 	strne	r0, [r0], #-0
    1dac:	00061a01 	andeq	r1, r6, r1, lsl #20
    1db0:	01a90100 			; <UNDEFINED> instruction: 0x01a90100
    1db4:	00000840 	andeq	r0, r0, r0, asr #16
    1db8:	00000874 	andeq	r0, r0, r4, ror r8
    1dbc:	0000055c 	andeq	r0, r0, ip, asr r5
    1dc0:	000003bd 			; <UNDEFINED> instruction: 0x000003bd
    1dc4:	00736d19 	rsbseq	r6, r3, r9, lsl sp
    1dc8:	0053a901 	subseq	sl, r3, r1, lsl #18
    1dcc:	057c0000 	ldrbeq	r0, [ip, #-0]!
    1dd0:	12000000 	andne	r0, r0, #0
    1dd4:	0010d301 	andseq	sp, r0, r1, lsl #6
    1dd8:	01cf0100 	biceq	r0, pc, r0, lsl #2
    1ddc:	00000874 	andeq	r0, r0, r4, ror r8
    1de0:	000008a0 	andeq	r0, r0, r0, lsr #17
    1de4:	01007d02 	tsteq	r0, r2, lsl #26
    1de8:	1b000004 	blne	1e00 <itoa.constprop.0+0xa8>
    1dec:	0000100b 	andeq	r1, r0, fp
    1df0:	0053cf01 	subseq	ip, r3, r1, lsl #30
    1df4:	05b20000 	ldreq	r0, [r2, #0]!
    1df8:	b51c0000 	ldrlt	r0, [ip, #-0]
    1dfc:	0100000f 	tsteq	r0, pc
    1e00:	000053cf 	andeq	r5, r0, pc, asr #7
    1e04:	13510100 	cmpne	r1, #0
    1e08:	00001367 	andeq	r1, r0, r7, ror #6
    1e0c:	0053d201 	subseq	sp, r3, r1, lsl #4
    1e10:	05c50000 	strbeq	r0, [r5]
    1e14:	12000000 	andne	r0, r0, #0
    1e18:	0010c101 	andseq	ip, r0, r1, lsl #2
    1e1c:	01ed0100 	mvneq	r0, r0, lsl #2
    1e20:	000008a0 	andeq	r0, r0, r0, lsr #17
    1e24:	000008cc 	andeq	r0, r0, ip, asr #17
    1e28:	4d007d02 	stcmi	13, cr7, [r0, #-8]
    1e2c:	1c000004 	stcne	0, cr0, [r0], {4}
    1e30:	0000105f 	andeq	r1, r0, pc, asr r0
    1e34:	0073ed01 	rsbseq	lr, r3, r1, lsl #26
    1e38:	50010000 	andpl	r0, r1, r0
    1e3c:	000fd213 	andeq	sp, pc, r3, lsl r2	; <UNPREDICTABLE>
    1e40:	53f00100 	mvnspl	r0, #0
    1e44:	0e000000 	cdpeq	0, 0, cr0, cr0, cr0, {0}
    1e48:	18000006 	stmdane	r0, {r1, r2}
    1e4c:	00000161 	andeq	r0, r0, r1, ror #2
    1e50:	000008a0 	andeq	r0, r0, r0, lsr #17
    1e54:	000008b4 			; <UNDEFINED> instruction: 0x000008b4
    1e58:	720ef101 	andvc	pc, lr, #1073741824	; 0x40000000
    1e5c:	01000001 	tsteq	r0, r1
    1e60:	1d000050 	stcne	0, cr0, [r0, #-320]	; 0xfffffec0
    1e64:	000fa301 	andeq	sl, pc, r1, lsl #6
    1e68:	01000100 	mrseq	r0, (UNDEF: 16)
    1e6c:	00004c01 	andeq	r4, r0, r1, lsl #24
    1e70:	0008cc00 	andeq	ip, r8, r0, lsl #24
    1e74:	0008f800 	andeq	pc, r8, r0, lsl #16
    1e78:	007d0200 	rsbseq	r0, sp, r0, lsl #4
    1e7c:	000004b5 			; <UNDEFINED> instruction: 0x000004b5
    1e80:	00105f1e 	andseq	r5, r0, lr, lsl pc
    1e84:	01000100 	mrseq	r0, (UNDEF: 16)
    1e88:	00000073 	andeq	r0, r0, r3, ror r0
    1e8c:	00000622 	andeq	r0, r0, r2, lsr #12
    1e90:	000fd21f 	andeq	sp, pc, pc, lsl r2	; <UNPREDICTABLE>
    1e94:	01020100 	mrseq	r0, (UNDEF: 18)
    1e98:	0000004c 	andeq	r0, r0, ip, asr #32
    1e9c:	00000642 	andeq	r0, r0, r2, asr #12
    1ea0:	0010381f 	andseq	r3, r0, pc, lsl r8
    1ea4:	01030100 	mrseq	r0, (UNDEF: 19)
    1ea8:	0000004c 	andeq	r0, r0, ip, asr #32
    1eac:	00000661 	andeq	r0, r0, r1, ror #12
    1eb0:	00016120 	andeq	r6, r1, r0, lsr #2
    1eb4:	0008cc00 	andeq	ip, r8, r0, lsl #24
    1eb8:	0008e000 	andeq	lr, r8, r0
    1ebc:	01040100 	mrseq	r0, (UNDEF: 20)
    1ec0:	0001720d 	andeq	r7, r1, sp, lsl #4
    1ec4:	00068000 	andeq	r8, r6, r0
    1ec8:	21000000 	mrscs	r0, (UNDEF: 0)
    1ecc:	00001e6f 	andeq	r1, r0, pc, ror #28
    1ed0:	00530501 	subseq	r0, r3, r1, lsl #10
    1ed4:	03050000 	movweq	r0, #20480	; 0x5000
    1ed8:	00003188 	andeq	r3, r0, r8, lsl #3
    1edc:	000f9a21 	andeq	r9, pc, r1, lsr #20
    1ee0:	53060100 	movwpl	r0, #24832	; 0x6100
    1ee4:	05000000 	streq	r0, [r0, #-0]
    1ee8:	00318403 	eorseq	r8, r1, r3, lsl #8
    1eec:	10422100 	subne	r2, r2, r0, lsl #2
    1ef0:	07010000 	streq	r0, [r1, -r0]
    1ef4:	00000053 	andeq	r0, r0, r3, asr r0
    1ef8:	317c0305 	cmncc	ip, r5, lsl #6
    1efc:	d8210000 	stmdale	r1!, {}	; <UNPREDICTABLE>
    1f00:	0100000f 	tsteq	r0, pc
    1f04:	00005308 	andeq	r5, r0, r8, lsl #6
    1f08:	80030500 	andhi	r0, r3, r0, lsl #10
    1f0c:	00000031 	andeq	r0, r0, r1, lsr r0
    1f10:	0000014b 	andeq	r0, r0, fp, asr #2
    1f14:	07040002 	streq	r0, [r4, -r2]
    1f18:	01040000 	mrseq	r0, (UNDEF: 4)
    1f1c:	00000054 	andeq	r0, r0, r4, asr r0
    1f20:	00111401 	andseq	r1, r1, r1, lsl #8
    1f24:	00014f00 	andeq	r4, r1, r0, lsl #30
    1f28:	00090000 	andeq	r0, r9, r0
    1f2c:	0009a000 	andeq	sl, r9, r0
    1f30:	00069600 	andeq	r9, r6, r0, lsl #12
    1f34:	07040200 	streq	r0, [r4, -r0, lsl #4]
    1f38:	00000132 	andeq	r0, r0, r2, lsr r1
    1f3c:	96080102 	strls	r0, [r8], -r2, lsl #2
    1f40:	02000000 	andeq	r0, r0, #0
    1f44:	00b10702 	adcseq	r0, r1, r2, lsl #14
    1f48:	04030000 	streq	r0, [r3], #-0
    1f4c:	746e6905 	strbtvc	r6, [lr], #-2309	; 0x905
    1f50:	07040200 	streq	r0, [r4, -r0, lsl #4]
    1f54:	0000012d 	andeq	r0, r0, sp, lsr #2
    1f58:	8d080102 	stfhis	f0, [r8, #-8]
    1f5c:	02000000 	andeq	r0, r0, #0
    1f60:	008f0601 	addeq	r0, pc, r1, lsl #12
    1f64:	02020000 	andeq	r0, r2, #0
    1f68:	0001d605 	andeq	sp, r1, r5, lsl #12
    1f6c:	08360400 	ldmdaeq	r6!, {sl}
    1f70:	13030000 	movwne	r0, #12288	; 0x3000
    1f74:	00000025 	andeq	r0, r0, r5, lsr #32
    1f78:	b1050802 	tstlt	r5, r2, lsl #16
    1f7c:	02000001 	andeq	r0, r0, #1
    1f80:	01280708 	teqeq	r8, r8, lsl #14
    1f84:	5a050000 	bpl	141f8c <__bss_end+0x13ea3c>
    1f88:	24000004 	strcs	r0, [r0], #-4
    1f8c:	01004c02 	tsteq	r0, r2, lsl #24
    1f90:	ee060000 	cdp	0, 0, cr0, cr6, cr0, {0}
    1f94:	0200000c 	andeq	r0, r0, #12
    1f98:	00005d4e 	andeq	r5, r0, lr, asr #26
    1f9c:	00230200 	eoreq	r0, r3, r0, lsl #4
    1fa0:	00726307 	rsbseq	r6, r2, r7, lsl #6
    1fa4:	005d5002 	subseq	r5, sp, r2
    1fa8:	23020000 	movwcs	r0, #8192	; 0x2000
    1fac:	0acc0604 	beq	ff3037c4 <__bss_end+0xff300274>
    1fb0:	51020000 	mrspl	r0, (UNDEF: 2)
    1fb4:	0000005d 	andeq	r0, r0, sp, asr r0
    1fb8:	06082302 	streq	r2, [r8], -r2, lsl #6
    1fbc:	00000b20 	andeq	r0, r0, r0, lsr #22
    1fc0:	005d5302 	subseq	r5, sp, r2, lsl #6
    1fc4:	23020000 	movwcs	r0, #8192	; 0x2000
    1fc8:	0c2d060c 	stceq	6, cr0, [sp], #-48	; 0xffffffd0
    1fcc:	54020000 	strpl	r0, [r2], #-0
    1fd0:	0000005d 	andeq	r0, r0, sp, asr r0
    1fd4:	06102302 	ldreq	r2, [r0], -r2, lsl #6
    1fd8:	00000830 	andeq	r0, r0, r0, lsr r8
    1fdc:	005d5502 	subseq	r5, sp, r2, lsl #10
    1fe0:	23020000 	movwcs	r0, #8192	; 0x2000
    1fe4:	06ce0614 			; <UNDEFINED> instruction: 0x06ce0614
    1fe8:	58020000 	stmdapl	r2, {}	; <UNPREDICTABLE>
    1fec:	0000005d 	andeq	r0, r0, sp, asr r0
    1ff0:	06182302 	ldreq	r2, [r8], -r2, lsl #6
    1ff4:	00000d8b 	andeq	r0, r0, fp, lsl #27
    1ff8:	005d5b02 	subseq	r5, sp, r2, lsl #22
    1ffc:	23020000 	movwcs	r0, #8192	; 0x2000
    2000:	06bd061c 	ssateq	r0, #30, ip, lsl #12
    2004:	5c020000 	stcpl	0, cr0, [r2], {-0}
    2008:	0000005d 	andeq	r0, r0, sp, asr r0
    200c:	00202302 	eoreq	r2, r0, r2, lsl #6
    2010:	11550108 	cmpne	r5, r8, lsl #2
    2014:	07010000 	streq	r0, [r1, -r0]
    2018:	00090001 	andeq	r0, r9, r1
    201c:	00093c00 	andeq	r3, r9, r0, lsl #24
    2020:	007d0200 	rsbseq	r0, sp, r0, lsl #4
    2024:	00000126 	andeq	r0, r0, r6, lsr #2
    2028:	00045409 	andeq	r5, r4, r9, lsl #8
    202c:	26070100 	strcs	r0, [r7], -r0, lsl #2
    2030:	01000001 	tsteq	r0, r1
    2034:	040a0050 	streq	r0, [sl], #-80	; 0x50
    2038:	00000076 	andeq	r0, r0, r6, ror r0
    203c:	1143010b 	cmpne	r3, fp, lsl #2
    2040:	1e010000 	cdpne	0, 0, cr0, cr1, cr0, {0}
    2044:	00093c01 	andeq	r3, r9, r1, lsl #24
    2048:	0009a000 	andeq	sl, r9, r0
    204c:	007d0200 	rsbseq	r0, sp, r0, lsl #4
    2050:	00045409 	andeq	r5, r4, r9, lsl #8
    2054:	261e0100 	ldrcs	r0, [lr], -r0, lsl #2
    2058:	01000001 	tsteq	r0, r1
    205c:	9b000050 	blls	21a4 <printk_nommu+0x94>
    2060:	02000000 	andeq	r0, r0, #0
    2064:	0007ac00 	andeq	sl, r7, r0, lsl #24
    2068:	46010400 	strmi	r0, [r1], -r0, lsl #8
    206c:	a0000007 	andge	r0, r0, r7
    2070:	ec000009 	stc	0, cr0, [r0], {9}
    2074:	6100000e 	tstvs	r0, lr
    2078:	2f686372 	svccs	0x00686372
    207c:	2f6d7261 	svccs	0x006d7261
    2080:	6863616d 	stmdavs	r3!, {r0, r2, r3, r5, r6, r8, sp, lr}^
    2084:	6e75732d 	cdpvs	3, 7, cr7, cr5, cr13, {1}
    2088:	702f6978 	eorvc	r6, pc, r8, ror r9	; <UNPREDICTABLE>
    208c:	74732f6d 	ldrbtvc	r2, [r3], #-3949	; 0xf6d
    2090:	62646e61 	rsbvs	r6, r4, #1552	; 0x610
    2094:	2e2e2f79 	mcrcs	15, 1, r2, cr14, cr9, {3}
    2098:	6d656d2f 	stclvs	13, cr6, [r5, #-188]!	; 0xffffff44
    209c:	756d6d5f 	strbvc	r6, [sp, #-3423]!	; 0xd5f
    20a0:	5f63705f 	svcpl	0x0063705f
    20a4:	2e6d7361 	cdpcs	3, 6, cr7, cr13, cr1, {3}
    20a8:	682f0053 	stmdavs	pc!, {r0, r1, r4, r6}	; <UNPREDICTABLE>
    20ac:	2f656d6f 	svccs	0x00656d6f
    20b0:	2f776761 	svccs	0x00776761
    20b4:	54333841 	ldrtpl	r3, [r3], #-2113	; 0x841
    20b8:	312e355f 	teqcc	lr, pc, asr r5
    20bc:	412f312e 	teqmi	pc, lr, lsr #2
    20c0:	5f543338 	svcpl	0x00543338
    20c4:	2e312e35 	mrccs	14, 1, r2, cr1, cr5, {1}
    20c8:	65575f31 	ldrbvs	r5, [r7, #-3889]	; 0xf31
    20cc:	2f756469 	svccs	0x00756469
    20d0:	5f544550 	svcpl	0x00544550
    20d4:	54333841 	ldrtpl	r3, [r3], #-2113	; 0x841
    20d8:	312e355f 	teqcc	lr, pc, asr r5
    20dc:	6c2f312e 	stfvss	f3, [pc], #-184	; 202c <printk+0x1ec>
    20e0:	65686369 	strbvs	r6, [r8, #-873]!	; 0x369
    20e4:	696c2f65 	stmdbvs	ip!, {r0, r2, r5, r6, r8, r9, sl, fp, sp}^
    20e8:	2d78756e 	cfldr64cs	mvdx7, [r8, #-440]!	; 0xfffffe48
    20ec:	00342e33 	eorseq	r2, r4, r3, lsr lr
    20f0:	20554e47 	subscs	r4, r5, r7, asr #28
    20f4:	32205341 	eorcc	r5, r0, #67108865	; 0x4000001
    20f8:	0032322e 	eorseq	r3, r2, lr, lsr #4
    20fc:	05908001 	ldreq	r8, [r0, #1]
    2100:	00020000 	andeq	r0, r2, r0
    2104:	000007c0 	andeq	r0, r0, r0, asr #15
    2108:	00540104 	subseq	r0, r4, r4, lsl #2
    210c:	b2010000 	andlt	r0, r1, #0
    2110:	4f000012 	svcmi	0x00000012
    2114:	00000001 	andeq	r0, r0, r1
    2118:	b000000f 	andlt	r0, r0, pc
    211c:	f9000016 			; <UNDEFINED> instruction: 0xf9000016
    2120:	02000008 	andeq	r0, r0, #8
    2124:	008f0601 	addeq	r0, pc, r1, lsl #12
    2128:	01020000 	mrseq	r0, (UNDEF: 2)
    212c:	00008d08 	andeq	r8, r0, r8, lsl #26
    2130:	05020200 	streq	r0, [r2, #-512]	; 0x200
    2134:	000001d6 	ldrdeq	r0, [r0], -r6
    2138:	b1070202 	tstlt	r7, r2, lsl #4
    213c:	03000000 	movweq	r0, #0
    2140:	6e690504 	cdpvs	5, 6, cr0, cr9, cr4, {0}
    2144:	36040074 			; <UNDEFINED> instruction: 0x36040074
    2148:	03000008 	movweq	r0, #8
    214c:	00005313 	andeq	r5, r0, r3, lsl r3
    2150:	07040200 	streq	r0, [r4, -r0, lsl #4]
    2154:	00000132 	andeq	r0, r0, r2, lsr r1
    2158:	b1050802 	tstlt	r5, r2, lsl #16
    215c:	02000001 	andeq	r0, r0, #1
    2160:	01280708 	teqeq	r8, r8, lsl #14
    2164:	6e050000 	cdpvs	0, 0, cr0, cr5, cr0, {0}
    2168:	a0000012 	andge	r0, r0, r2, lsl r0
    216c:	02ac1202 	adceq	r1, ip, #536870912	; 0x20000000
    2170:	ee060000 	cdp	0, 0, cr0, cr6, cr0, {0}
    2174:	0200000c 	andeq	r0, r0, #12
    2178:	00004817 	andeq	r4, r0, r7, lsl r8
    217c:	00230200 	eoreq	r0, r3, r0, lsl #4
    2180:	00726307 	rsbseq	r6, r2, r7, lsl #6
    2184:	00482702 	subeq	r2, r8, r2, lsl #14
    2188:	23020000 	movwcs	r0, #8192	; 0x2000
    218c:	63610704 	cmnvs	r1, #1048576	; 0x100000
    2190:	28020072 	stmdacs	r2, {r1, r4, r5, r6}
    2194:	00000048 	andeq	r0, r0, r8, asr #32
    2198:	06082302 	streq	r2, [r8], -r2, lsl #6
    219c:	00000acc 	andeq	r0, r0, ip, asr #21
    21a0:	00482902 	subeq	r2, r8, r2, lsl #18
    21a4:	23020000 	movwcs	r0, #8192	; 0x2000
    21a8:	1171060c 	cmnne	r1, ip, lsl #12
    21ac:	2a020000 	bcs	821b4 <__bss_end+0x7ec64>
    21b0:	00000048 	andeq	r0, r0, r8, asr #32
    21b4:	06102302 	ldreq	r2, [r0], -r2, lsl #6
    21b8:	000011a9 	andeq	r1, r0, r9, lsr #3
    21bc:	00482b02 	subeq	r2, r8, r2, lsl #22
    21c0:	23020000 	movwcs	r0, #8192	; 0x2000
    21c4:	128e0614 	addne	r0, lr, #20971520	; 0x1400000
    21c8:	2c020000 	stccs	0, cr0, [r2], {-0}
    21cc:	00000048 	andeq	r0, r0, r8, asr #32
    21d0:	06182302 	ldreq	r2, [r8], -r2, lsl #6
    21d4:	00000b20 	andeq	r0, r0, r0, lsr #22
    21d8:	00483002 	subeq	r3, r8, r2
    21dc:	23020000 	movwcs	r0, #8192	; 0x2000
    21e0:	0c2d061c 	stceq	6, cr0, [sp], #-112	; 0xffffff90
    21e4:	31020000 	mrscc	r0, (UNDEF: 2)
    21e8:	00000048 	andeq	r0, r0, r8, asr #32
    21ec:	06202302 	strteq	r2, [r0], -r2, lsl #6
    21f0:	00000830 	andeq	r0, r0, r0, lsr r8
    21f4:	00483202 	subeq	r3, r8, r2, lsl #4
    21f8:	23020000 	movwcs	r0, #8192	; 0x2000
    21fc:	06ce0624 	strbeq	r0, [lr], r4, lsr #12
    2200:	34020000 	strcc	r0, [r2], #-0
    2204:	00000048 	andeq	r0, r0, r8, asr #32
    2208:	06282302 	strteq	r2, [r8], -r2, lsl #6
    220c:	0000117d 	andeq	r1, r0, sp, ror r1
    2210:	00483602 	subeq	r3, r8, r2, lsl #12
    2214:	23020000 	movwcs	r0, #8192	; 0x2000
    2218:	136d062c 	cmnne	sp, #46137344	; 0x2c00000
    221c:	37020000 	strcc	r0, [r2, -r0]
    2220:	00000048 	andeq	r0, r0, r8, asr #32
    2224:	06302302 	ldrteq	r2, [r0], -r2, lsl #6
    2228:	00001267 	andeq	r1, r0, r7, ror #4
    222c:	00483802 	subeq	r3, r8, r2, lsl #16
    2230:	23020000 	movwcs	r0, #8192	; 0x2000
    2234:	13880634 	orrne	r0, r8, #54525952	; 0x3400000
    2238:	39020000 	stmdbcc	r2, {}	; <UNPREDICTABLE>
    223c:	00000048 	andeq	r0, r0, r8, asr #32
    2240:	06382302 	ldrteq	r2, [r8], -r2, lsl #6
    2244:	00001373 	andeq	r1, r0, r3, ror r3
    2248:	00483b02 	subeq	r3, r8, r2, lsl #22
    224c:	23020000 	movwcs	r0, #8192	; 0x2000
    2250:	116b063c 	cmnne	fp, ip, lsr r6
    2254:	3c020000 	stccc	0, cr0, [r2], {-0}
    2258:	00000048 	andeq	r0, r0, r8, asr #32
    225c:	07402302 	strbeq	r2, [r0, -r2, lsl #6]
    2260:	00726170 	rsbseq	r6, r2, r0, ror r1
    2264:	00483e02 	subeq	r3, r8, r2, lsl #28
    2268:	23020000 	movwcs	r0, #8192	; 0x2000
    226c:	13490644 	movtne	r0, #38468	; 0x9644
    2270:	40020000 	andmi	r0, r2, r0
    2274:	00000048 	andeq	r0, r0, r8, asr #32
    2278:	06482302 	strbeq	r2, [r8], -r2, lsl #6
    227c:	00001354 	andeq	r1, r0, r4, asr r3
    2280:	00484102 	subeq	r4, r8, r2, lsl #2
    2284:	23020000 	movwcs	r0, #8192	; 0x2000
    2288:	129b064c 	addsne	r0, fp, #79691776	; 0x4c00000
    228c:	42020000 	andmi	r0, r2, #0
    2290:	00000048 	andeq	r0, r0, r8, asr #32
    2294:	06502302 	ldrbeq	r2, [r0], -r2, lsl #6
    2298:	00001344 	andeq	r1, r0, r4, asr #6
    229c:	00484302 	subeq	r4, r8, r2, lsl #6
    22a0:	23020000 	movwcs	r0, #8192	; 0x2000
    22a4:	69730754 	ldmdbvs	r3!, {r2, r4, r6, r8, r9, sl}^
    22a8:	47020072 	smlsdxmi	r2, r2, r0, r0
    22ac:	00000048 	andeq	r0, r0, r8, asr #32
    22b0:	06582302 	ldrbeq	r2, [r8], -r2, lsl #6
    22b4:	0000124e 	andeq	r1, r0, lr, asr #4
    22b8:	00484902 	subeq	r4, r8, r2, lsl #18
    22bc:	23020000 	movwcs	r0, #8192	; 0x2000
    22c0:	6363075c 	cmnvs	r3, #24117248	; 0x1700000
    22c4:	4a020072 	bmi	82494 <__bss_end+0x7ef44>
    22c8:	00000048 	andeq	r0, r0, r8, asr #32
    22cc:	07602302 	strbeq	r2, [r0, -r2, lsl #6]!
    22d0:	00727365 	rsbseq	r7, r2, r5, ror #6
    22d4:	00484b02 	subeq	r4, r8, r2, lsl #22
    22d8:	23020000 	movwcs	r0, #8192	; 0x2000
    22dc:	137f0664 	cmnne	pc, #104857600	; 0x6400000
    22e0:	4c020000 	stcmi	0, cr0, [r2], {-0}
    22e4:	00000048 	andeq	r0, r0, r8, asr #32
    22e8:	07682302 	strbeq	r2, [r8, -r2, lsl #6]!
    22ec:	00726575 	rsbseq	r6, r2, r5, ror r5
    22f0:	00484d02 	subeq	r4, r8, r2, lsl #26
    22f4:	23020000 	movwcs	r0, #8192	; 0x2000
    22f8:	123a066c 	eorsne	r0, sl, #113246208	; 0x6c00000
    22fc:	4e020000 	cdpmi	0, 0, cr0, cr2, cr0, {0}
    2300:	00000048 	andeq	r0, r0, r8, asr #32
    2304:	06702302 	ldrbteq	r2, [r0], -r2, lsl #6
    2308:	00001178 	andeq	r1, r0, r8, ror r1
    230c:	00484f02 	subeq	r4, r8, r2, lsl #30
    2310:	23020000 	movwcs	r0, #8192	; 0x2000
    2314:	0d8b0674 	stceq	6, cr0, [fp, #464]	; 0x1d0
    2318:	5d020000 	stcpl	0, cr0, [r2, #-0]
    231c:	00000048 	andeq	r0, r0, r8, asr #32
    2320:	06782302 	ldrbteq	r2, [r8], -r2, lsl #6
    2324:	000006bd 			; <UNDEFINED> instruction: 0x000006bd
    2328:	00485e02 	subeq	r5, r8, r2, lsl #28
    232c:	23020000 	movwcs	r0, #8192	; 0x2000
    2330:	137a067c 	cmnne	sl, #130023424	; 0x7c00000
    2334:	74020000 	strvc	r0, [r2], #-0
    2338:	00000048 	andeq	r0, r0, r8, asr #32
    233c:	01802303 	orreq	r2, r0, r3, lsl #6
    2340:	00137906 	andseq	r7, r3, r6, lsl #18
    2344:	48750200 	ldmdami	r5!, {r9}^
    2348:	03000000 	movweq	r0, #0
    234c:	07018423 	streq	r8, [r1, -r3, lsr #8]
    2350:	00727369 	rsbseq	r7, r2, r9, ror #6
    2354:	00487602 	subeq	r7, r8, r2, lsl #12
    2358:	23030000 	movwcs	r0, #12288	; 0x3000
    235c:	04060188 	streq	r0, [r6], #-392	; 0x188
    2360:	02000013 	andeq	r0, r0, #19
    2364:	0000487a 	andeq	r4, r0, sl, ror r8
    2368:	8c230300 	stchi	3, cr0, [r3], #-0
    236c:	69630701 	stmdbvs	r3!, {r0, r8, r9, sl}^
    2370:	7b020064 	blvc	82508 <__bss_end+0x7efb8>
    2374:	00000048 	andeq	r0, r0, r8, asr #32
    2378:	01902303 	orrseq	r2, r0, r3, lsl #6
    237c:	00119206 	andseq	r9, r1, r6, lsl #4
    2380:	487c0200 	ldmdami	ip!, {r9}^
    2384:	03000000 	movweq	r0, #0
    2388:	06019423 	streq	r9, [r1], -r3, lsr #8
    238c:	000012aa 	andeq	r1, r0, sl, lsr #5
    2390:	00487d02 	subeq	r7, r8, r2, lsl #26
    2394:	23030000 	movwcs	r0, #12288	; 0x3000
    2398:	64060198 	strvs	r0, [r6], #-408	; 0x198
    239c:	02000011 	andeq	r0, r0, #17
    23a0:	0000487e 	andeq	r4, r0, lr, ror r8
    23a4:	9c230300 	stcls	3, cr0, [r3], #-0
    23a8:	31080001 	tstcc	r8, r1
    23ac:	04000000 	streq	r0, [r0], #-0
    23b0:	03198904 	tsteq	r9, #65536	; 0x10000
    23b4:	1e090000 	cdpne	0, 0, cr0, cr9, cr0, {0}
    23b8:	00000000 	andeq	r0, r0, r0
    23bc:	0000a409 	andeq	sl, r0, r9, lsl #8
    23c0:	47090100 	strmi	r0, [r9, -r0, lsl #2]
    23c4:	02000000 	andeq	r0, r0, #0
    23c8:	00008109 	andeq	r8, r0, r9, lsl #2
    23cc:	bf090300 	svclt	0x00090300
    23d0:	04000001 	streq	r0, [r0], #-1
    23d4:	00011c09 	andeq	r1, r1, r9, lsl #24
    23d8:	04090500 	streq	r0, [r9], #-1280	; 0x500
    23dc:	06000001 	streq	r0, [r0], -r1
    23e0:	00013f09 	andeq	r3, r1, r9, lsl #30
    23e4:	12090700 	andne	r0, r9, #0
    23e8:	08000000 	stmdaeq	r0, {}	; <UNPREDICTABLE>
    23ec:	00007609 	andeq	r7, r0, r9, lsl #12
    23f0:	11090900 	tstne	r9, r0, lsl #18
    23f4:	0a000001 	beq	2400 <standby_delay_loop2+0x14>
    23f8:	0001cb09 	andeq	ip, r1, r9, lsl #22
    23fc:	2b090b00 	blcs	245004 <__bss_end+0x241ab4>
    2400:	0c000000 	stceq	0, cr0, [r0], {-0}
    2404:	0001a309 	andeq	sl, r1, r9, lsl #6
    2408:	50090d00 	andpl	r0, r9, r0, lsl #26
    240c:	0e000002 	cdpeq	0, 0, cr0, cr0, cr2, {0}
    2410:	00003909 	andeq	r3, r0, r9, lsl #18
    2414:	02000f00 	andeq	r0, r0, #0
    2418:	00960801 	addseq	r0, r6, r1, lsl #16
    241c:	04020000 	streq	r0, [r2], #-0
    2420:	00012d07 	andeq	r2, r1, r7, lsl #26
    2424:	de010a00 	vmlale.f32	s0, s2, s0
    2428:	01000012 	tsteq	r0, r2, lsl r0
    242c:	0f00018a 	svceq	0x0000018a
    2430:	13040000 	movwne	r0, #16384	; 0x4000
    2434:	7d020000 	stcvc	0, cr0, [r2, #-0]
    2438:	00034d00 	andeq	r4, r3, r0, lsl #26
    243c:	12530b00 	subsne	r0, r3, #0
    2440:	8a010000 	bhi	42448 <__bss_end+0x3eef8>
    2444:	0000034d 	andeq	r0, r0, sp, asr #6
    2448:	0c005001 	stceq	0, cr5, [r0], {1}
    244c:	00006804 	andeq	r6, r0, r4, lsl #16
    2450:	20010d00 	andcs	r0, r1, r0, lsl #26
    2454:	01000012 	tsteq	r0, r2, lsl r0
    2458:	04010118 	streq	r0, [r1], #-280	; 0x118
    245c:	c8000013 	stmdagt	r0, {r0, r1, r4}
    2460:	02000015 	andeq	r0, r0, #21
    2464:	037b007d 	cmneq	fp, #125	; 0x7d
    2468:	530e0000 	movwpl	r0, #57344	; 0xe000
    246c:	01000012 	tsteq	r0, r2, lsl r0
    2470:	034d0118 	movteq	r0, #53528	; 0xd118
    2474:	50010000 	andpl	r0, r1, r0
    2478:	07010d00 	streq	r0, [r1, -r0, lsl #26]
    247c:	01000012 	tsteq	r0, r2, lsl r0
    2480:	c801017b 	stmdagt	r1, {r0, r1, r3, r4, r5, r6, r8}
    2484:	e0000015 	and	r0, r0, r5, lsl r0
    2488:	02000015 	andeq	r0, r0, #21
    248c:	03a5007d 			; <UNDEFINED> instruction: 0x03a5007d
    2490:	760f0000 	strvc	r0, [pc], -r0
    2494:	01006c61 	tsteq	r0, r1, ror #24
    2498:	0048017e 	subeq	r0, r8, lr, ror r1
    249c:	06a00000 	strteq	r0, [r0], r0
    24a0:	0d000000 	stceq	0, cr0, [r0, #-0]
    24a4:	00127c01 	andseq	r7, r2, r1, lsl #24
    24a8:	01890100 	orreq	r0, r9, r0, lsl #2
    24ac:	0015e001 	andseq	lr, r5, r1
    24b0:	00167400 	andseq	r7, r6, r0, lsl #8
    24b4:	007d0200 	rsbseq	r0, sp, r0, lsl #4
    24b8:	000003cb 	andeq	r0, r0, fp, asr #7
    24bc:	00125310 	andseq	r5, r2, r0, lsl r3
    24c0:	018b0100 	orreq	r0, fp, r0, lsl #2
    24c4:	0000034d 	andeq	r0, r0, sp, asr #6
    24c8:	e0011100 	and	r1, r1, r0, lsl #2
    24cc:	01000012 	tsteq	r0, r2, lsl r0
    24d0:	740101e3 	strvc	r0, [r1], #-483	; 0x1e3
    24d4:	80000016 	andhi	r0, r0, r6, lsl r0
    24d8:	02000016 	andeq	r0, r0, #22
    24dc:	0111007d 	tsteq	r1, sp, ror r0
    24e0:	00001222 	andeq	r1, r0, r2, lsr #4
    24e4:	0101e901 	tsteq	r1, r1, lsl #18
    24e8:	00001680 	andeq	r1, r0, r0, lsl #13
    24ec:	0000168c 	andeq	r1, r0, ip, lsl #13
    24f0:	11007d02 	tstne	r0, r2, lsl #26
    24f4:	0011e001 	andseq	lr, r1, r1
    24f8:	01ee0100 	mvneq	r0, r0, lsl #2
    24fc:	00168c01 	andseq	r8, r6, r1, lsl #24
    2500:	0016a000 	andseq	sl, r6, r0
    2504:	007d0200 	rsbseq	r0, sp, r0, lsl #4
    2508:	12a0010d 	adcne	r0, r0, #1073741827	; 0x40000003
    250c:	f4010000 	vst4.8	{d0-d3}, [r1], r0
    2510:	16a00101 	strtne	r0, [r0], r1, lsl #2
    2514:	16b00000 	ldrtne	r0, [r0], r0
    2518:	7d020000 	stcvc	0, cr0, [r2, #-0]
    251c:	00043400 	andeq	r3, r4, r0, lsl #8
    2520:	74740f00 	ldrbtvc	r0, [r4], #-3840	; 0xf00
    2524:	f6010062 			; <UNDEFINED> instruction: 0xf6010062
    2528:	00004801 	andeq	r4, r0, r1, lsl #16
    252c:	0006c300 	andeq	ip, r6, r0, lsl #6
    2530:	6e120000 	cdpvs	0, 1, cr0, cr2, cr0, {0}
    2534:	01000012 	tsteq	r0, r2, lsl r0
    2538:	0000681f 	andeq	r6, r0, pc, lsl r8
    253c:	8c030500 	cfstr32hi	mvfx0, [r3], {-0}
    2540:	13000031 	movwne	r0, #49	; 0x31
    2544:	00001359 	andeq	r1, r0, r9, asr r3
    2548:	04502101 	ldrbeq	r2, [r0], #-257	; 0x101
    254c:	68140000 	ldmdavs	r4, {}	; <UNPREDICTABLE>
    2550:	15000000 	strne	r0, [r0, #-0]
    2554:	00000320 	andeq	r0, r0, r0, lsr #6
    2558:	00000465 	andeq	r0, r0, r5, ror #8
    255c:	00005316 	andeq	r5, r0, r6, lsl r3
    2560:	17000100 	strne	r0, [r0, -r0, lsl #2]
    2564:	000013bd 			; <UNDEFINED> instruction: 0x000013bd
    2568:	04550f01 	ldrbeq	r0, [r5], #-3841	; 0xf01
    256c:	05010000 	streq	r0, [r1, #-0]
    2570:	00353003 	eorseq	r3, r5, r3
    2574:	13351700 	teqne	r5, #0
    2578:	10010000 	andne	r0, r1, r0
    257c:	00000320 	andeq	r0, r0, r0, lsr #6
    2580:	2c030501 	cfstr32cs	mvfx0, [r3], {1}
    2584:	17000035 	smladxne	r0, r5, r0, r0
    2588:	0000131f 	andeq	r1, r0, pc, lsl r3
    258c:	04551101 	ldrbeq	r1, [r5], #-257	; 0x101
    2590:	05010000 	streq	r0, [r1, #-0]
    2594:	00344003 	eorseq	r4, r4, r3
    2598:	11f81700 	mvnsne	r1, r0, lsl #14
    259c:	12010000 	andne	r0, r1, #0
    25a0:	00000320 	andeq	r0, r0, r0, lsr #6
    25a4:	44030501 	strmi	r0, [r3], #-1281	; 0x501
    25a8:	15000035 	strne	r0, [r0, #-53]	; 0x35
    25ac:	00000320 	andeq	r0, r0, r0, lsr #6
    25b0:	000004bd 			; <UNDEFINED> instruction: 0x000004bd
    25b4:	00005316 	andeq	r5, r0, r6, lsl r3
    25b8:	17000600 	strne	r0, [r0, -r0, lsl #12]
    25bc:	000011b4 			; <UNDEFINED> instruction: 0x000011b4
    25c0:	04ad1301 	strteq	r1, [sp], #769	; 0x301
    25c4:	05010000 	streq	r0, [r1, #-0]
    25c8:	00351003 	eorseq	r1, r5, r3
    25cc:	123f1700 	eorsne	r1, pc, #0
    25d0:	14010000 	strne	r0, [r1], #-0
    25d4:	00000320 	andeq	r0, r0, r0, lsr #6
    25d8:	48030501 	stmdami	r3, {r0, r8, sl}
    25dc:	17000034 	smladxne	r0, r4, r0, r0
    25e0:	0000138f 	andeq	r1, r0, pc, lsl #7
    25e4:	04551501 	ldrbeq	r1, [r5], #-1281	; 0x501
    25e8:	05010000 	streq	r0, [r1, #-0]
    25ec:	00345403 	eorseq	r5, r4, r3, lsl #8
    25f0:	11831700 	orrne	r1, r3, r0, lsl #14
    25f4:	16010000 	strne	r0, [r1], -r0
    25f8:	00000320 	andeq	r0, r0, r0, lsr #6
    25fc:	38030501 	stmdacc	r3, {r0, r8, sl}
    2600:	17000035 	smladxne	r0, r5, r0, r0
    2604:	000011ca 	andeq	r1, r0, sl, asr #3
    2608:	04551701 	ldrbeq	r1, [r5], #-1793	; 0x701
    260c:	05010000 	streq	r0, [r1, #-0]
    2610:	00343803 	eorseq	r3, r4, r3, lsl #16
    2614:	12581700 	subsne	r1, r8, #0
    2618:	18010000 	stmdane	r1, {}	; <UNPREDICTABLE>
    261c:	00000320 	andeq	r0, r0, r0, lsr #6
    2620:	50030501 	andpl	r0, r3, r1, lsl #10
    2624:	17000034 	smladxne	r0, r4, r0, r0
    2628:	00001309 	andeq	r1, r0, r9, lsl #6
    262c:	04551901 	ldrbeq	r1, [r5], #-2305	; 0x901
    2630:	05010000 	streq	r0, [r1, #-0]
    2634:	00354803 	eorseq	r4, r5, r3, lsl #16
    2638:	12f51700 	rscsne	r1, r5, #0
    263c:	1a010000 	bne	42644 <__bss_end+0x3f0f4>
    2640:	00000320 	andeq	r0, r0, r0, lsr #6
    2644:	4c030501 	cfstr32mi	mvfx0, [r3], {1}
    2648:	17000034 	smladxne	r0, r4, r0, r0
    264c:	000013d3 	ldrdeq	r1, [r0], -r3
    2650:	04551b01 	ldrbeq	r1, [r5], #-2817	; 0xb01
    2654:	05010000 	streq	r0, [r1, #-0]
    2658:	00353c03 	eorseq	r3, r5, r3, lsl #24
    265c:	119a1700 	orrsne	r1, sl, r0, lsl #14
    2660:	1c010000 	stcne	0, cr0, [r1], {-0}
    2664:	00000320 	andeq	r0, r0, r0, lsr #6
    2668:	5c030501 	cfstr32pl	mvfx0, [r3], {1}
    266c:	15000034 	strne	r0, [r0, #-52]	; 0x34
    2670:	00000320 	andeq	r0, r0, r0, lsr #6
    2674:	00000581 	andeq	r0, r0, r1, lsl #11
    2678:	00005316 	andeq	r5, r0, r6, lsl r3
    267c:	17002b00 	strne	r2, [r0, -r0, lsl #22]
    2680:	000013a5 	andeq	r1, r0, r5, lsr #7
    2684:	05711d01 	ldrbeq	r1, [r1, #-3329]!	; 0xd01
    2688:	05010000 	streq	r0, [r1, #-0]
    268c:	00346003 	eorseq	r6, r4, r3
    2690:	11b90000 			; <UNDEFINED> instruction: 0x11b90000
    2694:	00020000 	andeq	r0, r2, r0
    2698:	00000908 	andeq	r0, r0, r8, lsl #18
    269c:	00540104 	subseq	r0, r4, r4, lsl #2
    26a0:	4d010000 	stcmi	0, cr0, [r1, #-0]
    26a4:	4f000015 	svcmi	0x00000015
    26a8:	b0000001 	andlt	r0, r0, r1
    26ac:	f4000016 	vst4.8	{d0-d3}, [r0 :64], r6
    26b0:	3d00001b 	stccc	0, cr0, [r0, #-108]	; 0xffffff94
    26b4:	0200000a 	andeq	r0, r0, #10
    26b8:	008f0601 	addeq	r0, pc, r1, lsl #12
    26bc:	01020000 	mrseq	r0, (UNDEF: 2)
    26c0:	00008d08 	andeq	r8, r0, r8, lsl #26
    26c4:	05020200 	streq	r0, [r2, #-512]	; 0x200
    26c8:	000001d6 	ldrdeq	r0, [r0], -r6
    26cc:	b1070202 	tstlt	r7, r2, lsl #4
    26d0:	03000000 	movweq	r0, #0
    26d4:	00001032 	andeq	r1, r0, r2, lsr r0
    26d8:	004c1202 	subeq	r1, ip, r2, lsl #4
    26dc:	04040000 	streq	r0, [r4], #-0
    26e0:	746e6905 	strbtvc	r6, [lr], #-2309	; 0x905
    26e4:	08360300 	ldmdaeq	r6!, {r8, r9}
    26e8:	13020000 	movwne	r0, #8192	; 0x2000
    26ec:	0000005e 	andeq	r0, r0, lr, asr r0
    26f0:	32070402 	andcc	r0, r7, #33554432	; 0x2000000
    26f4:	02000001 	andeq	r0, r0, #1
    26f8:	01b10508 			; <UNDEFINED> instruction: 0x01b10508
    26fc:	08020000 	stmdaeq	r2, {}	; <UNPREDICTABLE>
    2700:	00012807 	andeq	r2, r1, r7, lsl #16
    2704:	03040500 	movweq	r0, #17664	; 0x4500
    2708:	0001041a 	andeq	r0, r1, sl, lsl r4
    270c:	05a50600 	streq	r0, [r5, #1536]!	; 0x600
    2710:	1c030000 	stcne	0, cr0, [r3], {-0}
    2714:	00000053 	andeq	r0, r0, r3, asr r0
    2718:	021e0204 	andseq	r0, lr, #1073741824	; 0x40000000
    271c:	72060023 	andvc	r0, r6, #35	; 0x23
    2720:	0300000a 	movweq	r0, #10
    2724:	0000531d 	andeq	r5, r0, sp, lsl r3
    2728:	18060400 	stmdane	r6, {sl}
    272c:	06002302 	streq	r2, [r0], -r2, lsl #6
    2730:	000005ad 	andeq	r0, r0, sp, lsr #11
    2734:	00531e03 	subseq	r1, r3, r3, lsl #28
    2738:	08040000 	stmdaeq	r4, {}	; <UNPREDICTABLE>
    273c:	00230210 	eoreq	r0, r3, r0, lsl r2
    2740:	0005bd06 	andeq	fp, r5, r6, lsl #26
    2744:	531f0300 	tstpl	pc, #0
    2748:	04000000 	streq	r0, [r0], #-0
    274c:	23020f01 	movwcs	r0, #12033	; 0x2f01
    2750:	0a900600 	beq	fe403f58 <__bss_end+0xfe400a08>
    2754:	20030000 	andcs	r0, r3, r0
    2758:	00000053 	andeq	r0, r0, r3, asr r0
    275c:	02080704 	andeq	r0, r8, #1048576	; 0x100000
    2760:	7d060023 	stcvc	0, cr0, [r6, #-140]	; 0xffffff74
    2764:	03000007 	movweq	r0, #7
    2768:	00005321 	andeq	r5, r0, r1, lsr #6
    276c:	05030400 	streq	r0, [r3, #-1024]	; 0x400
    2770:	06002302 	streq	r2, [r0], -r2, lsl #6
    2774:	00000a9a 	muleq	r0, sl, sl
    2778:	00532203 	subseq	r2, r3, r3, lsl #4
    277c:	04040000 	streq	r0, [r4], #-0
    2780:	00230201 	eoreq	r0, r3, r1, lsl #4
    2784:	000a3406 	andeq	r3, sl, r6, lsl #8
    2788:	53230300 	teqpl	r3, #0
    278c:	04000000 	streq	r0, [r0], #-0
    2790:	23020001 	movwcs	r0, #8193	; 0x2001
    2794:	04070000 	streq	r0, [r7], #-0
    2798:	01231803 	teqeq	r3, r3, lsl #16
    279c:	dc080000 	stcle	0, cr0, [r8], {-0}
    27a0:	03000003 	movweq	r0, #3
    27a4:	00005319 	andeq	r5, r0, r9, lsl r3
    27a8:	085f0800 	ldmdaeq	pc, {fp}^	; <UNPREDICTABLE>
    27ac:	25030000 	strcs	r0, [r3, #-0]
    27b0:	00000073 	andeq	r0, r0, r3, ror r0
    27b4:	0a3a0300 	beq	e833bc <__bss_end+0xe7fe6c>
    27b8:	26030000 	strcs	r0, [r3], -r0
    27bc:	00000104 	andeq	r0, r0, r4, lsl #2
    27c0:	3e030405 	cdpcc	4, 0, cr0, cr3, cr5, {0}
    27c4:	000001bf 			; <UNDEFINED> instruction: 0x000001bf
    27c8:	000cad06 	andeq	sl, ip, r6, lsl #26
    27cc:	53400300 	movtpl	r0, #768	; 0x300
    27d0:	04000000 	streq	r0, [r0], #-0
    27d4:	23021e02 	movwcs	r1, #11778	; 0x2e02
    27d8:	0a720600 	beq	1c83fe0 <__bss_end+0x1c80a90>
    27dc:	41030000 	mrsmi	r0, (UNDEF: 3)
    27e0:	00000053 	andeq	r0, r0, r3, asr r0
    27e4:	02140a04 	andseq	r0, r4, #16384	; 0x4000
    27e8:	b3060023 	movwlt	r0, #24611	; 0x6023
    27ec:	03000006 	movweq	r0, #6
    27f0:	00005342 	andeq	r5, r0, r2, asr #6
    27f4:	13010400 	movwne	r0, #5120	; 0x1400
    27f8:	06002302 	streq	r2, [r0], -r2, lsl #6
    27fc:	00000a7c 	andeq	r0, r0, ip, ror sl
    2800:	00534303 	subseq	r4, r3, r3, lsl #6
    2804:	03040000 	movweq	r0, #16384	; 0x4000
    2808:	00230210 	eoreq	r0, r3, r0, lsl r2
    280c:	00083c06 	andeq	r3, r8, r6, lsl #24
    2810:	53440300 	movtpl	r0, #17152	; 0x4300
    2814:	04000000 	streq	r0, [r0], #-0
    2818:	23020e02 	movwcs	r0, #11778	; 0x2e02
    281c:	0a860600 	beq	fe184024 <__bss_end+0xfe180ad4>
    2820:	45030000 	strmi	r0, [r3, #-0]
    2824:	00000053 	andeq	r0, r0, r3, asr r0
    2828:	02040a04 	andeq	r0, r4, #16384	; 0x4000
    282c:	23060023 	movwcs	r0, #24611	; 0x6023
    2830:	03000006 	movweq	r0, #6
    2834:	00005346 	andeq	r5, r0, r6, asr #6
    2838:	03010400 	movweq	r0, #5120	; 0x1400
    283c:	06002302 	streq	r2, [r0], -r2, lsl #6
    2840:	00000a90 	muleq	r0, r0, sl
    2844:	00534703 	subseq	r4, r3, r3, lsl #14
    2848:	03040000 	movweq	r0, #16384	; 0x4000
    284c:	00230200 	eoreq	r0, r3, r0, lsl #4
    2850:	03040700 	movweq	r0, #18176	; 0x4700
    2854:	0001de3c 	andeq	sp, r1, ip, lsr lr
    2858:	03dc0800 	bicseq	r0, ip, #0
    285c:	3d030000 	stccc	0, cr0, [r3, #-0]
    2860:	00000053 	andeq	r0, r0, r3, asr r0
    2864:	00085f08 	andeq	r5, r8, r8, lsl #30
    2868:	2e480300 	cdpcs	3, 4, cr0, cr8, cr0, {0}
    286c:	00000001 	andeq	r0, r0, r1
    2870:	0004aa03 	andeq	sl, r4, r3, lsl #20
    2874:	bf490300 	svclt	0x00490300
    2878:	09000001 	stmdbeq	r0, {r0}
    287c:	0000036e 	andeq	r0, r0, lr, ror #6
    2880:	6d4f0304 	stclvs	3, cr0, [pc, #-16]	; 2878 <mem_tmr_save+0x28>
    2884:	06000002 	streq	r0, [r0], -r2
    2888:	00000a72 	andeq	r0, r0, r2, ror sl
    288c:	00535103 	subseq	r5, r3, r3, lsl #2
    2890:	04040000 	streq	r0, [r4], #-0
    2894:	0023021c 	eoreq	r0, r3, ip, lsl r2
    2898:	0008b306 	andeq	fp, r8, r6, lsl #6
    289c:	53520300 	cmppl	r2, #0
    28a0:	04000000 	streq	r0, [r0], #-0
    28a4:	23021a02 	movwcs	r1, #10754	; 0x2a02
    28a8:	081f0600 	ldmdaeq	pc, {r9, sl}	; <UNPREDICTABLE>
    28ac:	53030000 	movwpl	r0, #12288	; 0x3000
    28b0:	00000053 	andeq	r0, r0, r3, asr r0
    28b4:	02180204 	andseq	r0, r8, #1073741824	; 0x40000000
    28b8:	d3060023 	movwle	r0, #24611	; 0x6023
    28bc:	03000009 	movweq	r0, #9
    28c0:	00005354 	andeq	r5, r0, r4, asr r3
    28c4:	16020400 	strne	r0, [r2], -r0, lsl #8
    28c8:	06002302 	streq	r2, [r0], -r2, lsl #6
    28cc:	00000a7c 	andeq	r0, r0, ip, ror sl
    28d0:	00535503 	subseq	r5, r3, r3, lsl #10
    28d4:	02040000 	andeq	r0, r4, #0
    28d8:	00230214 	eoreq	r0, r3, r4, lsl r2
    28dc:	0009b506 	andeq	fp, r9, r6, lsl #10
    28e0:	53560300 	cmppl	r6, #0
    28e4:	04000000 	streq	r0, [r0], #-0
    28e8:	23021202 	movwcs	r1, #8706	; 0x2202
    28ec:	0a860600 	beq	fe1840f4 <__bss_end+0xfe180ba4>
    28f0:	57030000 	strpl	r0, [r3, -r0]
    28f4:	00000053 	andeq	r0, r0, r3, asr r0
    28f8:	02001204 	andeq	r1, r0, #1073741824	; 0x40000000
    28fc:	03000023 	movweq	r0, #35	; 0x23
    2900:	00000c07 	andeq	r0, r0, r7, lsl #24
    2904:	01e95803 	mvneq	r5, r3, lsl #16
    2908:	04050000 	streq	r0, [r5], #-0
    290c:	02e75f03 	rsceq	r5, r7, #12
    2910:	3b060000 	blcc	182918 <__bss_end+0x17f3c8>
    2914:	03000006 	movweq	r0, #6
    2918:	00005361 	andeq	r5, r0, r1, ror #6
    291c:	1b050400 	blne	143924 <__bss_end+0x1403d4>
    2920:	06002302 	streq	r2, [r0], -r2, lsl #6
    2924:	00000ca4 	andeq	r0, r0, r4, lsr #25
    2928:	00536203 	subseq	r6, r3, r3, lsl #4
    292c:	0b040000 	bleq	102934 <__bss_end+0xff3e4>
    2930:	00230210 	eoreq	r0, r3, r0, lsl r2
    2934:	00064006 	andeq	r4, r6, r6
    2938:	53630300 	cmnpl	r3, #0
    293c:	04000000 	streq	r0, [r0], #-0
    2940:	23020e02 	movwcs	r0, #11778	; 0x2e02
    2944:	0a7c0600 	beq	1f0414c <__bss_end+0x1f00bfc>
    2948:	64030000 	strvs	r0, [r3], #-0
    294c:	00000053 	andeq	r0, r0, r3, asr r0
    2950:	02080604 	andeq	r0, r8, #4194304	; 0x400000
    2954:	25060023 	strcs	r0, [r6, #-35]	; 0x23
    2958:	03000006 	movweq	r0, #6
    295c:	00005365 	andeq	r5, r0, r5, ror #6
    2960:	06020400 	streq	r0, [r2], -r0, lsl #8
    2964:	06002302 	streq	r2, [r0], -r2, lsl #6
    2968:	00000a86 	andeq	r0, r0, r6, lsl #21
    296c:	00536603 	subseq	r6, r3, r3, lsl #12
    2970:	06040000 	streq	r0, [r4], -r0
    2974:	00230200 	eoreq	r0, r3, r0, lsl #4
    2978:	03040700 	movweq	r0, #18176	; 0x4700
    297c:	0003065d 	andeq	r0, r3, sp, asr r6
    2980:	03dc0800 	bicseq	r0, ip, #0
    2984:	5e030000 	cdppl	0, 0, cr0, cr3, cr0, {0}
    2988:	00000053 	andeq	r0, r0, r3, asr r0
    298c:	00085f08 	andeq	r5, r8, r8, lsl #30
    2990:	78670300 	stmdavc	r7!, {r8, r9}^
    2994:	00000002 	andeq	r0, r0, r2
    2998:	0008ed03 	andeq	lr, r8, r3, lsl #26
    299c:	e7680300 	strb	r0, [r8, -r0, lsl #6]!
    29a0:	09000002 	stmdbeq	r0, {r1}
    29a4:	000007b7 			; <UNDEFINED> instruction: 0x000007b7
    29a8:	406a0304 	rsbmi	r0, sl, r4, lsl #6
    29ac:	06000003 	streq	r0, [r0], -r3
    29b0:	00000c85 	andeq	r0, r0, r5, lsl #25
    29b4:	00536c03 	subseq	r6, r3, r3, lsl #24
    29b8:	10040000 	andne	r0, r4, r0
    29bc:	00230210 	eoreq	r0, r3, r0, lsl r2
    29c0:	000ca406 	andeq	sl, ip, r6, lsl #8
    29c4:	536d0300 	cmnpl	sp, #0
    29c8:	04000000 	streq	r0, [r0], #-0
    29cc:	23020010 	movwcs	r0, #8208	; 0x2010
    29d0:	4c030000 	stcmi	0, cr0, [r3], {-0}
    29d4:	0300000b 	movweq	r0, #11
    29d8:	0003116e 	andeq	r1, r3, lr, ror #2
    29dc:	0d270a00 	vstmdbeq	r7!, {s0-s-1}
    29e0:	02dc0000 	sbcseq	r0, ip, #0
    29e4:	0b217003 	bleq	85e9f8 <__bss_end+0x85b4a8>
    29e8:	860b0000 	strhi	r0, [fp], -r0
    29ec:	03000007 	movweq	r0, #7
    29f0:	000b2172 	andeq	r2, fp, r2, ror r1
    29f4:	00230200 	eoreq	r0, r3, r0, lsl #4
    29f8:	00079a0b 	andeq	r9, r7, fp, lsl #20
    29fc:	26730300 	ldrbtcs	r0, [r3], -r0, lsl #6
    2a00:	0200000b 	andeq	r0, r0, #11
    2a04:	1f0b0423 	svcne	0x000b0423
    2a08:	0300000d 	movweq	r0, #13
    2a0c:	000b2674 	andeq	r2, fp, r4, ror r6
    2a10:	08230200 	stmdaeq	r3!, {r9}
    2a14:	000a7c0b 	andeq	r7, sl, fp, lsl #24
    2a18:	26750300 	ldrbtcs	r0, [r5], -r0, lsl #6
    2a1c:	0200000b 	andeq	r0, r0, #11
    2a20:	db0b0c23 	blle	2c5ab4 <__bss_end+0x2c2564>
    2a24:	03000008 	movweq	r0, #8
    2a28:	000b2676 	andeq	r2, fp, r6, ror r6
    2a2c:	10230200 	eorne	r0, r3, r0, lsl #4
    2a30:	000a860b 	andeq	r8, sl, fp, lsl #12
    2a34:	26770300 	ldrbtcs	r0, [r7], -r0, lsl #6
    2a38:	0200000b 	andeq	r0, r0, #11
    2a3c:	7c0b1423 	cfstrsvc	mvf1, [fp], {35}	; 0x23
    2a40:	03000004 	movweq	r0, #4
    2a44:	000b2678 	andeq	r2, fp, r8, ror r6
    2a48:	18230200 	stmdane	r3!, {r9}
    2a4c:	000a900b 	andeq	r9, sl, fp
    2a50:	26790300 	ldrbtcs	r0, [r9], -r0, lsl #6
    2a54:	0200000b 	andeq	r0, r0, #11
    2a58:	220b1c23 	andcs	r1, fp, #8960	; 0x2300
    2a5c:	0300000a 	movweq	r0, #10
    2a60:	000b267a 	andeq	r2, fp, sl, ror r6
    2a64:	20230200 	eorcs	r0, r3, r0, lsl #4
    2a68:	000a9a0b 	andeq	r9, sl, fp, lsl #20
    2a6c:	267b0300 	ldrbtcs	r0, [fp], -r0, lsl #6
    2a70:	0200000b 	andeq	r0, r0, #11
    2a74:	340b2423 	strcc	r2, [fp], #-1059	; 0x423
    2a78:	03000004 	movweq	r0, #4
    2a7c:	000b267c 	andeq	r2, fp, ip, ror r6
    2a80:	28230200 	stmdacs	r3!, {r9}
    2a84:	000aa40b 	andeq	sl, sl, fp, lsl #8
    2a88:	267d0300 	ldrbtcs	r0, [sp], -r0, lsl #6
    2a8c:	0200000b 	andeq	r0, r0, #11
    2a90:	0a0b2c23 	beq	2cdb24 <__bss_end+0x2ca5d4>
    2a94:	0300000a 	movweq	r0, #10
    2a98:	000b267e 	andeq	r2, fp, lr, ror r6
    2a9c:	30230200 	eorcc	r0, r3, r0, lsl #4
    2aa0:	000aae0b 	andeq	sl, sl, fp, lsl #28
    2aa4:	267f0300 	ldrbtcs	r0, [pc], -r0, lsl #6
    2aa8:	0200000b 	andeq	r0, r0, #11
    2aac:	af0b3423 	svcge	0x000b3423
    2ab0:	03000007 	movweq	r0, #7
    2ab4:	000b2680 	andeq	r2, fp, r0, lsl #13
    2ab8:	38230200 	stmdacc	r3!, {r9}
    2abc:	000ab80b 	andeq	fp, sl, fp, lsl #16
    2ac0:	26810300 	strcs	r0, [r1], r0, lsl #6
    2ac4:	0200000b 	andeq	r0, r0, #11
    2ac8:	3a0b3c23 	bcc	2d1b5c <__bss_end+0x2ce60c>
    2acc:	0300000b 	movweq	r0, #11
    2ad0:	000b2682 	andeq	r2, fp, r2, lsl #13
    2ad4:	40230200 	eormi	r0, r3, r0, lsl #4
    2ad8:	000d9a0b 	andeq	r9, sp, fp, lsl #20
    2adc:	26830300 	strcs	r0, [r3], r0, lsl #6
    2ae0:	0200000b 	andeq	r0, r0, #11
    2ae4:	730b4423 	movwvc	r4, #46115	; 0xb423
    2ae8:	03000004 	movweq	r0, #4
    2aec:	000b2684 	andeq	r2, fp, r4, lsl #13
    2af0:	48230200 	stmdami	r3!, {r9}
    2af4:	000be30b 	andeq	lr, fp, fp, lsl #6
    2af8:	26850300 	strcs	r0, [r5], r0, lsl #6
    2afc:	0200000b 	andeq	r0, r0, #11
    2b00:	e30b4c23 	movw	r4, #48163	; 0xbc23
    2b04:	03000008 	movweq	r0, #8
    2b08:	000b2b86 	andeq	r2, fp, r6, lsl #23
    2b0c:	50230200 	eorpl	r0, r3, r0, lsl #4
    2b10:	0008b30b 	andeq	fp, r8, fp, lsl #6
    2b14:	30870300 	addcc	r0, r7, r0, lsl #6
    2b18:	0200000b 	andeq	r0, r0, #11
    2b1c:	b50b5423 	strlt	r5, [fp, #-1059]	; 0x423
    2b20:	03000005 	movweq	r0, #5
    2b24:	000b3588 	andeq	r3, fp, r8, lsl #11
    2b28:	58230200 	stmdapl	r3!, {r9}
    2b2c:	000a500b 	andeq	r5, sl, fp
    2b30:	26890300 	strcs	r0, [r9], r0, lsl #6
    2b34:	0200000b 	andeq	r0, r0, #11
    2b38:	310b5c23 	tstcc	fp, r3, lsr #24
    2b3c:	0300000b 	movweq	r0, #11
    2b40:	000b268a 	andeq	r2, fp, sl, lsl #13
    2b44:	60230200 	eorvs	r0, r3, r0, lsl #4
    2b48:	0007400b 	andeq	r4, r7, fp
    2b4c:	268b0300 	strcs	r0, [fp], r0, lsl #6
    2b50:	0200000b 	andeq	r0, r0, #11
    2b54:	b70b6423 	strlt	r6, [fp, -r3, lsr #8]
    2b58:	0300000c 	movweq	r0, #12
    2b5c:	000b268c 	andeq	r2, fp, ip, lsl #13
    2b60:	68230200 	stmdavs	r3!, {r9}
    2b64:	0009620b 	andeq	r6, r9, fp, lsl #4
    2b68:	268d0300 	strcs	r0, [sp], r0, lsl #6
    2b6c:	0200000b 	andeq	r0, r0, #11
    2b70:	c20b6c23 	andgt	r6, fp, #8960	; 0x2300
    2b74:	0300000a 	movweq	r0, #10
    2b78:	000b4a8e 	andeq	r4, fp, lr, lsl #21
    2b7c:	70230200 	eorvc	r0, r3, r0, lsl #4
    2b80:	000d900b 	andeq	r9, sp, fp
    2b84:	268f0300 	strcs	r0, [pc], r0, lsl #6
    2b88:	0200000b 	andeq	r0, r0, #11
    2b8c:	200b7823 	andcs	r7, fp, r3, lsr #16
    2b90:	03000004 	movweq	r0, #4
    2b94:	000b2690 	muleq	fp, r0, r6
    2b98:	7c230200 	sfmvc	f0, 4, [r3], #-0
    2b9c:	000d5d0b 	andeq	r5, sp, fp, lsl #26
    2ba0:	26910300 	ldrcs	r0, [r1], r0, lsl #6
    2ba4:	0300000b 	movweq	r0, #11
    2ba8:	0b018023 	bleq	62c3c <__bss_end+0x5f6ec>
    2bac:	00000cc0 	andeq	r0, r0, r0, asr #25
    2bb0:	0b269203 	bleq	9a73c4 <__bss_end+0x9a3e74>
    2bb4:	23030000 	movwcs	r0, #12288	; 0x3000
    2bb8:	530c0184 	movwpl	r0, #49540	; 0xc184
    2bbc:	03003064 	movweq	r3, #100	; 0x64
    2bc0:	000b2693 	muleq	fp, r3, r6
    2bc4:	88230300 	stmdahi	r3!, {r8, r9}
    2bc8:	64530c01 	ldrbvs	r0, [r3], #-3073	; 0xc01
    2bcc:	94030031 	strls	r0, [r3], #-49	; 0x31
    2bd0:	00000b26 	andeq	r0, r0, r6, lsr #22
    2bd4:	018c2303 	orreq	r2, ip, r3, lsl #6
    2bd8:	3264530c 	rsbcc	r5, r4, #805306368	; 0x30000000
    2bdc:	26950300 	ldrcs	r0, [r5], r0, lsl #6
    2be0:	0300000b 	movweq	r0, #11
    2be4:	0b019023 	bleq	66c78 <__bss_end+0x63728>
    2be8:	00000ccb 	andeq	r0, r0, fp, asr #25
    2bec:	0b4f9603 	bleq	13e8400 <__bss_end+0x13e4eb0>
    2bf0:	23030000 	movwcs	r0, #12288	; 0x3000
    2bf4:	530c0194 	movwpl	r0, #49556	; 0xc194
    2bf8:	97030073 	smlsdxls	r3, r3, r0, r0
    2bfc:	00000b26 	andeq	r0, r0, r6, lsr #22
    2c00:	019c2303 	orrseq	r2, ip, r3, lsl #6
    2c04:	000b270b 	andeq	r2, fp, fp, lsl #14
    2c08:	26980300 	ldrcs	r0, [r8], r0, lsl #6
    2c0c:	0300000b 	movweq	r0, #11
    2c10:	0b01a023 	bleq	6aca4 <__bss_end+0x67754>
    2c14:	00000b2c 	andeq	r0, r0, ip, lsr #22
    2c18:	0b269903 	bleq	9a902c <__bss_end+0x9a5adc>
    2c1c:	23030000 	movwcs	r0, #12288	; 0x3000
    2c20:	d60b01a4 	strle	r0, [fp], -r4, lsr #3
    2c24:	0300000c 	movweq	r0, #12
    2c28:	000b549a 	muleq	fp, sl, r4
    2c2c:	a8230300 	stmdage	r3!, {r8, r9}
    2c30:	04640b01 	strbteq	r0, [r4], #-2817	; 0xb01
    2c34:	9b030000 	blls	c2c3c <__bss_end+0xbf6ec>
    2c38:	00000b26 	andeq	r0, r0, r6, lsr #22
    2c3c:	01b02303 	lslseq	r2, r3, #6
    2c40:	0004690b 	andeq	r6, r4, fp, lsl #18
    2c44:	269c0300 	ldrcs	r0, [ip], r0, lsl #6
    2c48:	0300000b 	movweq	r0, #11
    2c4c:	0b01b423 	bleq	6fce0 <__bss_end+0x6c790>
    2c50:	0000046e 	andeq	r0, r0, lr, ror #8
    2c54:	0b269d03 	bleq	9aa068 <__bss_end+0x9a6b18>
    2c58:	23030000 	movwcs	r0, #12288	; 0x3000
    2c5c:	270b01b8 			; <UNDEFINED> instruction: 0x270b01b8
    2c60:	03000005 	movweq	r0, #5
    2c64:	000b269e 	muleq	fp, lr, r6
    2c68:	bc230300 	stclt	3, cr0, [r3], #-0
    2c6c:	09590b01 	ldmdbeq	r9, {r0, r8, r9, fp}^
    2c70:	9f030000 	svcls	0x00030000
    2c74:	00000b26 	andeq	r0, r0, r6, lsr #22
    2c78:	01c02303 	biceq	r2, r0, r3, lsl #6
    2c7c:	0008910b 	andeq	r9, r8, fp, lsl #2
    2c80:	59a00300 	stmibpl	r0!, {r8, r9}
    2c84:	0300000b 	movweq	r0, #11
    2c88:	0c01c423 	cfstrseq	mvf12, [r1], {35}	; 0x23
    2c8c:	00627355 	rsbeq	r7, r2, r5, asr r3
    2c90:	0b26a103 	bleq	9ab0a4 <__bss_end+0x9a7b54>
    2c94:	23030000 	movwcs	r0, #12288	; 0x3000
    2c98:	540b01cc 	strpl	r0, [fp], #-460	; 0x1cc
    2c9c:	0300000c 	movweq	r0, #12
    2ca0:	000b26a2 	andeq	r2, fp, r2, lsr #13
    2ca4:	d0230300 	eorle	r0, r3, r0, lsl #6
    2ca8:	07ce0b01 	strbeq	r0, [lr, r1, lsl #22]
    2cac:	a3030000 	movwge	r0, #12288	; 0x3000
    2cb0:	00000b6e 	andeq	r0, r0, lr, ror #22
    2cb4:	01d42303 	bicseq	r2, r4, r3, lsl #6
    2cb8:	000d130b 	andeq	r1, sp, fp, lsl #6
    2cbc:	26a40300 	strtcs	r0, [r4], r0, lsl #6
    2cc0:	0300000b 	movweq	r0, #11
    2cc4:	0b01f023 	bleq	7ed58 <__bss_end+0x7b808>
    2cc8:	00000bff 	strdeq	r0, [r0], -pc	; <UNPREDICTABLE>
    2ccc:	0b26a503 	bleq	9ac0e0 <__bss_end+0x9a8b90>
    2cd0:	23030000 	movwcs	r0, #12288	; 0x3000
    2cd4:	8e0b01f4 	mcrhi	1, 0, r0, cr11, cr4, {7}
    2cd8:	0300000c 	movweq	r0, #12
    2cdc:	000b26a6 	andeq	r2, fp, r6, lsr #13
    2ce0:	f8230300 			; <UNDEFINED> instruction: 0xf8230300
    2ce4:	09db0b01 	ldmibeq	fp, {r0, r8, r9, fp}^
    2ce8:	a7030000 	strge	r0, [r3, -r0]
    2cec:	00000b26 	andeq	r0, r0, r6, lsr #22
    2cf0:	01fc2303 	mvnseq	r2, r3, lsl #6
    2cf4:	0009ac0b 	andeq	sl, r9, fp, lsl #24
    2cf8:	26a80300 	strtcs	r0, [r8], r0, lsl #6
    2cfc:	0300000b 	movweq	r0, #11
    2d00:	0b028023 	bleq	a2d94 <__bss_end+0x9f844>
    2d04:	0000078e 	andeq	r0, r0, lr, lsl #15
    2d08:	0b26a903 	bleq	9ad11c <__bss_end+0x9a9bcc>
    2d0c:	23030000 	movwcs	r0, #12288	; 0x3000
    2d10:	b80b0284 	stmdalt	fp, {r2, r7, r9}
    2d14:	03000003 	movweq	r0, #3
    2d18:	000b26aa 	andeq	r2, fp, sl, lsr #13
    2d1c:	88230300 	stmdahi	r3!, {r8, r9}
    2d20:	050e0b02 	streq	r0, [lr, #-2818]	; 0xb02
    2d24:	ab030000 	blge	c2d2c <__bss_end+0xbf7dc>
    2d28:	00000b26 	andeq	r0, r0, r6, lsr #22
    2d2c:	028c2303 	addeq	r2, ip, #201326592	; 0xc000000
    2d30:	0003c40b 	andeq	ip, r3, fp, lsl #8
    2d34:	26ac0300 	strtcs	r0, [ip], r0, lsl #6
    2d38:	0300000b 	movweq	r0, #11
    2d3c:	0b029023 	bleq	a6dd0 <__bss_end+0xa3880>
    2d40:	000003d0 	ldrdeq	r0, [r0], -r0	; <UNPREDICTABLE>
    2d44:	0b26ad03 	bleq	9ae158 <__bss_end+0x9aac08>
    2d48:	23030000 	movwcs	r0, #12288	; 0x3000
    2d4c:	100b0294 	mulne	fp, r4, r2
    2d50:	03000004 	movweq	r0, #4
    2d54:	000b26ae 	andeq	r2, fp, lr, lsr #13
    2d58:	98230300 	stmdals	r3!, {r8, r9}
    2d5c:	04180b02 	ldreq	r0, [r8], #-2818	; 0xb02
    2d60:	af030000 	svcge	0x00030000
    2d64:	00000b26 	andeq	r0, r0, r6, lsr #22
    2d68:	029c2303 	addseq	r2, ip, #201326592	; 0xc000000
    2d6c:	0007df0b 	andeq	sp, r7, fp, lsl #30
    2d70:	83b00300 	movshi	r0, #0
    2d74:	0300000b 	movweq	r0, #11
    2d78:	0b02a023 	bleq	aae0c <__bss_end+0xa78bc>
    2d7c:	00000a58 	andeq	r0, r0, r8, asr sl
    2d80:	0b26b103 	bleq	9af194 <__bss_end+0x9abc44>
    2d84:	23030000 	movwcs	r0, #12288	; 0x3000
    2d88:	f10b02b0 			; <UNDEFINED> instruction: 0xf10b02b0
    2d8c:	0300000a 	movweq	r0, #10
    2d90:	000b26b2 			; <UNDEFINED> instruction: 0x000b26b2
    2d94:	b4230300 	strtlt	r0, [r3], #-768	; 0x300
    2d98:	043c0b02 	ldrteq	r0, [ip], #-2818	; 0xb02
    2d9c:	b3030000 	movwlt	r0, #12288	; 0x3000
    2da0:	00000b26 	andeq	r0, r0, r6, lsr #22
    2da4:	02b82303 	adcseq	r2, r8, #201326592	; 0xc000000
    2da8:	0065560c 	rsbeq	r5, r5, ip, lsl #12
    2dac:	0b26b403 	bleq	9afdc0 <__bss_end+0x9ac870>
    2db0:	23030000 	movwcs	r0, #12288	; 0x3000
    2db4:	9f0b02bc 	svcls	0x000b02bc
    2db8:	03000009 	movweq	r0, #9
    2dbc:	000b26b5 			; <UNDEFINED> instruction: 0x000b26b5
    2dc0:	c0230300 	eorgt	r0, r3, r0, lsl #6
    2dc4:	76410c02 	strbvc	r0, [r1], -r2, lsl #24
    2dc8:	b6030073 			; <UNDEFINED> instruction: 0xb6030073
    2dcc:	00000b26 	andeq	r0, r0, r6, lsr #22
    2dd0:	02c42303 	sbceq	r2, r4, #201326592	; 0xc000000
    2dd4:	0004480b 	andeq	r4, r4, fp, lsl #16
    2dd8:	26b70300 	ldrtcs	r0, [r7], r0, lsl #6
    2ddc:	0300000b 	movweq	r0, #11
    2de0:	0b02c823 	bleq	b4e74 <__bss_end+0xb1924>
    2de4:	000007ea 	andeq	r0, r0, sl, ror #15
    2de8:	0b26b803 	bleq	9b0dfc <__bss_end+0x9ad8ac>
    2dec:	23030000 	movwcs	r0, #12288	; 0x3000
    2df0:	9c0b02cc 	sfmls	f0, 4, [fp], {204}	; 0xcc
    2df4:	03000008 	movweq	r0, #8
    2df8:	000b26b9 			; <UNDEFINED> instruction: 0x000b26b9
    2dfc:	d0230300 	eorle	r0, r3, r0, lsl #6
    2e00:	0b830b02 	bleq	fe0c5a10 <__bss_end+0xfe0c24c0>
    2e04:	ba030000 	blt	c2e0c <__bss_end+0xbf8bc>
    2e08:	00000b26 	andeq	r0, r0, r6, lsr #22
    2e0c:	02d42303 	sbcseq	r2, r4, #201326592	; 0xc000000
    2e10:	0004ec0b 	andeq	lr, r4, fp, lsl #24
    2e14:	26bb0300 	ldrtcs	r0, [fp], r0, lsl #6
    2e18:	0300000b 	movweq	r0, #11
    2e1c:	0b02d823 	bleq	b8eb0 <__bss_end+0xb5960>
    2e20:	00000536 	andeq	r0, r0, r6, lsr r5
    2e24:	0b26bc03 	bleq	9b1e38 <__bss_end+0x9ae8e8>
    2e28:	23030000 	movwcs	r0, #12288	; 0x3000
    2e2c:	f80b02dc 			; <UNDEFINED> instruction: 0xf80b02dc
    2e30:	03000004 	movweq	r0, #4
    2e34:	000b26bd 			; <UNDEFINED> instruction: 0x000b26bd
    2e38:	e0230300 	eor	r0, r3, r0, lsl #6
    2e3c:	07f50b02 	ldrbeq	r0, [r5, r2, lsl #22]!
    2e40:	be030000 	cdplt	0, 0, cr0, cr3, cr0, {0}
    2e44:	00000b26 	andeq	r0, r0, r6, lsr #22
    2e48:	02e42303 	rsceq	r2, r4, #201326592	; 0xc000000
    2e4c:	000ad10b 	andeq	sp, sl, fp, lsl #2
    2e50:	26bf0300 	ldrtcs	r0, [pc], r0, lsl #6
    2e54:	0300000b 	movweq	r0, #11
    2e58:	0b02e823 	bleq	bceec <__bss_end+0xb999c>
    2e5c:	00000add 	ldrdeq	r0, [r0], -sp
    2e60:	0b26c003 	bleq	9b2e74 <__bss_end+0x9af924>
    2e64:	23030000 	movwcs	r0, #12288	; 0x3000
    2e68:	000b02ec 	andeq	r0, fp, ip, ror #5
    2e6c:	03000008 	movweq	r0, #8
    2e70:	000b88c1 	andeq	r8, fp, r1, asr #17
    2e74:	f0230300 			; <UNDEFINED> instruction: 0xf0230300
    2e78:	0ce10b02 	vstmiaeq	r1!, {d16}
    2e7c:	c2030000 	andgt	r0, r3, #0
    2e80:	00000b26 	andeq	r0, r0, r6, lsr #22
    2e84:	03802303 	orreq	r2, r0, #201326592	; 0xc000000
    2e88:	0006760b 	andeq	r7, r6, fp, lsl #12
    2e8c:	26c30300 	strbcs	r0, [r3], r0, lsl #6
    2e90:	0300000b 	movweq	r0, #11
    2e94:	0b038423 	bleq	e3f28 <__bss_end+0xe09d8>
    2e98:	00000682 	andeq	r0, r0, r2, lsl #13
    2e9c:	0b26c403 	bleq	9b3eb0 <__bss_end+0x9b0960>
    2ea0:	23030000 	movwcs	r0, #12288	; 0x3000
    2ea4:	8e0b0388 	cdphi	3, 0, cr0, cr11, cr8, {4}
    2ea8:	03000006 	movweq	r0, #6
    2eac:	000b26c5 	andeq	r2, fp, r5, asr #13
    2eb0:	8c230300 	stchi	3, cr0, [r3], #-0
    2eb4:	080b0b03 	stmdaeq	fp, {r0, r1, r8, r9, fp}
    2eb8:	c6030000 	strgt	r0, [r3], -r0
    2ebc:	00000b8d 	andeq	r0, r0, sp, lsl #23
    2ec0:	03902303 	orrseq	r2, r0, #201326592	; 0xc000000
    2ec4:	0006ab0b 	andeq	sl, r6, fp, lsl #22
    2ec8:	26c70300 	strbcs	r0, [r7], r0, lsl #6
    2ecc:	0300000b 	movweq	r0, #11
    2ed0:	0b03a023 	bleq	eaf64 <__bss_end+0xe7a14>
    2ed4:	0000062c 	andeq	r0, r0, ip, lsr #12
    2ed8:	0b26c803 	bleq	9b4eec <__bss_end+0x9b199c>
    2edc:	23030000 	movwcs	r0, #12288	; 0x3000
    2ee0:	090b03a4 	stmdbeq	fp, {r2, r5, r7, r8, r9}
    2ee4:	03000009 	movweq	r0, #9
    2ee8:	000b26c9 	andeq	r2, fp, r9, asr #13
    2eec:	a8230300 	stmdage	r3!, {r8, r9}
    2ef0:	06eb0b03 	strbteq	r0, [fp], r3, lsl #22
    2ef4:	ca030000 	bgt	c2efc <__bss_end+0xbf9ac>
    2ef8:	00000b26 	andeq	r0, r0, r6, lsr #22
    2efc:	03ac2303 			; <UNDEFINED> instruction: 0x03ac2303
    2f00:	0006f70b 	andeq	pc, r6, fp, lsl #14
    2f04:	26cb0300 	strbcs	r0, [fp], r0, lsl #6
    2f08:	0300000b 	movweq	r0, #11
    2f0c:	0b03b023 	bleq	eefa0 <__bss_end+0xeba50>
    2f10:	000008bb 			; <UNDEFINED> instruction: 0x000008bb
    2f14:	0ba2cc03 	bleq	fe8b5f28 <__bss_end+0xfe8b29d8>
    2f18:	23030000 	movwcs	r0, #12288	; 0x3000
    2f1c:	f00b03b4 			; <UNDEFINED> instruction: 0xf00b03b4
    2f20:	03000003 	movweq	r0, #3
    2f24:	000b26cd 	andeq	r2, fp, sp, asr #13
    2f28:	c0230300 	eorgt	r0, r3, r0, lsl #6
    2f2c:	07a30b03 	streq	r0, [r3, r3, lsl #22]!
    2f30:	ce030000 	cdpgt	0, 0, cr0, cr3, cr0, {0}
    2f34:	00000bb7 			; <UNDEFINED> instruction: 0x00000bb7
    2f38:	03c42303 	biceq	r2, r4, #201326592	; 0xc000000
    2f3c:	00069a0b 	andeq	r9, r6, fp, lsl #20
    2f40:	bccf0300 	stcllt	3, cr0, [pc], {0}
    2f44:	0300000b 	movweq	r0, #11
    2f48:	0b048023 	bleq	122fdc <__bss_end+0x11fa8c>
    2f4c:	0000097f 	andeq	r0, r0, pc, ror r9
    2f50:	0b26d003 	bleq	9b6f64 <__bss_end+0x9b3a14>
    2f54:	23030000 	movwcs	r0, #12288	; 0x3000
    2f58:	980b0484 	stmdals	fp, {r2, r7, sl}
    2f5c:	0300000c 	movweq	r0, #12
    2f60:	000b26d1 	ldrdeq	r2, [fp], -r1
    2f64:	88230300 	stmdahi	r3!, {r8, r9}
    2f68:	0c600b04 	stcleq	11, cr0, [r0], #-16
    2f6c:	d2030000 	andle	r0, r3, #0
    2f70:	00000b26 	andeq	r0, r0, r6, lsr #22
    2f74:	048c2303 	streq	r2, [ip], #771	; 0x303
    2f78:	0005c50b 	andeq	ip, r5, fp, lsl #10
    2f7c:	c1d30300 	bicsgt	r0, r3, r0, lsl #6
    2f80:	0300000b 	movweq	r0, #11
    2f84:	0b049023 	bleq	127018 <__bss_end+0x123ac8>
    2f88:	00000856 	andeq	r0, r0, r6, asr r8
    2f8c:	0bd6d503 	bleq	ff5b83a0 <__bss_end+0xff5b4e50>
    2f90:	23030000 	movwcs	r0, #12288	; 0x3000
    2f94:	c80b04a0 	stmdagt	fp, {r5, r7, sl}
    2f98:	03000004 	movweq	r0, #4
    2f9c:	000b26d6 	ldrdeq	r2, [fp], -r6
    2fa0:	a4230300 	strtge	r0, [r3], #-768	; 0x300
    2fa4:	03e20b04 	mvneq	r0, #4096	; 0x1000
    2fa8:	d7030000 	strle	r0, [r3, -r0]
    2fac:	00000b26 	andeq	r0, r0, r6, lsr #22
    2fb0:	04a82303 	strteq	r2, [r8], #771	; 0x303
    2fb4:	00087a0b 	andeq	r7, r8, fp, lsl #20
    2fb8:	26d80300 	ldrbcs	r0, [r8], r0, lsl #6
    2fbc:	0300000b 	movweq	r0, #11
    2fc0:	0b04ac23 	bleq	12e054 <__bss_end+0x12ab04>
    2fc4:	000006d3 	ldrdeq	r0, [r0], -r3
    2fc8:	0b26d903 	bleq	9b93dc <__bss_end+0x9b5e8c>
    2fcc:	23030000 	movwcs	r0, #12288	; 0x3000
    2fd0:	650b04b0 	strvs	r0, [fp, #-1200]	; 0x4b0
    2fd4:	0300000b 	movweq	r0, #11
    2fd8:	000b26da 	ldrdeq	r2, [fp], -sl
    2fdc:	b4230300 	strtlt	r0, [r3], #-768	; 0x300
    2fe0:	0d4f0b04 	vstreq	d16, [pc, #-16]	; 2fd8 <CSWTCH.12+0x1c>
    2fe4:	db030000 	blle	c2fec <__bss_end+0xbfa9c>
    2fe8:	00000b26 	andeq	r0, r0, r6, lsr #22
    2fec:	04b82303 	ldrteq	r2, [r8], #771	; 0x303
    2ff0:	0006070b 	andeq	r0, r6, fp, lsl #14
    2ff4:	26dc0300 	ldrbcs	r0, [ip], r0, lsl #6
    2ff8:	0300000b 	movweq	r0, #11
    2ffc:	0b04bc23 	bleq	132090 <__bss_end+0x12eb40>
    3000:	000006de 	ldrdeq	r0, [r0], -lr
    3004:	0b26dd03 	bleq	9ba418 <__bss_end+0x9b6ec8>
    3008:	23030000 	movwcs	r0, #12288	; 0x3000
    300c:	1b0b04c0 	blne	2c4314 <__bss_end+0x2c0dc4>
    3010:	03000005 	movweq	r0, #5
    3014:	000b26de 	ldrdeq	r2, [fp], -lr
    3018:	c4230300 	strtgt	r0, [r3], #-768	; 0x300
    301c:	09c90b04 	stmibeq	r9, {r2, r8, r9, fp}^
    3020:	df030000 	svcle	0x00030000
    3024:	00000b26 	andeq	r0, r0, r6, lsr #22
    3028:	04c82303 	strbeq	r2, [r8], #771	; 0x303
    302c:	0009fc0b 	andeq	pc, r9, fp, lsl #24
    3030:	26e00300 	strbtcs	r0, [r0], r0, lsl #6
    3034:	0300000b 	movweq	r0, #11
    3038:	0b04cc23 	bleq	1360cc <__bss_end+0x132b7c>
    303c:	0000052e 	andeq	r0, r0, lr, lsr #10
    3040:	0b26e203 	bleq	9bb854 <__bss_end+0x9b8304>
    3044:	23030000 	movwcs	r0, #12288	; 0x3000
    3048:	c00b04d0 	ldrdgt	r0, [fp], -r0	; <UNPREDICTABLE>
    304c:	03000009 	movweq	r0, #9
    3050:	000b26e3 	andeq	r2, fp, r3, ror #13
    3054:	d4230300 	strtle	r0, [r3], #-768	; 0x300
    3058:	05d10b04 	ldrbeq	r0, [r1, #2820]	; 0xb04
    305c:	e5030000 	str	r0, [r3, #-0]
    3060:	00000bdb 	ldrdeq	r0, [r0], -fp
    3064:	04d82303 	ldrbeq	r2, [r8], #771	; 0x303
    3068:	000a150b 	andeq	r1, sl, fp, lsl #10
    306c:	26e60300 	strbtcs	r0, [r6], r0, lsl #6
    3070:	0300000b 	movweq	r0, #11
    3074:	0b04e023 	bleq	13b108 <__bss_end+0x137bb8>
    3078:	000005dd 	ldrdeq	r0, [r0], -sp
    307c:	0be0e703 	bleq	ff83cc90 <__bss_end+0xff839740>
    3080:	23030000 	movwcs	r0, #12288	; 0x3000
    3084:	900b04e4 	andls	r0, fp, r4, ror #9
    3088:	03000005 	movweq	r0, #5
    308c:	000b26e8 	andeq	r2, fp, r8, ror #13
    3090:	f0230300 			; <UNDEFINED> instruction: 0xf0230300
    3094:	05e90b04 	strbeq	r0, [r9, #2820]!	; 0xb04
    3098:	e9030000 	stmdb	r3, {}	; <UNPREDICTABLE>
    309c:	00000be5 	andeq	r0, r0, r5, ror #23
    30a0:	04f42303 	ldrbteq	r2, [r4], #771	; 0x303
    30a4:	0009350b 	andeq	r3, r9, fp, lsl #10
    30a8:	26ea0300 	strbtcs	r0, [sl], r0, lsl #6
    30ac:	0300000b 	movweq	r0, #11
    30b0:	0b058023 	bleq	163144 <__bss_end+0x15fbf4>
    30b4:	000009e8 	andeq	r0, r0, r8, ror #19
    30b8:	0b26ec03 	bleq	9be0cc <__bss_end+0x9bab7c>
    30bc:	23030000 	movwcs	r0, #12288	; 0x3000
    30c0:	c60b0584 	strgt	r0, [fp], -r4, lsl #11
    30c4:	03000008 	movweq	r0, #8
    30c8:	000b26ed 	andeq	r2, fp, sp, ror #13
    30cc:	88230300 	stmdahi	r3!, {r8, r9}
    30d0:	09880b05 	stmibeq	r8, {r0, r2, r8, r9, fp}
    30d4:	ee030000 	cdp	0, 0, cr0, cr3, cr0, {0}
    30d8:	00000b26 	andeq	r0, r0, r6, lsr #22
    30dc:	058c2303 	streq	r2, [ip, #771]	; 0x303
    30e0:	000b8f0b 	andeq	r8, fp, fp, lsl #30
    30e4:	26ef0300 	strbtcs	r0, [pc], r0, lsl #6
    30e8:	0300000b 	movweq	r0, #11
    30ec:	0b059023 	bleq	167180 <__bss_end+0x163c30>
    30f0:	000005fb 	strdeq	r0, [r0], -fp
    30f4:	0beaf003 	bleq	ffabf108 <__bss_end+0xffabbbb8>
    30f8:	23030000 	movwcs	r0, #12288	; 0x3000
    30fc:	6b0b0594 	blvs	2c4754 <__bss_end+0x2c1204>
    3100:	03000009 	movweq	r0, #9
    3104:	000b26f1 	strdeq	r2, [fp], -r1
    3108:	a4230300 	strtge	r0, [r3], #-768	; 0x300
    310c:	0c700b05 	ldcleq	11, cr0, [r0], #-20	; 0xffffffec
    3110:	f2030000 	vhadd.s8	d0, d3, d0
    3114:	00000b26 	andeq	r0, r0, r6, lsr #22
    3118:	05a82303 	streq	r2, [r8, #771]!	; 0x303
    311c:	0003880b 	andeq	r8, r3, fp, lsl #16
    3120:	26f30300 	ldrbtcs	r0, [r3], r0, lsl #6
    3124:	0300000b 	movweq	r0, #11
    3128:	0b05ac23 	bleq	16e1bc <__bss_end+0x16ac6c>
    312c:	00000bed 	andeq	r0, r0, sp, ror #23
    3130:	0b26f403 	bleq	9c0144 <__bss_end+0x9bcbf4>
    3134:	23030000 	movwcs	r0, #12288	; 0x3000
    3138:	950b05b0 	strls	r0, [fp, #-1456]	; 0x5b0
    313c:	03000003 	movweq	r0, #3
    3140:	000beff5 	strdeq	lr, [fp], -r5
    3144:	b4230300 	strtlt	r0, [r3], #-768	; 0x300
    3148:	09170b05 	ldmdbeq	r7, {r0, r2, r8, r9, fp}
    314c:	f7030000 			; <UNDEFINED> instruction: 0xf7030000
    3150:	00000b26 	andeq	r0, r0, r6, lsr #22
    3154:	05c02303 	strbeq	r2, [r0, #771]	; 0x303
    3158:	0009210b 	andeq	r2, r9, fp, lsl #2
    315c:	26f80300 	ldrbtcs	r0, [r8], r0, lsl #6
    3160:	0300000b 	movweq	r0, #11
    3164:	0b05c423 	bleq	1741f8 <__bss_end+0x170ca8>
    3168:	0000092b 	andeq	r0, r0, fp, lsr #18
    316c:	0b26f903 	bleq	9c1580 <__bss_end+0x9be030>
    3170:	23030000 	movwcs	r0, #12288	; 0x3000
    3174:	640b05c8 	strvs	r0, [fp], #-1480	; 0x5c8
    3178:	03000008 	movweq	r0, #8
    317c:	000b26fa 	strdeq	r2, [fp], -sl
    3180:	cc230300 	stcgt	3, cr0, [r3], #-0
    3184:	0a680b05 	beq	1a05da0 <__bss_end+0x1a02850>
    3188:	fb030000 	blx	c3192 <__bss_end+0xbfc42>
    318c:	00000b26 	andeq	r0, r0, r6, lsr #22
    3190:	05d02303 	ldrbeq	r2, [r0, #771]	; 0x303
    3194:	00086f0b 	andeq	r6, r8, fp, lsl #30
    3198:	26fc0300 	ldrbtcs	r0, [ip], r0, lsl #6
    319c:	0300000b 	movweq	r0, #11
    31a0:	0b05d423 	bleq	178234 <__bss_end+0x174ce4>
    31a4:	00000645 	andeq	r0, r0, r5, asr #12
    31a8:	0b26fd03 	bleq	9c25bc <__bss_end+0x9bf06c>
    31ac:	23030000 	movwcs	r0, #12288	; 0x3000
    31b0:	0d0005d8 	cfstr32eq	mvfx0, [r0, #-864]	; 0xfffffca0
    31b4:	00000123 	andeq	r0, r0, r3, lsr #2
    31b8:	0000530d 	andeq	r5, r0, sp, lsl #6
    31bc:	01de0d00 	bicseq	r0, lr, r0, lsl #26
    31c0:	6d0d0000 	stcvs	0, cr0, [sp, #-0]
    31c4:	0d000002 	stceq	0, cr0, [r0, #-8]
    31c8:	00000306 	andeq	r0, r0, r6, lsl #6
    31cc:	0000530e 	andeq	r5, r0, lr, lsl #6
    31d0:	000b4a00 	andeq	r4, fp, r0, lsl #20
    31d4:	005e0f00 	subseq	r0, lr, r0, lsl #30
    31d8:	00010000 	andeq	r0, r1, r0
    31dc:	000b3a0d 	andeq	r3, fp, sp, lsl #20
    31e0:	0b3a0d00 	bleq	e865e8 <__bss_end+0xe83098>
    31e4:	3a0d0000 	bcc	3431ec <__bss_end+0x33fc9c>
    31e8:	0d00000b 	stceq	0, cr0, [r0, #-44]	; 0xffffffd4
    31ec:	00000b3a 	andeq	r0, r0, sl, lsr fp
    31f0:	0000530e 	andeq	r5, r0, lr, lsl #6
    31f4:	000b6e00 	andeq	r6, fp, r0, lsl #28
    31f8:	005e0f00 	subseq	r0, lr, r0, lsl #30
    31fc:	00060000 	andeq	r0, r6, r0
    3200:	000b5e0d 	andeq	r5, fp, sp, lsl #28
    3204:	00530e00 	subseq	r0, r3, r0, lsl #28
    3208:	0b830000 	bleq	fe0c3210 <__bss_end+0xfe0bfcc0>
    320c:	5e0f0000 	cdppl	0, 0, cr0, cr15, cr0, {0}
    3210:	03000000 	movweq	r0, #0
    3214:	0b730d00 	bleq	1cc661c <__bss_end+0x1cc30cc>
    3218:	730d0000 	movwvc	r0, #53248	; 0xd000
    321c:	0d00000b 	stceq	0, cr0, [r0, #-44]	; 0xffffffd4
    3220:	00000b73 	andeq	r0, r0, r3, ror fp
    3224:	0000530e 	andeq	r5, r0, lr, lsl #6
    3228:	000ba200 	andeq	sl, fp, r0, lsl #4
    322c:	005e0f00 	subseq	r0, lr, r0, lsl #30
    3230:	00020000 	andeq	r0, r2, r0
    3234:	000b920d 	andeq	r9, fp, sp, lsl #4
    3238:	00530e00 	subseq	r0, r3, r0, lsl #28
    323c:	0bb70000 	bleq	fedc3244 <__bss_end+0xfedbfcf4>
    3240:	5e0f0000 	cdppl	0, 0, cr0, cr15, cr0, {0}
    3244:	0e000000 	cdpeq	0, 0, cr0, cr0, cr0, {0}
    3248:	0ba70d00 	bleq	fe9c6650 <__bss_end+0xfe9c3100>
    324c:	400d0000 	andmi	r0, sp, r0
    3250:	0d000003 	stceq	0, cr0, [r0, #-12]
    3254:	00000b73 	andeq	r0, r0, r3, ror fp
    3258:	0000530e 	andeq	r5, r0, lr, lsl #6
    325c:	000bd600 	andeq	sp, fp, r0, lsl #12
    3260:	005e0f00 	subseq	r0, lr, r0, lsl #30
    3264:	00000000 	andeq	r0, r0, r0
    3268:	000bc60d 	andeq	ip, fp, sp, lsl #12
    326c:	0b3a0d00 	bleq	e86674 <__bss_end+0xe83124>
    3270:	920d0000 	andls	r0, sp, #0
    3274:	0d00000b 	stceq	0, cr0, [r0, #-44]	; 0xffffffd4
    3278:	00000b92 	muleq	r0, r2, fp
    327c:	000b730d 	andeq	r7, fp, sp, lsl #6
    3280:	0b920d00 	bleq	fe486688 <__bss_end+0xfe483138>
    3284:	b2030000 	andlt	r0, r3, #0
    3288:	0300000b 	movweq	r0, #11
    328c:	00034bfe 	strdeq	r4, [r3], -lr
    3290:	f4041000 	vst4.8	{d1-d4}, [r4], r0
    3294:	1100000b 	tstne	r0, fp
    3298:	00000031 	andeq	r0, r0, r1, lsr r0
    329c:	72890404 	addvc	r0, r9, #67108864	; 0x4000000
    32a0:	1200000c 	andne	r0, r0, #12
    32a4:	0000001e 	andeq	r0, r0, lr, lsl r0
    32a8:	00a41200 	adceq	r1, r4, r0, lsl #4
    32ac:	12010000 	andne	r0, r1, #0
    32b0:	00000047 	andeq	r0, r0, r7, asr #32
    32b4:	00811202 	addeq	r1, r1, r2, lsl #4
    32b8:	12030000 	andne	r0, r3, #0
    32bc:	000001bf 			; <UNDEFINED> instruction: 0x000001bf
    32c0:	011c1204 	tsteq	ip, r4, lsl #4
    32c4:	12050000 	andne	r0, r5, #0
    32c8:	00000104 	andeq	r0, r0, r4, lsl #2
    32cc:	013f1206 	teqeq	pc, r6, lsl #4
    32d0:	12070000 	andne	r0, r7, #0
    32d4:	00000012 	andeq	r0, r0, r2, lsl r0
    32d8:	00761208 	rsbseq	r1, r6, r8, lsl #4
    32dc:	12090000 	andne	r0, r9, #0
    32e0:	00000111 	andeq	r0, r0, r1, lsl r1
    32e4:	01cb120a 	biceq	r1, fp, sl, lsl #4
    32e8:	120b0000 	andne	r0, fp, #0
    32ec:	0000002b 	andeq	r0, r0, fp, lsr #32
    32f0:	01a3120c 			; <UNDEFINED> instruction: 0x01a3120c
    32f4:	120d0000 	andne	r0, sp, #0
    32f8:	00000250 	andeq	r0, r0, r0, asr r2
    32fc:	0039120e 	eorseq	r1, r9, lr, lsl #4
    3300:	000f0000 	andeq	r0, pc, r0
    3304:	96080102 	strls	r0, [r8], -r2, lsl #2
    3308:	02000000 	andeq	r0, r0, #0
    330c:	012d0704 	teqeq	sp, r4, lsl #14
    3310:	e9130000 	ldmdb	r3, {}	; <UNPREDICTABLE>
    3314:	01000013 	tsteq	r0, r3, lsl r0
    3318:	00530111 	subseq	r0, r3, r1, lsl r1
    331c:	e8010000 	stmda	r1, {}	; <UNPREDICTABLE>
    3320:	1400000c 	strne	r0, [r0], #-12
    3324:	000014fc 	strdeq	r1, [r0], -ip
    3328:	00531101 	subseq	r1, r3, r1, lsl #2
    332c:	68150000 	ldmdavs	r5, {}	; <UNPREDICTABLE>
    3330:	01000014 	tsteq	r0, r4, lsl r0
    3334:	00005313 	andeq	r5, r0, r3, lsl r3
    3338:	14b81500 	ldrtne	r1, [r8], #1280	; 0x500
    333c:	14010000 	strne	r0, [r1], #-0
    3340:	00000053 	andeq	r0, r0, r3, asr r0
    3344:	67657216 			; <UNDEFINED> instruction: 0x67657216
    3348:	e8160100 	ldmda	r6, {r8}
    334c:	1500000c 	strne	r0, [r0, #-12]
    3350:	000014e0 	andeq	r1, r0, r0, ror #9
    3354:	0bff1701 	bleq	fffc8f60 <__bss_end+0xfffc5a10>
    3358:	7c150000 	ldcvc	0, cr0, [r5], {-0}
    335c:	01000015 	tsteq	r0, r5, lsl r0
    3360:	00030618 	andeq	r0, r3, r8, lsl r6
    3364:	159b1500 	ldrne	r1, [fp, #1280]	; 0x500
    3368:	1a010000 	bne	43370 <__bss_end+0x3fe20>
    336c:	00000053 	andeq	r0, r0, r3, asr r0
    3370:	01006916 	tsteq	r0, r6, lsl r9
    3374:	0000531b 	andeq	r5, r0, fp, lsl r3
    3378:	04100000 	ldreq	r0, [r0], #-0
    337c:	00000cee 	andeq	r0, r0, lr, ror #25
    3380:	00005e0d 	andeq	r5, r0, sp, lsl #28
    3384:	14831700 	strne	r1, [r3], #1792	; 0x700
    3388:	5b010000 	blpl	43390 <__bss_end+0x3fe40>
    338c:	0c010101 	stfeqs	f0, [r1], {1}
    3390:	1800000d 	stmdane	r0, {r0, r2, r3}
    3394:	5b010063 	blpl	43528 <__bss_end+0x3ffd8>
    3398:	000c7201 	andeq	r7, ip, r1, lsl #4
    339c:	85190000 	ldrhi	r0, [r9, #-0]
    33a0:	01000015 	tsteq	r0, r5, lsl r0
    33a4:	72010167 	andvc	r0, r1, #-1073741799	; 0xc0000019
    33a8:	0100000c 	tsteq	r0, ip
    33ac:	00000d2b 	andeq	r0, r0, fp, lsr #26
    33b0:	0007811a 	andeq	r8, r7, sl, lsl r1
    33b4:	01690100 	cmneq	r9, r0, lsl #2
    33b8:	00000053 	andeq	r0, r0, r3, asr r0
    33bc:	e8011b00 	stmda	r1, {r8, r9, fp, ip}
    33c0:	01000014 	tsteq	r0, r4, lsl r0
    33c4:	01010198 			; <UNDEFINED> instruction: 0x01010198
    33c8:	1505011b 	strne	r0, [r5, #-283]	; 0x11b
    33cc:	9f010000 	svcls	0x00010000
    33d0:	17010101 	strne	r0, [r1, -r1, lsl #2]
    33d4:	000014a8 	andeq	r1, r0, r8, lsr #9
    33d8:	0101c501 	tsteq	r1, r1, lsl #10
    33dc:	000d5a01 	andeq	r5, sp, r1, lsl #20
    33e0:	00631800 	rsbeq	r1, r3, r0, lsl #16
    33e4:	7201c501 	andvc	ip, r1, #4194304	; 0x400000
    33e8:	0000000c 	andeq	r0, r0, ip
    33ec:	00144619 	andseq	r4, r4, r9, lsl r6
    33f0:	01d10100 	bicseq	r0, r1, r0, lsl #2
    33f4:	000c7201 	andeq	r7, ip, r1, lsl #4
    33f8:	0d790100 	ldfeqe	f0, [r9, #-0]
    33fc:	811a0000 	tsthi	sl, r0
    3400:	01000007 	tsteq	r0, r7
    3404:	005301d3 	ldrsbeq	r0, [r3], #-19	; 0xffffffed
    3408:	1c000000 	stcne	0, cr0, [r0], {-0}
    340c:	0000140d 	andeq	r1, r0, sp, lsl #8
    3410:	b001d901 	andlt	sp, r1, r1, lsl #18
    3414:	58000016 	stmdapl	r0, {r1, r2, r4}
    3418:	e2000017 	and	r0, r0, #23
    341c:	e7000006 	str	r0, [r0, -r6]
    3420:	1d00000d 	stcne	0, cr0, [r0, #-52]	; 0xffffffcc
    3424:	000014fc 	strdeq	r1, [r0], -ip
    3428:	0053d901 	subseq	sp, r3, r1, lsl #18
    342c:	07020000 	streq	r0, [r2, -r0]
    3430:	c51d0000 	ldrgt	r0, [sp, #-0]
    3434:	01000014 	tsteq	r0, r4, lsl r0
    3438:	000053d9 	ldrdeq	r5, [r0], -r9
    343c:	00072000 	andeq	r2, r7, r0
    3440:	00691e00 	rsbeq	r1, r9, r0, lsl #28
    3444:	0053db01 	subseq	sp, r3, r1, lsl #22
    3448:	1f000000 	svcne	0x00000000
    344c:	00676572 	rsbeq	r6, r7, r2, ror r5
    3450:	0ce8dc01 	stcleq	12, cr13, [r8], #4
    3454:	073e0000 	ldreq	r0, [lr, -r0]!
    3458:	99200000 	stmdbls	r0!, {}	; <UNPREDICTABLE>
    345c:	01000014 	tsteq	r0, r4, lsl r0
    3460:	000053dd 	ldrdeq	r5, [r0], -sp
    3464:	00077900 	andeq	r7, r7, r0, lsl #18
    3468:	13f82000 	mvnsne	r2, #0
    346c:	de010000 	cdple	0, 0, cr0, cr1, cr0, {0}
    3470:	00000053 	andeq	r0, r0, r3, asr r0
    3474:	00000799 	muleq	r0, r9, r7
    3478:	0c802100 	stfeqs	f2, [r0], {0}
    347c:	17580000 	ldrbne	r0, [r8, -r0]
    3480:	18040000 	stmdane	r4, {}	; <UNPREDICTABLE>
    3484:	07c40000 	strbeq	r0, [r4, r0]
    3488:	0e840000 	cdpeq	0, 8, cr0, cr4, cr0, {0}
    348c:	91220000 	teqls	r2, r0
    3490:	e400000c 	str	r0, [r0], #-12
    3494:	23000007 	movwcs	r0, #7
    3498:	00000c9c 	muleq	r0, ip, ip
    349c:	00000802 	andeq	r0, r0, r2, lsl #16
    34a0:	000ca723 	andeq	sl, ip, r3, lsr #14
    34a4:	00082100 	andeq	r2, r8, r0, lsl #2
    34a8:	0cb22300 	ldceq	3, cr2, [r2]
    34ac:	084b0000 	stmdaeq	fp, {}^	; <UNPREDICTABLE>
    34b0:	bd230000 	stclt	0, cr0, [r3, #-0]
    34b4:	7f00000c 	svcvc	0x0000000c
    34b8:	23000008 	movwcs	r0, #8
    34bc:	00000cc8 	andeq	r0, r0, r8, asr #25
    34c0:	0000089e 	muleq	r0, lr, r8
    34c4:	000cd324 	andeq	sp, ip, r4, lsr #6
    34c8:	de240000 	cdple	0, 2, cr0, cr4, cr0, {0}
    34cc:	0000000c 	andeq	r0, r0, ip
    34d0:	000c8025 	andeq	r8, ip, r5, lsr #32
    34d4:	00179400 	andseq	r9, r7, r0, lsl #8
    34d8:	00000000 	andeq	r0, r0, r0
    34dc:	26110100 	ldrcs	r0, [r1], -r0, lsl #2
    34e0:	00000018 	andeq	r0, r0, r8, lsl r0
    34e4:	000c9c27 	andeq	r9, ip, r7, lsr #24
    34e8:	0ca72700 	stceq	7, cr2, [r7]
    34ec:	b2280000 	eorlt	r0, r8, #0
    34f0:	d800000c 	stmdale	r0, {r2, r3}
    34f4:	7f8e8885 	svcvc	0x008e8885
    34f8:	000cbd27 	andeq	fp, ip, r7, lsr #26
    34fc:	0cc82700 	stcleq	7, cr2, [r8], {0}
    3500:	91290000 	teqls	r9, r0
    3504:	2400000c 	strcs	r0, [r0], #-12
    3508:	00000cd3 	ldrdeq	r0, [r0], -r3
    350c:	0cde2400 	cfldrdeq	mvd2, [lr], {0}
    3510:	00000000 	andeq	r0, r0, r0
    3514:	012a0000 	teqeq	sl, r0
    3518:	000015a0 	andeq	r1, r0, r0, lsr #11
    351c:	01010701 	tsteq	r1, r1, lsl #14
    3520:	00001804 	andeq	r1, r0, r4, lsl #16
    3524:	00001844 	andeq	r1, r0, r4, asr #16
    3528:	ae007d02 	cdpge	13, 0, cr7, cr0, cr2, {0}
    352c:	2b00000e 	blcs	356c <__bss_end+0x1c>
    3530:	00000d36 	andeq	r0, r0, r6, lsr sp
    3534:	00001834 	andeq	r1, r0, r4, lsr r8
    3538:	0000183c 	andeq	r1, r0, ip, lsr r8
    353c:	00011401 	andeq	r1, r1, r1, lsl #8
    3540:	1456012c 	ldrbne	r0, [r6], #-300	; 0x12c
    3544:	3f010000 	svccc	0x00010000
    3548:	18440101 	stmdane	r4, {r0, r8}^
    354c:	18c80000 	stmiane	r8, {}^	; <UNPREDICTABLE>
    3550:	08b10000 	ldmeq	r1!, {}	; <UNPREDICTABLE>
    3554:	0f180000 	svceq	0x00180000
    3558:	c52d0000 	strgt	r0, [sp, #-0]!
    355c:	01000014 	tsteq	r0, r4, lsl r0
    3560:	0053013f 	subseq	r0, r3, pc, lsr r1
    3564:	08d10000 	ldmeq	r1, {}^	; <UNPREDICTABLE>
    3568:	642e0000 	strtvs	r0, [lr], #-0
    356c:	41010066 	tstmi	r1, r6, rrx
    3570:	00005301 	andeq	r5, r0, r1, lsl #6
    3574:	0008ef00 	andeq	lr, r8, r0, lsl #30
    3578:	636c2e00 	cmnvs	ip, #0
    357c:	42010072 	andmi	r0, r1, #114	; 0x72
    3580:	00005301 	andeq	r5, r0, r1, lsl #6
    3584:	00091200 	andeq	r1, r9, r0, lsl #4
    3588:	14b82f00 	ldrtne	r2, [r8], #3840	; 0xf00
    358c:	43010000 	movwmi	r0, #4096	; 0x1000
    3590:	00005301 	andeq	r5, r0, r1, lsl #6
    3594:	00093100 	andeq	r3, r9, r0, lsl #2
    3598:	0d2b3000 	stceq	0, cr3, [fp, #-0]
    359c:	18800000 	stmne	r0, {}	; <UNPREDICTABLE>
    35a0:	00300000 	eorseq	r0, r0, r0
    35a4:	57010000 	strpl	r0, [r1, -r0]
    35a8:	01310001 	teqeq	r1, r1
    35ac:	00001471 	andeq	r1, r0, r1, ror r4
    35b0:	01017001 	tsteq	r1, r1
    35b4:	00000041 	andeq	r0, r0, r1, asr #32
    35b8:	000018c8 	andeq	r1, r0, r8, asr #17
    35bc:	00001978 	andeq	r1, r0, r8, ror r9
    35c0:	0000095f 	andeq	r0, r0, pc, asr r9
    35c4:	00000f7b 	andeq	r0, r0, fp, ror pc
    35c8:	00165d2d 	andseq	r5, r6, sp, lsr #26
    35cc:	01700100 	cmneq	r0, r0, lsl #2
    35d0:	00000f7b 	andeq	r0, r0, fp, ror pc
    35d4:	0000097f 	andeq	r0, r0, pc, ror r9
    35d8:	000cf332 	andeq	pc, ip, r2, lsr r3	; <UNPREDICTABLE>
    35dc:	0018ec00 	andseq	lr, r8, r0, lsl #24
    35e0:	00004800 	andeq	r4, r0, r0, lsl #16
    35e4:	017e0100 	cmneq	lr, r0, lsl #2
    35e8:	00000f60 	andeq	r0, r0, r0, ror #30
    35ec:	000d0129 	andeq	r0, sp, r9, lsr #2
    35f0:	f3330000 	vhadd.u<illegal width 64>	d0, d3, d0
    35f4:	0800000c 	stmdaeq	r0, {r2, r3}
    35f8:	30000019 	andcc	r0, r0, r9, lsl r0
    35fc:	01000019 	tsteq	r0, r9, lsl r0
    3600:	01220180 	smlawbeq	r2, r0, r1, r0
    3604:	aa00000d 	bge	3640 <__bss_end+0xf0>
    3608:	00000009 	andeq	r0, r0, r9
    360c:	81041000 	mrshi	r1, (UNDEF: 4)
    3610:	3400000f 	strcc	r0, [r0], #-15
    3614:	00000c72 	andeq	r0, r0, r2, ror ip
    3618:	15190131 	ldrne	r0, [r9, #-305]	; 0x131
    361c:	86010000 	strhi	r0, [r1], -r0
    3620:	00530101 	subseq	r0, r3, r1, lsl #2
    3624:	19780000 	ldmdbne	r8!, {}^	; <UNPREDICTABLE>
    3628:	1a040000 	bne	103630 <__bss_end+0x1000e0>
    362c:	09bd0000 	ldmibeq	sp!, {}	; <UNPREDICTABLE>
    3630:	0ffd0000 	svceq	0x00fd0000
    3634:	62350000 	eorsvs	r0, r5, #0
    3638:	01006675 	tsteq	r0, r5, ror r6
    363c:	0ffd0186 	svceq	0x00fd0186
    3640:	09dd0000 	ldmibeq	sp, {}^	; <UNPREDICTABLE>
    3644:	6e360000 	cdpvs	0, 3, cr0, cr6, cr0, {0}
    3648:	01860100 	orreq	r0, r6, r0, lsl #2
    364c:	00000053 	andeq	r0, r0, r3, asr r0
    3650:	692e5101 	stmdbvs	lr!, {r0, r8, ip, lr}
    3654:	01880100 	orreq	r0, r8, r0, lsl #2
    3658:	00000053 	andeq	r0, r0, r3, asr r0
    365c:	000009f0 	strdeq	r0, [r0], -r0	; <UNPREDICTABLE>
    3660:	0100632e 	tsteq	r0, lr, lsr #6
    3664:	0c720189 	ldfeqe	f0, [r2], #-548	; 0xfffffddc
    3668:	0a1b0000 	beq	6c3670 <__bss_end+0x6c0120>
    366c:	0c370000 	ldceq	0, cr0, [r7], #-0
    3670:	a400000d 	strge	r0, [r0], #-13
    3674:	68000019 	stmdavs	r0, {r0, r3, r4}
    3678:	01000000 	mrseq	r0, (UNDEF: 0)
    367c:	90260190 	mlals	r6, r0, r1, r0
    3680:	23000000 	movwcs	r0, #0
    3684:	00000d1e 	andeq	r0, r0, lr, lsl sp
    3688:	00000a3b 	andeq	r0, r0, fp, lsr sl
    368c:	10000000 	andne	r0, r0, r0
    3690:	000c7204 	andeq	r7, ip, r4, lsl #4
    3694:	0d2b3800 	stceq	8, cr3, [fp, #-0]
    3698:	1a040000 	bne	1036a0 <__bss_end+0x100150>
    369c:	1a180000 	bne	6036a4 <__bss_end+0x600154>
    36a0:	7d020000 	stcvc	0, cr0, [r2, #-0]
    36a4:	0d363800 	ldceq	8, cr3, [r6, #-0]
    36a8:	1a180000 	bne	6036b0 <__bss_end+0x600160>
    36ac:	1a2c0000 	bne	b036b4 <__bss_end+0xb00164>
    36b0:	7d020000 	stcvc	0, cr0, [r2, #-0]
    36b4:	29012c00 	stmdbcs	r1, {sl, fp, sp}
    36b8:	01000014 	tsteq	r0, r4, lsl r0
    36bc:	2c0101a5 	stfcss	f0, [r1], {165}	; 0xa5
    36c0:	b800001a 	stmdalt	r0, {r1, r3, r4}
    36c4:	6600001a 			; <UNDEFINED> instruction: 0x6600001a
    36c8:	8d00000a 	stchi	0, cr0, [r0, #-40]	; 0xffffffd8
    36cc:	2d000010 	stccs	0, cr0, [r0, #-64]	; 0xffffffc0
    36d0:	000014c5 	andeq	r1, r0, r5, asr #9
    36d4:	5301a501 	movwpl	sl, #5377	; 0x1501
    36d8:	86000000 	strhi	r0, [r0], -r0
    36dc:	2f00000a 	svccs	0x0000000a
    36e0:	000014b8 			; <UNDEFINED> instruction: 0x000014b8
    36e4:	5301a801 	movwpl	sl, #6145	; 0x1801
    36e8:	a4000000 	strge	r0, [r0], #-0
    36ec:	2e00000a 	cdpcs	0, 0, cr0, cr0, cr10, {0}
    36f0:	01006664 	tsteq	r0, r4, ror #12
    36f4:	005301a9 	subseq	r0, r3, r9, lsr #3
    36f8:	0ad20000 	beq	ff483700 <__bss_end+0xff4801b0>
    36fc:	6c2e0000 	stcvs	0, cr0, [lr], #-0
    3700:	01007263 	tsteq	r0, r3, ror #4
    3704:	005301aa 	subseq	r0, r3, sl, lsr #3
    3708:	0af50000 	beq	ffd43710 <__bss_end+0xffd401c0>
    370c:	2b2b0000 	blcs	ac3714 <__bss_end+0xac01c4>
    3710:	b000000d 	andlt	r0, r0, sp
    3714:	b400001a 	strlt	r0, [r0], #-26
    3718:	0100001a 	tsteq	r0, sl, lsl r0
    371c:	310001bf 			; <UNDEFINED> instruction: 0x310001bf
    3720:	00154101 	andseq	r4, r5, r1, lsl #2
    3724:	01e60100 	mvneq	r0, r0, lsl #2
    3728:	00004101 	andeq	r4, r0, r1, lsl #2
    372c:	001ab800 	andseq	fp, sl, r0, lsl #16
    3730:	001b6800 	andseq	r6, fp, r0, lsl #16
    3734:	000b1400 	andeq	r1, fp, r0, lsl #8
    3738:	0010f000 	andseq	pc, r0, r0
    373c:	165d2d00 	ldrbne	r2, [sp], -r0, lsl #26
    3740:	e6010000 	str	r0, [r1], -r0
    3744:	000f7b01 	andeq	r7, pc, r1, lsl #22
    3748:	000b3400 	andeq	r3, fp, r0, lsl #8
    374c:	0d413200 	sfmeq	f3, 2, [r1, #-0]
    3750:	1adc0000 	bne	ff703758 <__bss_end+0xff700208>
    3754:	00b80000 	adcseq	r0, r8, r0
    3758:	f4010000 	vst4.8	{d0-d3}, [r1], r0
    375c:	0010d501 	andseq	sp, r0, r1, lsl #10
    3760:	0d4f2900 	stcleq	9, cr2, [pc, #-0]	; 3768 <__bss_end+0x218>
    3764:	33000000 	movwcc	r0, #0
    3768:	00000d41 	andeq	r0, r0, r1, asr #26
    376c:	00001af8 	strdeq	r1, [r0], -r8
    3770:	00001b20 	andeq	r1, r0, r0, lsr #22
    3774:	2201f601 	andcs	pc, r1, #1048576	; 0x100000
    3778:	00000d4f 	andeq	r0, r0, pc, asr #26
    377c:	00000b5f 	andeq	r0, r0, pc, asr fp
    3780:	01310000 	teqeq	r1, r0
    3784:	0000141d 	andeq	r1, r0, sp, lsl r4
    3788:	0101fd01 	tsteq	r1, r1, lsl #26
    378c:	00000053 	andeq	r0, r0, r3, asr r0
    3790:	00001b68 	andeq	r1, r0, r8, ror #22
    3794:	00001bf4 	strdeq	r1, [r0], -r4
    3798:	00000b72 	andeq	r0, r0, r2, ror fp
    379c:	00001167 	andeq	r1, r0, r7, ror #2
    37a0:	66756235 			; <UNDEFINED> instruction: 0x66756235
    37a4:	01fd0100 	mvnseq	r0, r0, lsl #2
    37a8:	00000ffd 	strdeq	r0, [r0], -sp
    37ac:	00000b92 	muleq	r0, r2, fp
    37b0:	01006e36 	tsteq	r0, r6, lsr lr
    37b4:	005301fd 	ldrsheq	r0, [r3], #-29	; 0xffffffe3
    37b8:	51010000 	mrspl	r0, (UNDEF: 1)
    37bc:	0100692e 	tsteq	r0, lr, lsr #18
    37c0:	005301ff 	ldrsheq	r0, [r3], #-31	; 0xffffffe1
    37c4:	0ba50000 	bleq	fe9437cc <__bss_end+0xfe94027c>
    37c8:	632e0000 	teqvs	lr, #0
    37cc:	02000100 	andeq	r0, r0, #0
    37d0:	00000c72 	andeq	r0, r0, r2, ror ip
    37d4:	00000bd0 	ldrdeq	r0, [r0], -r0	; <UNPREDICTABLE>
    37d8:	000d5a37 	andeq	r5, sp, r7, lsr sl
    37dc:	001b9400 	andseq	r9, fp, r0, lsl #8
    37e0:	0000d800 	andeq	sp, r0, r0, lsl #16
    37e4:	02070100 	andeq	r0, r7, #0
    37e8:	00010026 	andeq	r0, r1, r6, lsr #32
    37ec:	0d6c2300 	stcleq	3, cr2, [ip, #-0]
    37f0:	0bf00000 	bleq	ffc037f8 <__bss_end+0xffc002a8>
    37f4:	00000000 	andeq	r0, r0, r0
    37f8:	15ac3900 	strne	r3, [ip, #2304]!	; 0x900
    37fc:	0a010000 	beq	43804 <__bss_end+0x402b4>
    3800:	00000053 	andeq	r0, r0, r3, asr r0
    3804:	32300305 	eorscc	r0, r0, #335544320	; 0x14000000
    3808:	2b390000 	blcs	e43810 <__bss_end+0xe402c0>
    380c:	01000015 	tsteq	r0, r5, lsl r0
    3810:	0000530b 	andeq	r5, r0, fp, lsl #6
    3814:	34030500 	strcc	r0, [r3], #-1280	; 0x500
    3818:	39000032 	stmdbcc	r0, {r1, r4, r5}
    381c:	00001435 	andeq	r1, r0, r5, lsr r4
    3820:	00530c01 	subseq	r0, r3, r1, lsl #24
    3824:	03050000 	movweq	r0, #20480	; 0x5000
    3828:	0000322c 	andeq	r3, r0, ip, lsr #4
    382c:	0014cd39 	andseq	ip, r4, r9, lsr sp
    3830:	530d0100 	movwpl	r0, #53504	; 0xd100
    3834:	05000000 	streq	r0, [r0, #-0]
    3838:	00323c03 	eorseq	r3, r2, r3, lsl #24
    383c:	14be3900 	ldrtne	r3, [lr], #2304	; 0x900
    3840:	0e010000 	cdpeq	0, 0, cr0, cr1, cr0, {0}
    3844:	00000053 	andeq	r0, r0, r3, asr r0
    3848:	32380305 	eorscc	r0, r8, #335544320	; 0x14000000
    384c:	40000000 	andmi	r0, r0, r0
    3850:	02000008 	andeq	r0, r0, #8
    3854:	000c2400 	andeq	r2, ip, r0, lsl #8
    3858:	54010400 	strpl	r0, [r1], #-1024	; 0x400
    385c:	01000000 	mrseq	r0, (UNDEF: 0)
    3860:	0000160b 	andeq	r1, r0, fp, lsl #12
    3864:	0000014f 	andeq	r0, r0, pc, asr #2
    3868:	00001bf4 	strdeq	r1, [r0], -r4
    386c:	000023e0 	andeq	r2, r0, r0, ror #7
    3870:	00000c48 	andeq	r0, r0, r8, asr #24
    3874:	8f060102 	svchi	0x00060102
    3878:	02000000 	andeq	r0, r0, #0
    387c:	008d0801 	addeq	r0, sp, r1, lsl #16
    3880:	02020000 	andeq	r0, r2, #0
    3884:	0001d605 	andeq	sp, r1, r5, lsl #12
    3888:	07020200 	streq	r0, [r2, -r0, lsl #4]
    388c:	000000b1 	strheq	r0, [r0], -r1
    3890:	00103203 	andseq	r3, r0, r3, lsl #4
    3894:	4c120200 	lfmmi	f0, 4, [r2], {-0}
    3898:	04000000 	streq	r0, [r0], #-0
    389c:	6e690504 	cdpvs	5, 6, cr0, cr9, cr4, {0}
    38a0:	04020074 	streq	r0, [r2], #-116	; 0x74
    38a4:	00013207 	andeq	r3, r1, r7, lsl #4
    38a8:	05080200 	streq	r0, [r8, #-512]	; 0x200
    38ac:	000001b1 			; <UNDEFINED> instruction: 0x000001b1
    38b0:	28070802 	stmdacs	r7, {r1, fp}
    38b4:	03000001 	movweq	r0, #1
    38b8:	000015c1 	andeq	r1, r0, r1, asr #11
    38bc:	00531802 	subseq	r1, r3, r2, lsl #16
    38c0:	31050000 	mrscc	r0, (UNDEF: 5)
    38c4:	04000000 	streq	r0, [r0], #-0
    38c8:	00e08904 	rsceq	r8, r0, r4, lsl #18
    38cc:	1e060000 	cdpne	0, 0, cr0, cr6, cr0, {0}
    38d0:	00000000 	andeq	r0, r0, r0
    38d4:	0000a406 	andeq	sl, r0, r6, lsl #8
    38d8:	47060100 	strmi	r0, [r6, -r0, lsl #2]
    38dc:	02000000 	andeq	r0, r0, #0
    38e0:	00008106 	andeq	r8, r0, r6, lsl #2
    38e4:	bf060300 	svclt	0x00060300
    38e8:	04000001 	streq	r0, [r0], #-1
    38ec:	00011c06 	andeq	r1, r1, r6, lsl #24
    38f0:	04060500 	streq	r0, [r6], #-1280	; 0x500
    38f4:	06000001 	streq	r0, [r0], -r1
    38f8:	00013f06 	andeq	r3, r1, r6, lsl #30
    38fc:	12060700 	andne	r0, r6, #0
    3900:	08000000 	stmdaeq	r0, {}	; <UNPREDICTABLE>
    3904:	00007606 	andeq	r7, r0, r6, lsl #12
    3908:	11060900 	tstne	r6, r0, lsl #18
    390c:	0a000001 	beq	3918 <__bss_end+0x3c8>
    3910:	0001cb06 	andeq	ip, r1, r6, lsl #22
    3914:	2b060b00 	blcs	18651c <__bss_end+0x182fcc>
    3918:	0c000000 	stceq	0, cr0, [r0], {-0}
    391c:	0001a306 	andeq	sl, r1, r6, lsl #6
    3920:	50060d00 	andpl	r0, r6, r0, lsl #26
    3924:	0e000002 	cdpeq	0, 0, cr0, cr0, cr2, {0}
    3928:	00003906 	andeq	r3, r0, r6, lsl #18
    392c:	02000f00 	andeq	r0, r0, #0
    3930:	00960801 	addseq	r0, r6, r1, lsl #16
    3934:	04020000 	streq	r0, [r2], #-0
    3938:	00012d07 	andeq	r2, r1, r7, lsl #26
    393c:	03040700 	movweq	r0, #18176	; 0x4700
    3940:	0000168a 	andeq	r1, r0, sl, lsl #13
    3944:	00fb2803 	rscseq	r2, fp, r3, lsl #16
    3948:	dc080000 	stcle	0, cr0, [r8], {-0}
    394c:	04000015 	streq	r0, [r0], #-21
    3950:	01150005 	tsteq	r5, r5
    3954:	4b090000 	blmi	24395c <__bss_end+0x24040c>
    3958:	ee000016 	mcr	0, 0, r0, cr0, cr6, {0}
    395c:	02000000 	andeq	r0, r0, #0
    3960:	00010023 	andeq	r0, r1, r3, lsr #32
    3964:	0015de03 	andseq	sp, r5, r3, lsl #28
    3968:	f0660300 			; <UNDEFINED> instruction: 0xf0660300
    396c:	0a000000 	beq	3974 <__bss_end+0x424>
    3970:	00001699 	muleq	r0, r9, r6
    3974:	5e015b01 	vmlapl.f64	d5, d1, d1
    3978:	01000001 	tsteq	r0, r1
    397c:	0000015e 	andeq	r0, r0, lr, asr r1
    3980:	00166c0b 	andseq	r6, r6, fp, lsl #24
    3984:	5e5b0100 	rdfple	f0, f3, f0
    3988:	0c000001 	stceq	0, cr0, [r0], {1}
    398c:	00637273 	rsbeq	r7, r3, r3, ror r2
    3990:	01645b01 	cmneq	r4, r1, lsl #22
    3994:	a90b0000 	stmdbge	fp, {}	; <UNPREDICTABLE>
    3998:	01000010 	tsteq	r0, r0, lsl r0
    399c:	0000685b 	andeq	r6, r0, fp, asr r8
    39a0:	6d740d00 	ldclvs	13, cr0, [r4, #-0]
    39a4:	5d010070 	stcpl	0, cr0, [r1, #-448]	; 0xfffffe40
    39a8:	0000015e 	andeq	r0, r0, lr, asr r1
    39ac:	e0040e00 	and	r0, r4, r0, lsl #28
    39b0:	0e000000 	cdpeq	0, 0, cr0, cr0, cr0, {0}
    39b4:	00016a04 	andeq	r6, r1, r4, lsl #20
    39b8:	00e00f00 	rsceq	r0, r0, r0, lsl #30
    39bc:	500a0000 	andpl	r0, sl, r0
    39c0:	01000016 	tsteq	r0, r6, lsl r0
    39c4:	0068011d 	rsbeq	r0, r8, sp, lsl r1
    39c8:	94010000 	strls	r0, [r1], #-0
    39cc:	0c000001 	stceq	0, cr0, [r0], {1}
    39d0:	1d010073 	stcne	0, cr0, [r1, #-460]	; 0xfffffe34
    39d4:	00000164 	andeq	r0, r0, r4, ror #2
    39d8:	0063730d 	rsbeq	r7, r3, sp, lsl #6
    39dc:	01641f01 	cmneq	r4, r1, lsl #30
    39e0:	0a000000 	beq	39e8 <__bss_end+0x498>
    39e4:	00001664 	andeq	r1, r0, r4, ror #12
    39e8:	5e012e01 	cdppl	14, 0, cr2, cr1, cr1, {0}
    39ec:	01000001 	tsteq	r0, r1
    39f0:	000001c7 	andeq	r0, r0, r7, asr #3
    39f4:	00166c0b 	andseq	r6, r6, fp, lsl #24
    39f8:	5e2e0100 	sufple	f0, f6, f0
    39fc:	0c000001 	stceq	0, cr0, [r0], {1}
    3a00:	00637273 	rsbeq	r7, r3, r3, ror r2
    3a04:	01642e01 	cmneq	r4, r1, lsl #28
    3a08:	740d0000 	strvc	r0, [sp], #-0
    3a0c:	0100706d 	tsteq	r0, sp, rrx
    3a10:	00015e30 	andeq	r5, r1, r0, lsr lr
    3a14:	060a0000 	streq	r0, [sl], -r0
    3a18:	01000016 	tsteq	r0, r6, lsl r0
    3a1c:	015e019f 			; <UNDEFINED> instruction: 0x015e019f
    3a20:	2d010000 	stccs	0, cr0, [r1, #-0]
    3a24:	0b000002 	bleq	3a34 <__bss_end+0x4e4>
    3a28:	00001367 	andeq	r1, r0, r7, ror #6
    3a2c:	004c9f01 	subeq	r9, ip, r1, lsl #30
    3a30:	5d0b0000 	stcpl	0, cr0, [fp, #-0]
    3a34:	01000016 	tsteq	r0, r6, lsl r0
    3a38:	00015e9f 	muleq	r1, pc, lr	; <UNPREDICTABLE>
    3a3c:	16450b00 	strbne	r0, [r5], -r0, lsl #22
    3a40:	9f010000 	svcls	0x00010000
    3a44:	0000004c 	andeq	r0, r0, ip, asr #32
    3a48:	00163a10 	andseq	r3, r6, r0, lsl sl
    3a4c:	2da10100 	stfcss	f0, [r1]
    3a50:	10000002 	andne	r0, r0, r2
    3a54:	000015f6 	strdeq	r1, [r0], -r6
    3a58:	004ca201 	subeq	sl, ip, r1, lsl #4
    3a5c:	690d0000 	stmdbvs	sp, {}	; <UNPREDICTABLE>
    3a60:	4ca30100 	stfmis	f0, [r3]
    3a64:	0d000000 	stceq	0, cr0, [r0, #-0]
    3a68:	a401006a 	strge	r0, [r1], #-106	; 0x6a
    3a6c:	0000004c 	andeq	r0, r0, ip, asr #32
    3a70:	00165710 	andseq	r5, r6, r0, lsl r7
    3a74:	3da50100 	stfccs	f0, [r5]
    3a78:	00000002 	andeq	r0, r0, r2
    3a7c:	0000e011 	andeq	lr, r0, r1, lsl r0
    3a80:	00023d00 	andeq	r3, r2, r0, lsl #26
    3a84:	00531200 	subseq	r1, r3, r0, lsl #4
    3a88:	000f0000 	andeq	r0, pc, r0
    3a8c:	0000e011 	andeq	lr, r0, r1, lsl r0
    3a90:	00024d00 	andeq	r4, r2, r0, lsl #26
    3a94:	00531200 	subseq	r1, r3, r0, lsl #4
    3a98:	00100000 	andseq	r0, r0, r0
    3a9c:	0015bc13 	andseq	fp, r5, r3, lsl ip
    3aa0:	01ce0100 	biceq	r0, lr, r0, lsl #2
    3aa4:	0000015e 	andeq	r0, r0, lr, asr r1
    3aa8:	00001bf4 	strdeq	r1, [r0], -r4
    3aac:	00001cb0 			; <UNDEFINED> instruction: 0x00001cb0
    3ab0:	00000c1b 	andeq	r0, r0, fp, lsl ip
    3ab4:	000002ce 	andeq	r0, r0, lr, asr #5
    3ab8:	00136714 	andseq	r6, r3, r4, lsl r7
    3abc:	53ce0100 	bicpl	r0, lr, #0
    3ac0:	48000000 	stmdami	r0, {}	; <UNPREDICTABLE>
    3ac4:	1400000c 	strne	r0, [r0], #-12
    3ac8:	0000165d 	andeq	r1, r0, sp, asr r6
    3acc:	015ece01 	cmpeq	lr, r1, lsl #28
    3ad0:	0c7c0000 	ldcleq	0, cr0, [ip], #-0
    3ad4:	45140000 	ldrmi	r0, [r4, #-0]
    3ad8:	01000016 	tsteq	r0, r6, lsl r0
    3adc:	00004cce 	andeq	r4, r0, lr, asr #25
    3ae0:	000c9a00 	andeq	r9, ip, r0, lsl #20
    3ae4:	163a1500 	ldrtne	r1, [sl], -r0, lsl #10
    3ae8:	d0010000 	andle	r0, r1, r0
    3aec:	0000022d 	andeq	r0, r0, sp, lsr #4
    3af0:	16509102 	ldrbne	r9, [r0], -r2, lsl #2
    3af4:	d1010069 	tstle	r1, r9, rrx
    3af8:	0000004c 	andeq	r0, r0, ip, asr #32
    3afc:	00000cb8 			; <UNDEFINED> instruction: 0x00000cb8
    3b00:	01006a16 	tsteq	r0, r6, lsl sl
    3b04:	00004cd2 	ldrdeq	r4, [r0], -r2
    3b08:	000ce100 	andeq	lr, ip, r0, lsl #2
    3b0c:	16571500 	ldrbne	r1, [r7], -r0, lsl #10
    3b10:	d3010000 	movwle	r0, #4096	; 0x1000
    3b14:	0000023d 	andeq	r0, r0, sp, lsr r2
    3b18:	7fbc9103 	svcvc	0x00bc9103
    3b1c:	16711700 	ldrbtne	r1, [r1], -r0, lsl #14
    3b20:	6a010000 	bvs	43b28 <__bss_end+0x405d8>
    3b24:	00410101 	subeq	r0, r1, r1, lsl #2
    3b28:	1cb00000 	ldcne	0, cr0, [r0]
    3b2c:	1d580000 	ldclne	0, cr0, [r8, #-0]
    3b30:	0cf50000 	ldcleq	0, cr0, [r5]
    3b34:	03660000 	cmneq	r6, #0
    3b38:	5d180000 	ldcpl	0, cr0, [r8, #-0]
    3b3c:	01000016 	tsteq	r0, r6, lsl r0
    3b40:	015e016a 	cmpeq	lr, sl, ror #2
    3b44:	0d210000 	stceq	0, cr0, [r1, #-0]
    3b48:	6c190000 	ldcvs	0, cr0, [r9], {-0}
    3b4c:	01006e65 	tsteq	r0, r5, ror #28
    3b50:	0041016a 	subeq	r0, r1, sl, ror #2
    3b54:	0d3f0000 	ldceq	0, cr0, [pc, #-0]	; 3b5c <__bss_end+0x60c>
    3b58:	77180000 	ldrvc	r0, [r8, -r0]
    3b5c:	01000016 	tsteq	r0, r6, lsl r0
    3b60:	0041016a 	subeq	r0, r1, sl, ror #2
    3b64:	0d5d0000 	ldcleq	0, cr0, [sp, #-0]
    3b68:	d41a0000 	ldrle	r0, [sl], #-0
    3b6c:	01000015 	tsteq	r0, r5, lsl r0
    3b70:	023d016e 	eorseq	r0, sp, #-2147483621	; 0x8000001b
    3b74:	91020000 	mrsls	r0, (UNDEF: 2)
    3b78:	01201b5c 	teqeq	r0, ip, asr fp
    3b7c:	1cec0000 	stclne	0, cr0, [ip]
    3b80:	01280000 	teqeq	r8, r0
    3b84:	72010000 	andvc	r0, r1, #0
    3b88:	01471c01 	cmpeq	r7, r1, lsl #24
    3b8c:	0d7b0000 	ldcleq	0, cr0, [fp, #-0]
    3b90:	3c1c0000 	ldccc	0, cr0, [ip], {-0}
    3b94:	b1000001 	tstlt	r0, r1
    3b98:	1c00000d 	stcne	0, cr0, [r0], {13}
    3b9c:	00000131 	andeq	r0, r0, r1, lsr r1
    3ba0:	00000dd3 	ldrdeq	r0, [r0], -r3
    3ba4:	0001401d 	andeq	r4, r1, sp, lsl r0
    3ba8:	01521e00 	cmpeq	r2, r0, lsl #28
    3bac:	0e330000 	cdpeq	0, 3, cr0, cr3, cr0, {0}
    3bb0:	00000000 	andeq	r0, r0, r0
    3bb4:	01c71f00 	biceq	r1, r7, r0, lsl #30
    3bb8:	1d580000 	ldclne	0, cr0, [r8, #-0]
    3bbc:	1e400000 	cdpne	0, 4, cr0, cr0, cr0, {0}
    3bc0:	0e460000 	cdpeq	0, 4, cr0, cr6, cr0, {0}
    3bc4:	03bf0000 			; <UNDEFINED> instruction: 0x03bf0000
    3bc8:	d81c0000 	ldmdale	ip, {}	; <UNPREDICTABLE>
    3bcc:	73000001 	movwvc	r0, #1
    3bd0:	1c00000e 	stcne	0, cr0, [r0], {14}
    3bd4:	000001e3 	andeq	r0, r0, r3, ror #3
    3bd8:	00000ea7 	andeq	r0, r0, r7, lsr #29
    3bdc:	0001f920 	andeq	pc, r1, r0, lsr #18
    3be0:	58910200 	ldmpl	r1, {r9}
    3be4:	0002041e 	andeq	r0, r2, lr, lsl r4
    3be8:	000ec500 	andeq	ip, lr, r0, lsl #10
    3bec:	020f1e00 	andeq	r1, pc, #0
    3bf0:	0ef00000 	cdpeq	0, 15, cr0, cr0, cr0, {0}
    3bf4:	181e0000 	ldmdane	lr, {}	; <UNPREDICTABLE>
    3bf8:	25000002 	strcs	r0, [r0, #-2]
    3bfc:	2000000f 	andcs	r0, r0, pc
    3c00:	00000221 	andeq	r0, r0, r1, lsr #4
    3c04:	21449102 	cmpcs	r4, r2, lsl #2
    3c08:	000001ee 	andeq	r0, r0, lr, ror #3
    3c0c:	0122000a 	teqeq	r2, sl
    3c10:	000015ff 	strdeq	r1, [r0], -pc	; <UNPREDICTABLE>
    3c14:	01010401 	tsteq	r1, r1, lsl #8
    3c18:	00000041 	andeq	r0, r0, r1, asr #32
    3c1c:	00001e40 	andeq	r1, r0, r0, asr #28
    3c20:	00002110 	andeq	r2, r0, r0, lsl r1
    3c24:	00000f44 	andeq	r0, r0, r4, asr #30
    3c28:	000005f0 	strdeq	r0, [r0], -r0	; <UNPREDICTABLE>
    3c2c:	0015cd18 	andseq	ip, r5, r8, lsl sp
    3c30:	01040100 	mrseq	r0, (UNDEF: 20)
    3c34:	00000164 	andeq	r0, r0, r4, ror #2
    3c38:	00000f7d 	andeq	r0, r0, sp, ror pc
    3c3c:	16401a23 	strbne	r1, [r0], -r3, lsr #20
    3c40:	06010000 	streq	r0, [r1], -r0
    3c44:	00011501 	andeq	r1, r1, r1, lsl #10
    3c48:	4c910200 	lfmmi	f0, 4, [r1], {0}
    3c4c:	00165d1a 	andseq	r5, r6, sl, lsl sp
    3c50:	01070100 	mrseq	r0, (UNDEF: 23)
    3c54:	0000022d 	andeq	r0, r0, sp, lsr #4
    3c58:	7fbc9103 	svcvc	0x00bc9103
    3c5c:	00166b24 	andseq	r6, r6, r4, lsr #22
    3c60:	01080100 	mrseq	r0, (UNDEF: 24)
    3c64:	0000015e 	andeq	r0, r0, lr, asr r1
    3c68:	00000fc0 	andeq	r0, r0, r0, asr #31
    3c6c:	0015c824 	andseq	ip, r5, r4, lsr #16
    3c70:	01090100 	mrseq	r0, (UNDEF: 25)
    3c74:	0000015e 	andeq	r0, r0, lr, asr r1
    3c78:	00001032 	andeq	r1, r0, r2, lsr r0
    3c7c:	00167724 	andseq	r7, r6, r4, lsr #14
    3c80:	010a0100 	mrseq	r0, (UNDEF: 26)
    3c84:	00000041 	andeq	r0, r0, r1, asr #32
    3c88:	00001048 	andeq	r1, r0, r8, asr #32
    3c8c:	6e656c25 	cdpvs	12, 6, cr6, cr5, cr5, {1}
    3c90:	010b0100 	mrseq	r0, (UNDEF: 27)
    3c94:	00000041 	andeq	r0, r0, r1, asr #32
    3c98:	00001066 	andeq	r1, r0, r6, rrx
    3c9c:	00016f26 	andeq	r6, r1, r6, lsr #30
    3ca0:	001f6000 	andseq	r6, pc, r0
    3ca4:	001f8000 	andseq	r8, pc, r0
    3ca8:	013c0100 	teqeq	ip, r0, lsl #2
    3cac:	0000047e 	andeq	r0, r0, lr, ror r4
    3cb0:	0001801c 	andeq	r8, r1, ip, lsl r0
    3cb4:	0010bc00 	andseq	fp, r0, r0, lsl #24
    3cb8:	1f602700 	svcne	0x00602700
    3cbc:	1f800000 	svcne	0x00800000
    3cc0:	891e0000 	ldmdbhi	lr, {}	; <UNPREDICTABLE>
    3cc4:	cf000001 	svcgt	0x00000001
    3cc8:	00000010 	andeq	r0, r0, r0, lsl r0
    3ccc:	01942600 	orrseq	r2, r4, r0, lsl #12
    3cd0:	1f9c0000 	svcne	0x009c0000
    3cd4:	1fac0000 	svcne	0x00ac0000
    3cd8:	3e010000 	cdpcc	0, 0, cr0, cr1, cr0, {0}
    3cdc:	0004b801 	andeq	fp, r4, r1, lsl #16
    3ce0:	01b01c00 	lslseq	r1, r0, #24
    3ce4:	10fa0000 	rscsne	r0, sl, r0
    3ce8:	a51c0000 	ldrge	r0, [ip, #-0]
    3cec:	0d000001 	stceq	0, cr0, [r0, #-4]
    3cf0:	27000011 	smladcs	r0, r1, r0, r0
    3cf4:	00001f9c 	muleq	r0, ip, pc	; <UNPREDICTABLE>
    3cf8:	00001fac 	andeq	r1, r0, ip, lsr #31
    3cfc:	0001bb1e 	andeq	fp, r1, lr, lsl fp
    3d00:	00112b00 	andseq	r2, r1, r0, lsl #22
    3d04:	26000000 	strcs	r0, [r0], -r0
    3d08:	00000194 	muleq	r0, r4, r1
    3d0c:	00001fcc 	andeq	r1, r0, ip, asr #31
    3d10:	00001fdc 	ldrdeq	r1, [r0], -ip
    3d14:	f2014c01 			; <UNDEFINED> instruction: 0xf2014c01
    3d18:	1c000004 	stcne	0, cr0, [r0], {4}
    3d1c:	000001b0 			; <UNDEFINED> instruction: 0x000001b0
    3d20:	0000113e 	andeq	r1, r0, lr, lsr r1
    3d24:	0001a51c 	andeq	sl, r1, ip, lsl r5
    3d28:	00115400 	andseq	r5, r1, r0, lsl #8
    3d2c:	1fcc2700 	svcne	0x00cc2700
    3d30:	1fdc0000 	svcne	0x00dc0000
    3d34:	bb1e0000 	bllt	783d3c <__bss_end+0x7807ec>
    3d38:	72000001 	andvc	r0, r0, #1
    3d3c:	00000011 	andeq	r0, r0, r1, lsl r0
    3d40:	016f2600 	cmneq	pc, r0, lsl #12
    3d44:	1fdc0000 	svcne	0x00dc0000
    3d48:	1ffc0000 	svcne	0x00fc0000
    3d4c:	4d010000 	stcmi	0, cr0, [r1, #-0]
    3d50:	00051f01 	andeq	r1, r5, r1, lsl #30
    3d54:	01802800 	orreq	r2, r0, r0, lsl #16
    3d58:	dc270000 	stcle	0, cr0, [r7], #-0
    3d5c:	fc00001f 	stc2	0, cr0, [r0], {31}
    3d60:	1e00001f 	mcrne	0, 0, r0, cr0, cr15, {0}
    3d64:	00000189 	andeq	r0, r0, r9, lsl #3
    3d68:	00001185 	andeq	r1, r0, r5, lsl #3
    3d6c:	6f260000 	svcvs	0x00260000
    3d70:	20000001 	andcs	r0, r0, r1
    3d74:	40000020 	andmi	r0, r0, r0, lsr #32
    3d78:	01000020 	tsteq	r0, r0, lsr #32
    3d7c:	05500132 	ldrbeq	r0, [r0, #-306]	; 0x132
    3d80:	801c0000 	andshi	r0, ip, r0
    3d84:	b3000001 	movwlt	r0, #1
    3d88:	27000011 	smladcs	r0, r1, r0, r0
    3d8c:	00002020 	andeq	r2, r0, r0, lsr #32
    3d90:	00002040 	andeq	r2, r0, r0, asr #32
    3d94:	0001891e 	andeq	r8, r1, lr, lsl r9
    3d98:	0011c600 	andseq	ip, r1, r0, lsl #12
    3d9c:	26000000 	strcs	r0, [r0], -r0
    3da0:	00000194 	muleq	r0, r4, r1
    3da4:	0000205c 	andeq	r2, r0, ip, asr r0
    3da8:	0000206c 	andeq	r2, r0, ip, rrx
    3dac:	8a013401 	bhi	50db8 <__bss_end+0x4d868>
    3db0:	1c000005 	stcne	0, cr0, [r0], {5}
    3db4:	000001b0 			; <UNDEFINED> instruction: 0x000001b0
    3db8:	000011f1 	strdeq	r1, [r0], -r1	; <UNPREDICTABLE>
    3dbc:	0001a51c 	andeq	sl, r1, ip, lsl r5
    3dc0:	00120400 	andseq	r0, r2, r0, lsl #8
    3dc4:	205c2700 	subscs	r2, ip, r0, lsl #14
    3dc8:	206c0000 	rsbcs	r0, ip, r0
    3dcc:	bb1e0000 	bllt	783dd4 <__bss_end+0x780884>
    3dd0:	22000001 	andcs	r0, r0, #1
    3dd4:	00000012 	andeq	r0, r0, r2, lsl r0
    3dd8:	016f2600 	cmneq	pc, r0, lsl #12
    3ddc:	20b80000 	adcscs	r0, r8, r0
    3de0:	20d80000 	sbcscs	r0, r8, r0
    3de4:	27010000 	strcs	r0, [r1, -r0]
    3de8:	0005b901 	andeq	fp, r5, r1, lsl #18
    3dec:	01802900 	orreq	r2, r0, r0, lsl #18
    3df0:	56010000 	strpl	r0, [r1], -r0
    3df4:	0020b827 	eoreq	fp, r0, r7, lsr #16
    3df8:	0020d800 	eoreq	sp, r0, r0, lsl #16
    3dfc:	01891e00 	orreq	r1, r9, r0, lsl #28
    3e00:	12350000 	eorsne	r0, r5, #0
    3e04:	00000000 	andeq	r0, r0, r0
    3e08:	0001942a 	andeq	r9, r1, sl, lsr #8
    3e0c:	0020f400 	eoreq	pc, r0, r0, lsl #8
    3e10:	00210400 	eoreq	r0, r1, r0, lsl #8
    3e14:	01290100 	teqeq	r9, r0, lsl #2
    3e18:	0001b01c 	andeq	fp, r1, ip, lsl r0
    3e1c:	00126000 	andseq	r6, r2, r0
    3e20:	01a51c00 			; <UNDEFINED> instruction: 0x01a51c00
    3e24:	12730000 	rsbsne	r0, r3, #0
    3e28:	f4270000 	vld4.8	{d0-d3}, [r7], r0
    3e2c:	04000020 	streq	r0, [r0], #-32
    3e30:	1e000021 	cdpne	0, 0, cr0, cr0, cr1, {1}
    3e34:	000001bb 			; <UNDEFINED> instruction: 0x000001bb
    3e38:	00001291 	muleq	r0, r1, r2
    3e3c:	22000000 	andcs	r0, r0, #0
    3e40:	00167d01 	andseq	r7, r6, r1, lsl #26
    3e44:	01790100 	cmneq	r9, r0, lsl #2
    3e48:	00004101 	andeq	r4, r0, r1, lsl #2
    3e4c:	00211000 	eoreq	r1, r1, r0
    3e50:	0023e000 	eoreq	lr, r3, r0
    3e54:	0012a400 	andseq	sl, r2, r0, lsl #8
    3e58:	00082100 	andeq	r2, r8, r0, lsl #2
    3e5c:	15cd1800 	strbne	r1, [sp, #2048]	; 0x800
    3e60:	79010000 	stmdbvc	r1, {}	; <UNPREDICTABLE>
    3e64:	00016401 	andeq	r6, r1, r1, lsl #8
    3e68:	0012dd00 	andseq	sp, r2, r0, lsl #26
    3e6c:	401a2300 	andsmi	r2, sl, r0, lsl #6
    3e70:	01000016 	tsteq	r0, r6, lsl r0
    3e74:	0115017b 	tsteq	r5, fp, ror r1
    3e78:	91020000 	mrsls	r0, (UNDEF: 2)
    3e7c:	165d1a4c 	ldrbne	r1, [sp], -ip, asr #20
    3e80:	7c010000 	stcvc	0, cr0, [r1], {-0}
    3e84:	00022d01 	andeq	r2, r2, r1, lsl #26
    3e88:	bc910300 	ldclt	3, cr0, [r1], {0}
    3e8c:	166b247f 			; <UNDEFINED> instruction: 0x166b247f
    3e90:	7d010000 	stcvc	0, cr0, [r1, #-0]
    3e94:	00015e01 	andeq	r5, r1, r1, lsl #28
    3e98:	00132000 	andseq	r2, r3, r0
    3e9c:	15c82400 	strbne	r2, [r8, #1024]	; 0x400
    3ea0:	7e010000 	cdpvc	0, 0, cr0, cr1, cr0, {0}
    3ea4:	00015e01 	andeq	r5, r1, r1, lsl #28
    3ea8:	00139200 	andseq	r9, r3, r0, lsl #4
    3eac:	16772400 	ldrbtne	r2, [r7], -r0, lsl #8
    3eb0:	7f010000 	svcvc	0x00010000
    3eb4:	00004101 	andeq	r4, r0, r1, lsl #2
    3eb8:	0013a800 	andseq	sl, r3, r0, lsl #16
    3ebc:	656c2500 	strbvs	r2, [ip, #-1280]!	; 0x500
    3ec0:	8001006e 	andhi	r0, r1, lr, rrx
    3ec4:	00004101 	andeq	r4, r0, r1, lsl #2
    3ec8:	0013c600 	andseq	ip, r3, r0, lsl #12
    3ecc:	016f2600 	cmneq	pc, r0, lsl #12
    3ed0:	22300000 	eorscs	r0, r0, #0
    3ed4:	22500000 	subscs	r0, r0, #0
    3ed8:	b1010000 	mrslt	r0, (UNDEF: 1)
    3edc:	0006af01 	andeq	sl, r6, r1, lsl #30
    3ee0:	01801c00 	orreq	r1, r0, r0, lsl #24
    3ee4:	141c0000 	ldrne	r0, [ip], #-0
    3ee8:	30270000 	eorcc	r0, r7, r0
    3eec:	50000022 	andpl	r0, r0, r2, lsr #32
    3ef0:	1e000022 	cdpne	0, 0, cr0, cr0, cr2, {1}
    3ef4:	00000189 	andeq	r0, r0, r9, lsl #3
    3ef8:	0000142f 	andeq	r1, r0, pc, lsr #8
    3efc:	94260000 	strtls	r0, [r6], #-0
    3f00:	6c000001 	stcvs	0, cr0, [r0], {1}
    3f04:	7c000022 	stcvc	0, cr0, [r0], {34}	; 0x22
    3f08:	01000022 	tsteq	r0, r2, lsr #32
    3f0c:	06e901b3 			; <UNDEFINED> instruction: 0x06e901b3
    3f10:	b01c0000 	andslt	r0, ip, r0
    3f14:	5a000001 	bpl	3f20 <__bss_end+0x9d0>
    3f18:	1c000014 	stcne	0, cr0, [r0], {20}
    3f1c:	000001a5 	andeq	r0, r0, r5, lsr #3
    3f20:	0000146d 	andeq	r1, r0, sp, ror #8
    3f24:	00226c27 	eoreq	r6, r2, r7, lsr #24
    3f28:	00227c00 	eoreq	r7, r2, r0, lsl #24
    3f2c:	01bb1e00 			; <UNDEFINED> instruction: 0x01bb1e00
    3f30:	148b0000 	strne	r0, [fp], #0
    3f34:	00000000 	andeq	r0, r0, r0
    3f38:	00019426 	andeq	r9, r1, r6, lsr #8
    3f3c:	00229c00 	eoreq	r9, r2, r0, lsl #24
    3f40:	0022ac00 	eoreq	sl, r2, r0, lsl #24
    3f44:	01c10100 	biceq	r0, r1, r0, lsl #2
    3f48:	00000723 	andeq	r0, r0, r3, lsr #14
    3f4c:	0001b01c 	andeq	fp, r1, ip, lsl r0
    3f50:	00149e00 	andseq	r9, r4, r0, lsl #28
    3f54:	01a51c00 			; <UNDEFINED> instruction: 0x01a51c00
    3f58:	14b40000 	ldrtne	r0, [r4], #0
    3f5c:	9c270000 	stcls	0, cr0, [r7], #-0
    3f60:	ac000022 	stcge	0, cr0, [r0], {34}	; 0x22
    3f64:	1e000022 	cdpne	0, 0, cr0, cr0, cr2, {1}
    3f68:	000001bb 			; <UNDEFINED> instruction: 0x000001bb
    3f6c:	000014d2 	ldrdeq	r1, [r0], -r2
    3f70:	6f260000 	svcvs	0x00260000
    3f74:	ac000001 	stcge	0, cr0, [r0], {1}
    3f78:	cc000022 	stcgt	0, cr0, [r0], {34}	; 0x22
    3f7c:	01000022 	tsteq	r0, r2, lsr #32
    3f80:	075001c2 	ldrbeq	r0, [r0, -r2, asr #3]
    3f84:	80280000 	eorhi	r0, r8, r0
    3f88:	27000001 	strcs	r0, [r0, -r1]
    3f8c:	000022ac 	andeq	r2, r0, ip, lsr #5
    3f90:	000022cc 	andeq	r2, r0, ip, asr #5
    3f94:	0001891e 	andeq	r8, r1, lr, lsl r9
    3f98:	0014e500 	andseq	lr, r4, r0, lsl #10
    3f9c:	26000000 	strcs	r0, [r0], -r0
    3fa0:	0000016f 	andeq	r0, r0, pc, ror #2
    3fa4:	000022f0 	strdeq	r2, [r0], -r0
    3fa8:	00002310 	andeq	r2, r0, r0, lsl r3
    3fac:	8101a701 	tsthi	r1, r1, lsl #14
    3fb0:	1c000007 	stcne	0, cr0, [r0], {7}
    3fb4:	00000180 	andeq	r0, r0, r0, lsl #3
    3fb8:	00001513 	andeq	r1, r0, r3, lsl r5
    3fbc:	0022f027 	eoreq	pc, r2, r7, lsr #32
    3fc0:	00231000 	eoreq	r1, r3, r0
    3fc4:	01891e00 	orreq	r1, r9, r0, lsl #28
    3fc8:	15260000 	strne	r0, [r6, #-0]!
    3fcc:	00000000 	andeq	r0, r0, r0
    3fd0:	00019426 	andeq	r9, r1, r6, lsr #8
    3fd4:	00232c00 	eoreq	r2, r3, r0, lsl #24
    3fd8:	00233c00 	eoreq	r3, r3, r0, lsl #24
    3fdc:	01a90100 			; <UNDEFINED> instruction: 0x01a90100
    3fe0:	000007bb 			; <UNDEFINED> instruction: 0x000007bb
    3fe4:	0001b01c 	andeq	fp, r1, ip, lsl r0
    3fe8:	00155100 	andseq	r5, r5, r0, lsl #2
    3fec:	01a51c00 			; <UNDEFINED> instruction: 0x01a51c00
    3ff0:	15640000 	strbne	r0, [r4, #-0]!
    3ff4:	2c270000 	stccs	0, cr0, [r7], #-0
    3ff8:	3c000023 	stccc	0, cr0, [r0], {35}	; 0x23
    3ffc:	1e000023 	cdpne	0, 0, cr0, cr0, cr3, {1}
    4000:	000001bb 			; <UNDEFINED> instruction: 0x000001bb
    4004:	00001582 	andeq	r1, r0, r2, lsl #11
    4008:	6f260000 	svcvs	0x00260000
    400c:	88000001 	stmdahi	r0, {r0}
    4010:	a8000023 	stmdage	r0, {r0, r1, r5}
    4014:	01000023 	tsteq	r0, r3, lsr #32
    4018:	07ea019c 			; <UNDEFINED> instruction: 0x07ea019c
    401c:	80290000 	eorhi	r0, r9, r0
    4020:	01000001 	tsteq	r0, r1
    4024:	23882756 	orrcs	r2, r8, #22544384	; 0x1580000
    4028:	23a80000 			; <UNDEFINED> instruction: 0x23a80000
    402c:	891e0000 	ldmdbhi	lr, {}	; <UNPREDICTABLE>
    4030:	95000001 	strls	r0, [r0, #-1]
    4034:	00000015 	andeq	r0, r0, r5, lsl r0
    4038:	01942a00 	orrseq	r2, r4, r0, lsl #20
    403c:	23c40000 	biccs	r0, r4, #0
    4040:	23d40000 	bicscs	r0, r4, #0
    4044:	9e010000 	cdpls	0, 0, cr0, cr1, cr0, {0}
    4048:	01b01c01 	lslseq	r1, r1, #24
    404c:	15c00000 	strbne	r0, [r0]
    4050:	a51c0000 	ldrge	r0, [ip, #-0]
    4054:	d3000001 	movwle	r0, #1
    4058:	27000015 	smladcs	r0, r5, r0, r0
    405c:	000023c4 	andeq	r2, r0, r4, asr #7
    4060:	000023d4 	ldrdeq	r2, [r0], -r4
    4064:	0001bb1e 	andeq	fp, r1, lr, lsl fp
    4068:	0015f100 	andseq	pc, r5, r0, lsl #2
    406c:	00000000 	andeq	r0, r0, r0
    4070:	0000e011 	andeq	lr, r0, r1, lsl r0
    4074:	00083100 	andeq	r3, r8, r0, lsl #2
    4078:	00531200 	subseq	r1, r3, r0, lsl #4
    407c:	00ff0000 	rscseq	r0, pc, r0
    4080:	0015e61a 	andseq	lr, r5, sl, lsl r6
    4084:	01030100 	mrseq	r0, (UNDEF: 19)
    4088:	00000821 	andeq	r0, r0, r1, lsr #16
    408c:	32400305 	subcc	r0, r0, #335544320	; 0x14000000
    4090:	97000000 	strls	r0, [r0, -r0]
    4094:	02000000 	andeq	r0, r0, #0
    4098:	000e4500 	andeq	r4, lr, r0, lsl #10
    409c:	b6010400 	strlt	r0, [r1], -r0, lsl #8
    40a0:	e000000f 	and	r0, r0, pc
    40a4:	bc000023 	stclt	0, cr0, [r0], {35}	; 0x23
    40a8:	61000025 	tstvs	r0, r5, lsr #32
    40ac:	2f686372 	svccs	0x00686372
    40b0:	2f6d7261 	svccs	0x006d7261
    40b4:	6863616d 	stmdavs	r3!, {r0, r2, r3, r5, r6, r8, sp, lr}^
    40b8:	6e75732d 	cdpvs	3, 7, cr7, cr5, cr13, {1}
    40bc:	702f6978 	eorvc	r6, pc, r8, ror r9	; <UNPREDICTABLE>
    40c0:	74732f6d 	ldrbtvc	r2, [r3], #-3949	; 0xf6d
    40c4:	62646e61 	rsbvs	r6, r4, #1552	; 0x610
    40c8:	2e2e2f79 	mcrcs	15, 1, r2, cr14, cr9, {3}
    40cc:	6d656d2f 	stclvs	13, cr6, [r5, #-188]!	; 0xffffff44
    40d0:	7669645f 			; <UNDEFINED> instruction: 0x7669645f
    40d4:	2e62696c 	cdpcs	9, 6, cr6, cr2, cr12, {3}
    40d8:	682f0053 	stmdavs	pc!, {r0, r1, r4, r6}	; <UNPREDICTABLE>
    40dc:	2f656d6f 	svccs	0x00656d6f
    40e0:	2f776761 	svccs	0x00776761
    40e4:	54333841 	ldrtpl	r3, [r3], #-2113	; 0x841
    40e8:	312e355f 	teqcc	lr, pc, asr r5
    40ec:	412f312e 	teqmi	pc, lr, lsr #2
    40f0:	5f543338 	svcpl	0x00543338
    40f4:	2e312e35 	mrccs	14, 1, r2, cr1, cr5, {1}
    40f8:	65575f31 	ldrbvs	r5, [r7, #-3889]	; 0xf31
    40fc:	2f756469 	svccs	0x00756469
    4100:	5f544550 	svcpl	0x00544550
    4104:	54333841 	ldrtpl	r3, [r3], #-2113	; 0x841
    4108:	312e355f 	teqcc	lr, pc, asr r5
    410c:	6c2f312e 	stfvss	f3, [pc], #-184	; 405c <__bss_end+0xb0c>
    4110:	65686369 	strbvs	r6, [r8, #-873]!	; 0x369
    4114:	696c2f65 	stmdbvs	ip!, {r0, r2, r5, r6, r8, r9, sl, fp, sp}^
    4118:	2d78756e 	cfldr64cs	mvdx7, [r8, #-440]!	; 0xfffffe48
    411c:	00342e33 	eorseq	r2, r4, r3, lsr lr
    4120:	20554e47 	subscs	r4, r5, r7, asr #28
    4124:	32205341 	eorcc	r5, r0, #67108865	; 0x4000001
    4128:	0032322e 	eorseq	r3, r2, lr, lsr #4
    412c:	00f68001 	rscseq	r8, r6, r1
    4130:	00020000 	andeq	r0, r2, r0
    4134:	00000e59 	andeq	r0, r0, r9, asr lr
    4138:	00540104 	subseq	r0, r4, r4, lsl #2
    413c:	da010000 	ble	44144 <__bss_end+0x40bf4>
    4140:	4f000016 	svcmi	0x00000016
    4144:	bc000001 	stclt	0, cr0, [r0], {1}
    4148:	14000025 	strne	r0, [r0], #-37	; 0x25
    414c:	63000026 	movwvs	r0, #38	; 0x26
    4150:	02000010 	andeq	r0, r0, #16
    4154:	008f0601 	addeq	r0, pc, r1, lsl #12
    4158:	01020000 	mrseq	r0, (UNDEF: 2)
    415c:	00008d08 	andeq	r8, r0, r8, lsl #26
    4160:	05020200 	streq	r0, [r2, #-512]	; 0x200
    4164:	000001d6 	ldrdeq	r0, [r0], -r6
    4168:	b1070202 	tstlt	r7, r2, lsl #4
    416c:	03000000 	movweq	r0, #0
    4170:	00001032 	andeq	r1, r0, r2, lsr r0
    4174:	004c1202 	subeq	r1, ip, r2, lsl #4
    4178:	04040000 	streq	r0, [r4], #-0
    417c:	746e6905 	strbtvc	r6, [lr], #-2309	; 0x905
    4180:	08360300 	ldmdaeq	r6!, {r8, r9}
    4184:	13020000 	movwne	r0, #8192	; 0x2000
    4188:	0000005e 	andeq	r0, r0, lr, asr r0
    418c:	32070402 	andcc	r0, r7, #33554432	; 0x2000000
    4190:	02000001 	andeq	r0, r0, #1
    4194:	01b10508 			; <UNDEFINED> instruction: 0x01b10508
    4198:	08020000 	stmdaeq	r2, {}	; <UNPREDICTABLE>
    419c:	00012807 	andeq	r2, r1, r7, lsl #16
    41a0:	08010200 	stmdaeq	r1, {r9}
    41a4:	00000096 	muleq	r0, r6, r0
    41a8:	2d070402 	cfstrscs	mvf0, [r7, #-8]
    41ac:	05000001 	streq	r0, [r0, #-1]
    41b0:	0016a101 	andseq	sl, r6, r1, lsl #2
    41b4:	01030100 	mrseq	r0, (UNDEF: 19)
    41b8:	000025bc 			; <UNDEFINED> instruction: 0x000025bc
    41bc:	000025c8 	andeq	r2, r0, r8, asr #11
    41c0:	06007d02 	streq	r7, [r0], -r2, lsl #26
    41c4:	0016c601 	andseq	ip, r6, r1, lsl #12
    41c8:	01080100 	mrseq	r0, (UNDEF: 24)
    41cc:	00000053 	andeq	r0, r0, r3, asr r0
    41d0:	000025c8 	andeq	r2, r0, r8, asr #11
    41d4:	00002614 	andeq	r2, r0, r4, lsl r6
    41d8:	07007d02 	streq	r7, [r0, -r2, lsl #26]
    41dc:	000016bd 			; <UNDEFINED> instruction: 0x000016bd
    41e0:	00530801 	subseq	r0, r3, r1, lsl #16
    41e4:	16040000 	strne	r0, [r4], -r0
    41e8:	b4070000 	strlt	r0, [r7], #-0
    41ec:	01000016 	tsteq	r0, r6, lsl r0
    41f0:	00005308 	andeq	r5, r0, r8, lsl #6
    41f4:	00161700 	andseq	r1, r6, r0, lsl #14
    41f8:	16d30800 	ldrbne	r0, [r3], r0, lsl #16
    41fc:	0a010000 	beq	44204 <__bss_end+0x40cb4>
    4200:	00000053 	andeq	r0, r0, r3, asr r0
    4204:	0000162a 	andeq	r1, r0, sl, lsr #12
    4208:	0016ac08 	andseq	sl, r6, r8, lsl #24
    420c:	530b0100 	movwpl	r0, #45312	; 0xb100
    4210:	62000000 	andvs	r0, r0, #0
    4214:	08000016 	stmdaeq	r0, {r1, r2, r4}
    4218:	0000170a 	andeq	r1, r0, sl, lsl #14
    421c:	00410c01 	subeq	r0, r1, r1, lsl #24
    4220:	168c0000 	strne	r0, [ip], r0
    4224:	00000000 	andeq	r0, r0, r0
    4228:	000002cd 	andeq	r0, r0, sp, asr #5
    422c:	0eda0002 	cdpeq	0, 13, cr0, cr10, cr2, {0}
    4230:	01040000 	mrseq	r0, (UNDEF: 4)
    4234:	00000054 	andeq	r0, r0, r4, asr r0
    4238:	00172401 	andseq	r2, r7, r1, lsl #8
    423c:	00014f00 	andeq	r4, r1, r0, lsl #30
    4240:	00261400 	eoreq	r1, r6, r0, lsl #8
    4244:	0027b000 	eoreq	fp, r7, r0
    4248:	0010e900 	andseq	lr, r0, r0, lsl #18
    424c:	06010200 	streq	r0, [r1], -r0, lsl #4
    4250:	0000008f 	andeq	r0, r0, pc, lsl #1
    4254:	8d080102 	stfhis	f0, [r8, #-8]
    4258:	02000000 	andeq	r0, r0, #0
    425c:	01d60502 	bicseq	r0, r6, r2, lsl #10
    4260:	02020000 	andeq	r0, r2, #0
    4264:	0000b107 	andeq	fp, r0, r7, lsl #2
    4268:	10320300 	eorsne	r0, r2, r0, lsl #6
    426c:	12020000 	andne	r0, r2, #0
    4270:	0000004c 	andeq	r0, r0, ip, asr #32
    4274:	69050404 	stmdbvs	r5, {r2, sl}
    4278:	0300746e 	movweq	r7, #1134	; 0x46e
    427c:	00000836 	andeq	r0, r0, r6, lsr r8
    4280:	005e1302 	subseq	r1, lr, r2, lsl #6
    4284:	04020000 	streq	r0, [r2], #-0
    4288:	00013207 	andeq	r3, r1, r7, lsl #4
    428c:	05080200 	streq	r0, [r8, #-512]	; 0x200
    4290:	000001b1 			; <UNDEFINED> instruction: 0x000001b1
    4294:	28070802 	stmdacs	r7, {r1, fp}
    4298:	05000001 	streq	r0, [r0, #-1]
    429c:	00000053 	andeq	r0, r0, r3, asr r0
    42a0:	0017bc06 	andseq	fp, r7, r6, lsl #24
    42a4:	18030400 	stmdane	r3, {sl}
    42a8:	00000129 	andeq	r0, r0, r9, lsr #2
    42ac:	00190507 	andseq	r0, r9, r7, lsl #10
    42b0:	17073200 	strne	r3, [r7, -r0, lsl #4]
    42b4:	33000019 	movwcc	r0, #25
    42b8:	00178c07 	andseq	r8, r7, r7, lsl #24
    42bc:	94070000 	strls	r0, [r7], #-0
    42c0:	ca000018 	bgt	4328 <__bss_end+0xdd8>
    42c4:	18e10700 	stmiane	r1!, {r8, r9, sl}^
    42c8:	00c00000 	sbceq	r0, r0, r0
    42cc:	00195e07 	andseq	r5, r9, r7, lsl #28
    42d0:	0700d100 	streq	sp, [r0, -r0, lsl #2]
    42d4:	00001978 	andeq	r1, r0, r8, ror r9
    42d8:	19400700 	stmdbne	r0, {r8, r9, sl}^
    42dc:	07000000 	streq	r0, [r0, -r0]
    42e0:	0000194f 	andeq	r1, r0, pc, asr #18
    42e4:	18790700 	ldmdane	r9!, {r8, r9, sl}^
    42e8:	00e70000 	rsceq	r0, r7, r0
    42ec:	00175007 	andseq	r5, r7, r7
    42f0:	0700e800 	streq	lr, [r0, -r0, lsl #16]
    42f4:	00001764 	andeq	r1, r0, r4, ror #14
    42f8:	780700ea 	stmdavc	r7, {r1, r3, r5, r6, r7}
    42fc:	00000017 	andeq	r0, r0, r7, lsl r0
    4300:	0018a507 	andseq	sl, r8, r7, lsl #10
    4304:	0700e900 	streq	lr, [r0, -r0, lsl #18]
    4308:	000018b9 			; <UNDEFINED> instruction: 0x000018b9
    430c:	18cd0700 	stmiane	sp, {r8, r9, sl}^
    4310:	07000000 	streq	r0, [r0, -r0]
    4314:	000017cf 	andeq	r1, r0, pc, asr #15
    4318:	17e00700 	strbne	r0, [r0, r0, lsl #14]!
    431c:	072f0000 	streq	r0, [pc, -r0]!
    4320:	000017f1 	strdeq	r1, [r0], -r1	; <UNPREDICTABLE>
    4324:	18020700 	stmdane	r2, {r8, r9, sl}
    4328:	07000000 	streq	r0, [r0, -r0]
    432c:	00001813 	andeq	r1, r0, r3, lsl r8
    4330:	18240700 	stmdane	r4!, {r8, r9, sl}
    4334:	07000000 	streq	r0, [r0, -r0]
    4338:	00001835 	andeq	r1, r0, r5, lsr r8
    433c:	18460731 	stmdane	r6, {r0, r4, r5, r8, r9, sl}^
    4340:	01840000 	orreq	r0, r4, r0
    4344:	00185707 	andseq	r5, r8, r7, lsl #14
    4348:	68070000 	stmdavs	r7, {}	; <UNPREDICTABLE>
    434c:	00000018 	andeq	r0, r0, r8, lsl r0
    4350:	00310600 	eorseq	r0, r1, r0, lsl #12
    4354:	04040000 	streq	r0, [r4], #-0
    4358:	00019689 	andeq	r9, r1, r9, lsl #13
    435c:	001e0700 	andseq	r0, lr, r0, lsl #14
    4360:	07000000 	streq	r0, [r0, -r0]
    4364:	000000a4 	andeq	r0, r0, r4, lsr #1
    4368:	00470701 	subeq	r0, r7, r1, lsl #14
    436c:	07020000 	streq	r0, [r2, -r0]
    4370:	00000081 	andeq	r0, r0, r1, lsl #1
    4374:	01bf0703 			; <UNDEFINED> instruction: 0x01bf0703
    4378:	07040000 	streq	r0, [r4, -r0]
    437c:	0000011c 	andeq	r0, r0, ip, lsl r1
    4380:	01040705 	tsteq	r4, r5, lsl #14
    4384:	07060000 	streq	r0, [r6, -r0]
    4388:	0000013f 	andeq	r0, r0, pc, lsr r1
    438c:	00120707 	andseq	r0, r2, r7, lsl #14
    4390:	07080000 	streq	r0, [r8, -r0]
    4394:	00000076 	andeq	r0, r0, r6, ror r0
    4398:	01110709 	tsteq	r1, r9, lsl #14
    439c:	070a0000 	streq	r0, [sl, -r0]
    43a0:	000001cb 	andeq	r0, r0, fp, asr #3
    43a4:	002b070b 	eoreq	r0, fp, fp, lsl #14
    43a8:	070c0000 	streq	r0, [ip, -r0]
    43ac:	000001a3 	andeq	r0, r0, r3, lsr #3
    43b0:	0250070d 	subseq	r0, r0, #3407872	; 0x340000
    43b4:	070e0000 	streq	r0, [lr, -r0]
    43b8:	00000039 	andeq	r0, r0, r9, lsr r0
    43bc:	0102000f 	tsteq	r2, pc
    43c0:	00009608 	andeq	r9, r0, r8, lsl #12
    43c4:	07040200 	streq	r0, [r4, -r0, lsl #4]
    43c8:	0000012d 	andeq	r0, r0, sp, lsr #2
    43cc:	01090408 	tsteq	r9, r8, lsl #8
    43d0:	000017a0 	andeq	r1, r0, r0, lsr #15
    43d4:	41012201 	tstmi	r1, r1, lsl #4
    43d8:	14000000 	strne	r0, [r0], #-0
    43dc:	a4000026 	strge	r0, [r0], #-38	; 0x26
    43e0:	b6000026 	strlt	r0, [r0], -r6, lsr #32
    43e4:	d1000016 	tstle	r0, r6, lsl r0
    43e8:	0a000001 	beq	43f4 <__bss_end+0xea4>
    43ec:	24010069 	strcs	r0, [r1], #-105	; 0x69
    43f0:	00000053 	andeq	r0, r0, r3, asr r0
    43f4:	000016d6 	ldrdeq	r1, [r0], -r6
    43f8:	17010900 	strne	r0, [r1, -r0, lsl #18]
    43fc:	01000017 	tsteq	r0, r7, lsl r0
    4400:	00410157 	subeq	r0, r1, r7, asr r1
    4404:	26a40000 	strtcs	r0, [r4], r0
    4408:	26f80000 	ldrbtcs	r0, [r8], r0
    440c:	16f50000 	ldrbtne	r0, [r5], r0
    4410:	020b0000 	andeq	r0, fp, #0
    4414:	690a0000 	stmdbvs	sl, {}	; <UNPREDICTABLE>
    4418:	4c590100 	ldfmie	f0, [r9], {-0}
    441c:	15000000 	strne	r0, [r0, #-0]
    4420:	0b000017 	bleq	4484 <__bss_end+0xf34>
    4424:	000018f3 	strdeq	r1, [r0], -r3
    4428:	00735a01 	rsbseq	r5, r3, r1, lsl #20
    442c:	17340000 	ldrne	r0, [r4, -r0]!
    4430:	0c000000 	stceq	0, cr0, [r0], {-0}
    4434:	0017ad01 	andseq	sl, r7, r1, lsl #26
    4438:	01710100 	cmneq	r1, r0, lsl #2
    443c:	00000041 	andeq	r0, r0, r1, asr #32
    4440:	000026f8 	strdeq	r2, [r0], -r8
    4444:	00002754 	andeq	r2, r0, r4, asr r7
    4448:	55007d02 	strpl	r7, [r0, #-3330]	; 0xd02
    444c:	0d000002 	stceq	0, cr0, [r0, #-8]
    4450:	00637273 	rsbeq	r7, r3, r3, ror r2
    4454:	00787101 	rsbseq	r7, r8, r1, lsl #2
    4458:	175f0000 	ldrbne	r0, [pc, -r0]
    445c:	710b0000 	mrsvc	r0, (UNDEF: 11)
    4460:	01000019 	tsteq	r0, r9, lsl r0
    4464:	00005373 	andeq	r5, r0, r3, ror r3
    4468:	00177d00 	andseq	r7, r7, r0, lsl #26
    446c:	18fe0b00 	ldmne	lr!, {r8, r9, fp}^
    4470:	74010000 	strvc	r0, [r1], #-0
    4474:	00000053 	andeq	r0, r0, r3, asr r0
    4478:	000017b0 			; <UNDEFINED> instruction: 0x000017b0
    447c:	32010c00 	andcc	r0, r1, #0
    4480:	01000019 	tsteq	r0, r9, lsl r0
    4484:	00410193 	umaaleq	r0, r1, r3, r1
    4488:	27540000 	ldrbcs	r0, [r4, -r0]
    448c:	27b00000 	ldrcs	r0, [r0, r0]!
    4490:	7d020000 	stcvc	0, cr0, [r2, #-0]
    4494:	0002ae00 	andeq	sl, r2, r0, lsl #28
    4498:	72730d00 	rsbsvc	r0, r3, #0
    449c:	93010063 	movwls	r0, #4195	; 0x1063
    44a0:	00000078 	andeq	r0, r0, r8, ror r0
    44a4:	000017e1 	andeq	r1, r0, r1, ror #15
    44a8:	0017100b 	andseq	r1, r7, fp
    44ac:	41950100 	orrsmi	r0, r5, r0, lsl #2
    44b0:	ff000000 			; <UNDEFINED> instruction: 0xff000000
    44b4:	0b000017 	bleq	4518 <__bss_end+0xfc8>
    44b8:	00001971 	andeq	r1, r0, r1, ror r9
    44bc:	00539601 	subseq	r9, r3, r1, lsl #12
    44c0:	181f0000 	ldmdane	pc, {}	; <UNPREDICTABLE>
    44c4:	fe0b0000 	cdp2	0, 0, cr0, cr11, cr0, {0}
    44c8:	01000018 	tsteq	r0, r8, lsl r0
    44cc:	00005397 	muleq	r0, r7, r3
    44d0:	00185e00 	andseq	r5, r8, r0, lsl #28
    44d4:	290e0000 	stmdbcs	lr, {}	; <UNPREDICTABLE>
    44d8:	01000019 	tsteq	r0, r9, lsl r0
    44dc:	0001a414 	andeq	sl, r1, r4, lsl r4
    44e0:	40030500 	andmi	r0, r3, r0, lsl #10
    44e4:	0e000033 	mcreq	0, 0, r0, cr0, cr3, {1}
    44e8:	0000188b 	andeq	r1, r0, fp, lsl #17
    44ec:	01a41501 			; <UNDEFINED> instruction: 0x01a41501
    44f0:	03050000 	movweq	r0, #20480	; 0x5000
    44f4:	00003344 	andeq	r3, r0, r4, asr #6
    44f8:	00016600 	andeq	r6, r1, r0, lsl #12
    44fc:	a5000200 	strge	r0, [r0, #-512]	; 0x200
    4500:	0400000f 	streq	r0, [r0], #-15
    4504:	00005401 	andeq	r5, r0, r1, lsl #8
    4508:	19d40100 	ldmibne	r4, {r8}^
    450c:	014f0000 	mrseq	r0, SPSR
    4510:	27b00000 	ldrcs	r0, [r0, r0]!
    4514:	28500000 	ldmdacs	r0, {}^	; <UNPREDICTABLE>
    4518:	120e0000 	andne	r0, lr, #0
    451c:	01020000 	mrseq	r0, (UNDEF: 2)
    4520:	00008f06 	andeq	r8, r0, r6, lsl #30
    4524:	08010200 	stmdaeq	r1, {r9}
    4528:	0000008d 	andeq	r0, r0, sp, lsl #1
    452c:	d6050202 	strle	r0, [r5], -r2, lsl #4
    4530:	02000001 	andeq	r0, r0, #1
    4534:	00b10702 	adcseq	r0, r1, r2, lsl #14
    4538:	32030000 	andcc	r0, r3, #0
    453c:	02000010 	andeq	r0, r0, #16
    4540:	00004c12 	andeq	r4, r0, r2, lsl ip
    4544:	05040400 	streq	r0, [r4, #-1024]	; 0x400
    4548:	00746e69 	rsbseq	r6, r4, r9, ror #28
    454c:	00083603 	andeq	r3, r8, r3, lsl #12
    4550:	5e130200 	cdppl	2, 1, cr0, cr3, cr0, {0}
    4554:	02000000 	andeq	r0, r0, #0
    4558:	01320704 	teqeq	r2, r4, lsl #14
    455c:	08020000 	stmdaeq	r2, {}	; <UNPREDICTABLE>
    4560:	0001b105 	andeq	fp, r1, r5, lsl #2
    4564:	07080200 	streq	r0, [r8, -r0, lsl #4]
    4568:	00000128 	andeq	r0, r0, r8, lsr #2
    456c:	00199b05 	andseq	r9, r9, r5, lsl #22
    4570:	03032000 	movweq	r2, #12288	; 0x3000
    4574:	00008f16 	andeq	r8, r0, r6, lsl pc
    4578:	19c60600 	stmibne	r6, {r9, sl}^
    457c:	17030000 	strne	r0, [r3, -r0]
    4580:	0000008f 	andeq	r0, r0, pc, lsl #1
    4584:	00002302 	andeq	r2, r0, r2, lsl #6
    4588:	00005307 	andeq	r5, r0, r7, lsl #6
    458c:	00009f00 	andeq	r9, r0, r0, lsl #30
    4590:	005e0800 	subseq	r0, lr, r0, lsl #16
    4594:	00c70000 	sbceq	r0, r7, r0
    4598:	96080102 	strls	r0, [r8], -r2, lsl #2
    459c:	02000000 	andeq	r0, r0, #0
    45a0:	012d0704 	teqeq	sp, r4, lsl #14
    45a4:	01090000 	mrseq	r0, (UNDEF: 9)
    45a8:	00001a01 	andeq	r1, r0, r1, lsl #20
    45ac:	41010f01 	tstmi	r1, r1, lsl #30
    45b0:	b0000000 	andlt	r0, r0, r0
    45b4:	dc000027 	stcle	0, cr0, [r0], {39}	; 0x27
    45b8:	02000027 	andeq	r0, r0, #39	; 0x27
    45bc:	00e6007d 	rsceq	r0, r6, sp, ror r0
    45c0:	9a0a0000 	bls	2845c8 <__bss_end+0x281078>
    45c4:	01000019 	tsteq	r0, r9, lsl r0
    45c8:	0000e60f 	andeq	lr, r0, pc, lsl #12
    45cc:	00188f00 	andseq	r8, r8, r0, lsl #30
    45d0:	00690b00 	rsbeq	r0, r9, r0, lsl #22
    45d4:	004c1101 	subeq	r1, ip, r1, lsl #2
    45d8:	18af0000 	stmiane	pc!, {}	; <UNPREDICTABLE>
    45dc:	0c000000 	stceq	0, cr0, [r0], {-0}
    45e0:	00007304 	andeq	r7, r0, r4, lsl #6
    45e4:	89010900 	stmdbhi	r1, {r8, fp}
    45e8:	01000019 	tsteq	r0, r9, lsl r0
    45ec:	00410125 	subeq	r0, r1, r5, lsr #2
    45f0:	27dc0000 	ldrbcs	r0, [ip, r0]
    45f4:	28080000 	stmdacs	r8, {}	; <UNPREDICTABLE>
    45f8:	7d020000 	stcvc	0, cr0, [r2, #-0]
    45fc:	00012500 	andeq	r2, r1, r0, lsl #10
    4600:	199a0a00 	ldmibne	sl, {r9, fp}
    4604:	25010000 	strcs	r0, [r1, #-0]
    4608:	000000e6 	andeq	r0, r0, r6, ror #1
    460c:	000018c3 	andeq	r1, r0, r3, asr #17
    4610:	0100690b 	tsteq	r0, fp, lsl #18
    4614:	00004c27 	andeq	r4, r0, r7, lsr #24
    4618:	0018e300 	andseq	lr, r8, r0, lsl #6
    461c:	010d0000 	mrseq	r0, (UNDEF: 13)
    4620:	000019a6 	andeq	r1, r0, r6, lsr #19
    4624:	08013901 	stmdaeq	r1, {r0, r8, fp, ip, sp}
    4628:	50000028 	andpl	r0, r0, r8, lsr #32
    462c:	02000028 	andeq	r0, r0, #40	; 0x28
    4630:	fc0a007d 	stc2	0, cr0, [sl], {125}	; 0x7d
    4634:	01000014 	tsteq	r0, r4, lsl r0
    4638:	00005339 	andeq	r5, r0, r9, lsr r3
    463c:	0018f700 	andseq	pc, r8, r0, lsl #14
    4640:	19b60e00 	ldmibne	r6!, {r9, sl, fp}
    4644:	3b010000 	blcc	4464c <__bss_end+0x410fc>
    4648:	00000053 	andeq	r0, r0, r3, asr r0
    464c:	33480305 	movtcc	r0, #33541	; 0x8305
    4650:	0f0f0000 	svceq	0x000f0000
    4654:	0100001a 	tsteq	r0, sl, lsl r0
    4658:	0000533c 	andeq	r5, r0, ip, lsr r3
    465c:	00190a00 	andseq	r0, r9, r0, lsl #20
    4660:	88000000 	stmdahi	r0, {}	; <UNPREDICTABLE>
    4664:	02000004 	andeq	r0, r0, #4
    4668:	00107f00 	andseq	r7, r0, r0, lsl #30
    466c:	54010400 	strpl	r0, [r1], #-1024	; 0x400
    4670:	01000000 	mrseq	r0, (UNDEF: 0)
    4674:	00001aca 	andeq	r1, r0, sl, asr #21
    4678:	0000014f 	andeq	r0, r0, pc, asr #2
    467c:	00002850 	andeq	r2, r0, r0, asr r8
    4680:	00002a38 	andeq	r2, r0, r8, lsr sl
    4684:	000012ba 			; <UNDEFINED> instruction: 0x000012ba
    4688:	8f060102 	svchi	0x00060102
    468c:	02000000 	andeq	r0, r0, #0
    4690:	008d0801 	addeq	r0, sp, r1, lsl #16
    4694:	02020000 	andeq	r0, r2, #0
    4698:	0001d605 	andeq	sp, r1, r5, lsl #12
    469c:	07020200 	streq	r0, [r2, -r0, lsl #4]
    46a0:	000000b1 	strheq	r0, [r0], -r1
    46a4:	00103203 	andseq	r3, r0, r3, lsl #4
    46a8:	4c120200 	lfmmi	f0, 4, [r2], {-0}
    46ac:	04000000 	streq	r0, [r0], #-0
    46b0:	6e690504 	cdpvs	5, 6, cr0, cr9, cr4, {0}
    46b4:	36030074 			; <UNDEFINED> instruction: 0x36030074
    46b8:	02000008 	andeq	r0, r0, #8
    46bc:	00005e13 	andeq	r5, r0, r3, lsl lr
    46c0:	07040200 	streq	r0, [r4, -r0, lsl #4]
    46c4:	00000132 	andeq	r0, r0, r2, lsr r1
    46c8:	b1050802 	tstlt	r5, r2, lsl #16
    46cc:	02000001 	andeq	r0, r0, #1
    46d0:	01280708 	teqeq	r8, r8, lsl #14
    46d4:	53050000 	movwpl	r0, #20480	; 0x5000
    46d8:	06000000 	streq	r0, [r0], -r0
    46dc:	00000053 	andeq	r0, r0, r3, asr r0
    46e0:	00000088 	andeq	r0, r0, r8, lsl #1
    46e4:	00005e07 	andeq	r5, r0, r7, lsl #28
    46e8:	06000100 	streq	r0, [r0], -r0, lsl #2
    46ec:	00000053 	andeq	r0, r0, r3, asr r0
    46f0:	00000098 	muleq	r0, r8, r0
    46f4:	00005e07 	andeq	r5, r0, r7, lsl #28
    46f8:	08000300 	stmdaeq	r0, {r8, r9}
    46fc:	00001ba5 	andeq	r1, r0, r5, lsr #23
    4700:	b61503bc 			; <UNDEFINED> instruction: 0xb61503bc
    4704:	09000002 	stmdbeq	r0, {r1}
    4708:	00001a3a 	andeq	r1, r0, sl, lsr sl
    470c:	00731803 	rsbseq	r1, r3, r3, lsl #16
    4710:	23020000 	movwcs	r0, #8192	; 0x2000
    4714:	1c030900 	stcne	9, cr0, [r3], {-0}
    4718:	19030000 	stmdbne	r3, {}	; <UNPREDICTABLE>
    471c:	00000073 	andeq	r0, r0, r3, ror r0
    4720:	09042302 	stmdbeq	r4, {r1, r8, r9, sp}
    4724:	00000a72 	andeq	r0, r0, r2, ror sl
    4728:	02b61a03 	adcseq	r1, r6, #12288	; 0x3000
    472c:	23020000 	movwcs	r0, #8192	; 0x2000
    4730:	1c480908 	mcrrne	9, 0, r0, r8, cr8
    4734:	1c030000 	stcne	0, cr0, [r3], {-0}
    4738:	00000073 	andeq	r0, r0, r3, ror r0
    473c:	09102302 	ldmdbeq	r0, {r1, r8, r9, sp}
    4740:	00001a41 	andeq	r1, r0, r1, asr #20
    4744:	00731d03 	rsbseq	r1, r3, r3, lsl #26
    4748:	23020000 	movwcs	r0, #8192	; 0x2000
    474c:	1a6f0914 	bne	1bc6ba4 <__bss_end+0x1bc3654>
    4750:	1e030000 	cdpne	0, 0, cr0, cr3, cr0, {0}
    4754:	00000073 	andeq	r0, r0, r3, ror r0
    4758:	09182302 	ldmdbeq	r8, {r1, r8, r9, sp}
    475c:	00000a7c 	andeq	r0, r0, ip, ror sl
    4760:	00731f03 	rsbseq	r1, r3, r3, lsl #30
    4764:	23020000 	movwcs	r0, #8192	; 0x2000
    4768:	1a67091c 	bne	19c6be0 <__bss_end+0x19c3690>
    476c:	21030000 	mrscs	r0, (UNDEF: 3)
    4770:	00000073 	andeq	r0, r0, r3, ror r0
    4774:	09202302 	stmdbeq	r0!, {r1, r8, r9, sp}
    4778:	00001bd7 	ldrdeq	r1, [r0], -r7
    477c:	00732203 	rsbseq	r2, r3, r3, lsl #4
    4780:	23020000 	movwcs	r0, #8192	; 0x2000
    4784:	1c0a0924 	stcne	9, cr0, [sl], {36}	; 0x24
    4788:	23030000 	movwcs	r0, #12288	; 0x3000
    478c:	00000073 	andeq	r0, r0, r3, ror r0
    4790:	09282302 	stmdbeq	r8!, {r1, r8, r9, sp}
    4794:	00000a86 	andeq	r0, r0, r6, lsl #21
    4798:	00732403 	rsbseq	r2, r3, r3, lsl #8
    479c:	23020000 	movwcs	r0, #8192	; 0x2000
    47a0:	1b2f092c 	blne	bc6c58 <__bss_end+0xbc3708>
    47a4:	26030000 	strcs	r0, [r3], -r0
    47a8:	00000073 	andeq	r0, r0, r3, ror r0
    47ac:	09302302 	ldmdbeq	r0!, {r1, r8, r9, sp}
    47b0:	00001a82 	andeq	r1, r0, r2, lsl #21
    47b4:	00732703 	rsbseq	r2, r3, r3, lsl #14
    47b8:	23020000 	movwcs	r0, #8192	; 0x2000
    47bc:	1a9d0934 	bne	fe746c94 <__bss_end+0xfe743744>
    47c0:	28030000 	stmdacs	r3, {}	; <UNPREDICTABLE>
    47c4:	00000073 	andeq	r0, r0, r3, ror r0
    47c8:	09382302 	ldmdbeq	r8!, {r1, r8, r9, sp}
    47cc:	00000a90 	muleq	r0, r0, sl
    47d0:	00732903 	rsbseq	r2, r3, r3, lsl #18
    47d4:	23020000 	movwcs	r0, #8192	; 0x2000
    47d8:	1bf4093c 	blne	ffd06cd0 <__bss_end+0xffd03780>
    47dc:	2b030000 	blcs	c47e4 <__bss_end+0xc1294>
    47e0:	00000073 	andeq	r0, r0, r3, ror r0
    47e4:	09402302 	stmdbeq	r0, {r1, r8, r9, sp}^
    47e8:	00001c15 	andeq	r1, r0, r5, lsl ip
    47ec:	00732c03 	rsbseq	r2, r3, r3, lsl #24
    47f0:	23020000 	movwcs	r0, #8192	; 0x2000
    47f4:	0a9a0944 	beq	fe686d0c <__bss_end+0xfe6837bc>
    47f8:	2d030000 	stccs	0, cr0, [r3, #-0]
    47fc:	000002bb 			; <UNDEFINED> instruction: 0x000002bb
    4800:	09482302 	stmdbeq	r8, {r1, r8, r9, sp}^
    4804:	00001c50 	andeq	r1, r0, r0, asr ip
    4808:	00732f03 	rsbseq	r2, r3, r3, lsl #30
    480c:	23020000 	movwcs	r0, #8192	; 0x2000
    4810:	1af60950 	bne	ffd86d58 <__bss_end+0xffd83808>
    4814:	30030000 	andcc	r0, r3, r0
    4818:	00000073 	andeq	r0, r0, r3, ror r0
    481c:	09542302 	ldmdbeq	r4, {r1, r8, r9, sp}^
    4820:	00001b01 	andeq	r1, r0, r1, lsl #22
    4824:	00733103 	rsbseq	r3, r3, r3, lsl #2
    4828:	23020000 	movwcs	r0, #8192	; 0x2000
    482c:	0aa40958 	beq	fe906d94 <__bss_end+0xfe903844>
    4830:	32030000 	andcc	r0, r3, #0
    4834:	00000073 	andeq	r0, r0, r3, ror r0
    4838:	095c2302 	ldmdbeq	ip, {r1, r8, r9, sp}^
    483c:	00001a7a 	andeq	r1, r0, sl, ror sl
    4840:	00733403 	rsbseq	r3, r3, r3, lsl #8
    4844:	23020000 	movwcs	r0, #8192	; 0x2000
    4848:	1bcc0960 	blne	ff306dd0 <__bss_end+0xff303880>
    484c:	35030000 	strcc	r0, [r3, #-0]
    4850:	00000073 	andeq	r0, r0, r3, ror r0
    4854:	09642302 	stmdbeq	r4!, {r1, r8, r9, sp}^
    4858:	00001c36 	andeq	r1, r0, r6, lsr ip
    485c:	00733603 	rsbseq	r3, r3, r3, lsl #12
    4860:	23020000 	movwcs	r0, #8192	; 0x2000
    4864:	0aae0968 	beq	feb86e0c <__bss_end+0xfeb838bc>
    4868:	37030000 	strcc	r0, [r3, -r0]
    486c:	000002d0 	ldrdeq	r0, [r0], -r0	; <UNPREDICTABLE>
    4870:	096c2302 	stmdbeq	ip!, {r1, r8, r9, sp}^
    4874:	00001bfc 	strdeq	r1, [r0], -ip
    4878:	00733903 	rsbseq	r3, r3, r3, lsl #18
    487c:	23030000 	movwcs	r0, #12288	; 0x3000
    4880:	2e090180 	adfcs<illegal precision>	f0, f1, f0
    4884:	0300001c 	movweq	r0, #28
    4888:	0000733a 	andeq	r7, r0, sl, lsr r3
    488c:	84230300 	strthi	r0, [r3], #-768	; 0x300
    4890:	1a320901 	bne	c86c9c <__bss_end+0xc8374c>
    4894:	3b030000 	blcc	c489c <__bss_end+0xc134c>
    4898:	00000073 	andeq	r0, r0, r3, ror r0
    489c:	01882303 	orreq	r2, r8, r3, lsl #6
    48a0:	001bed09 	andseq	lr, fp, r9, lsl #26
    48a4:	733c0300 	teqvc	ip, #0
    48a8:	03000000 	movweq	r0, #0
    48ac:	09018c23 	stmdbeq	r1, {r0, r1, r5, sl, fp, pc}
    48b0:	00000ab8 			; <UNDEFINED> instruction: 0x00000ab8
    48b4:	02d53f03 	sbcseq	r3, r5, #12
    48b8:	23030000 	movwcs	r0, #12288	; 0x3000
    48bc:	81090190 			; <UNDEFINED> instruction: 0x81090190
    48c0:	0300001b 	movweq	r0, #27
    48c4:	00007342 	andeq	r7, r0, r2, asr #6
    48c8:	a0230300 	eorge	r0, r3, r0, lsl #6
    48cc:	1a240901 	bne	906cd8 <__bss_end+0x903788>
    48d0:	43030000 	movwmi	r0, #12288	; 0x3000
    48d4:	00000073 	andeq	r0, r0, r3, ror r0
    48d8:	01a42303 			; <UNDEFINED> instruction: 0x01a42303
    48dc:	001b2509 	andseq	r2, fp, r9, lsl #10
    48e0:	da440300 	ble	11054e8 <__bss_end+0x1101f98>
    48e4:	03000002 	movweq	r0, #2
    48e8:	0901a823 	stmdbeq	r1, {r0, r1, r5, fp, sp, pc}
    48ec:	00001a4c 	andeq	r1, r0, ip, asr #20
    48f0:	00734703 	rsbseq	r4, r3, r3, lsl #14
    48f4:	23030000 	movwcs	r0, #12288	; 0x3000
    48f8:	200901b0 			; <UNDEFINED> instruction: 0x200901b0
    48fc:	0300001c 	movweq	r0, #28
    4900:	00007348 	andeq	r7, r0, r8, asr #6
    4904:	b4230300 	strtlt	r0, [r3], #-768	; 0x300
    4908:	1b370901 	blne	dc6d14 <__bss_end+0xdc37c4>
    490c:	49030000 	stmdbmi	r3, {}	; <UNPREDICTABLE>
    4910:	00000073 	andeq	r0, r0, r3, ror r0
    4914:	01b82303 			; <UNDEFINED> instruction: 0x01b82303
    4918:	00780500 	rsbseq	r0, r8, r0, lsl #10
    491c:	78050000 	stmdavc	r5, {}	; <UNPREDICTABLE>
    4920:	06000000 	streq	r0, [r0], -r0
    4924:	00000053 	andeq	r0, r0, r3, asr r0
    4928:	000002d0 	ldrdeq	r0, [r0], -r0	; <UNPREDICTABLE>
    492c:	00005e07 	andeq	r5, r0, r7, lsl #28
    4930:	05000400 	streq	r0, [r0, #-1024]	; 0x400
    4934:	000002c0 	andeq	r0, r0, r0, asr #5
    4938:	00008805 	andeq	r8, r0, r5, lsl #16
    493c:	00780500 	rsbseq	r0, r8, r0, lsl #10
    4940:	8d030000 	stchi	0, cr0, [r3, #-0]
    4944:	0300001a 	movweq	r0, #26
    4948:	0000984b 	andeq	r9, r0, fp, asr #16
    494c:	00310a00 	eorseq	r0, r1, r0, lsl #20
    4950:	04040000 	streq	r0, [r4], #-0
    4954:	00035789 	andeq	r5, r3, r9, lsl #15
    4958:	001e0b00 	andseq	r0, lr, r0, lsl #22
    495c:	0b000000 	bleq	4964 <__bss_end+0x1414>
    4960:	000000a4 	andeq	r0, r0, r4, lsr #1
    4964:	00470b01 	subeq	r0, r7, r1, lsl #22
    4968:	0b020000 	bleq	84970 <__bss_end+0x81420>
    496c:	00000081 	andeq	r0, r0, r1, lsl #1
    4970:	01bf0b03 			; <UNDEFINED> instruction: 0x01bf0b03
    4974:	0b040000 	bleq	10497c <__bss_end+0x10142c>
    4978:	0000011c 	andeq	r0, r0, ip, lsl r1
    497c:	01040b05 	tsteq	r4, r5, lsl #22
    4980:	0b060000 	bleq	184988 <__bss_end+0x181438>
    4984:	0000013f 	andeq	r0, r0, pc, lsr r1
    4988:	00120b07 	andseq	r0, r2, r7, lsl #22
    498c:	0b080000 	bleq	204994 <__bss_end+0x201444>
    4990:	00000076 	andeq	r0, r0, r6, ror r0
    4994:	01110b09 	tsteq	r1, r9, lsl #22
    4998:	0b0a0000 	bleq	2849a0 <__bss_end+0x281450>
    499c:	000001cb 	andeq	r0, r0, fp, asr #3
    49a0:	002b0b0b 	eoreq	r0, fp, fp, lsl #22
    49a4:	0b0c0000 	bleq	3049ac <__bss_end+0x30145c>
    49a8:	000001a3 	andeq	r0, r0, r3, lsr #3
    49ac:	02500b0d 	subseq	r0, r0, #13312	; 0x3400
    49b0:	0b0e0000 	bleq	3849b8 <__bss_end+0x381468>
    49b4:	00000039 	andeq	r0, r0, r9, lsr r0
    49b8:	0102000f 	tsteq	r2, pc
    49bc:	00009608 	andeq	r9, r0, r8, lsl #12
    49c0:	07040200 	streq	r0, [r4, -r0, lsl #4]
    49c4:	0000012d 	andeq	r0, r0, sp, lsr #2
    49c8:	1c58010c 	ldfnee	f0, [r8], {12}
    49cc:	11010000 	mrsne	r0, (UNDEF: 1)
    49d0:	00004101 	andeq	r4, r0, r1, lsl #2
    49d4:	00285000 	eoreq	r5, r8, r0
    49d8:	0028b000 	eoreq	fp, r8, r0
    49dc:	007d0200 	rsbseq	r0, sp, r0, lsl #4
    49e0:	00000391 	muleq	r0, r1, r3
    49e4:	001be20d 	andseq	lr, fp, sp, lsl #4
    49e8:	91110100 	tstls	r1, r0, lsl #2
    49ec:	1e000003 	cdpne	0, 0, cr0, cr0, cr3, {0}
    49f0:	00000019 	andeq	r0, r0, r9, lsl r0
    49f4:	02df040e 	sbcseq	r0, pc, #234881024	; 0xe000000
    49f8:	010c0000 	mrseq	r0, (UNDEF: 12)
    49fc:	00001b95 	muleq	r0, r5, fp
    4a00:	41012f01 	tstmi	r1, r1, lsl #30
    4a04:	b0000000 	andlt	r0, r0, r0
    4a08:	00000028 	andeq	r0, r0, r8, lsr #32
    4a0c:	02000029 	andeq	r0, r0, #41	; 0x29
    4a10:	03c3007d 	biceq	r0, r3, #125	; 0x7d
    4a14:	e20d0000 	and	r0, sp, #0
    4a18:	0100001b 	tsteq	r0, fp, lsl r0
    4a1c:	0003912f 	andeq	r9, r3, pc, lsr #2
    4a20:	00193c00 	andseq	r3, r9, r0, lsl #24
    4a24:	010f0000 	mrseq	r0, CPSR
    4a28:	00001b74 	andeq	r1, r0, r4, ror fp
    4a2c:	41014901 	tstmi	r1, r1, lsl #18
    4a30:	00000000 	andeq	r0, r0, r0
    4a34:	38000029 	stmdacc	r0, {r0, r3, r5}
    4a38:	02000029 	andeq	r0, r0, #41	; 0x29
    4a3c:	010f007d 	tsteq	pc, sp, ror r0	; <UNPREDICTABLE>
    4a40:	00001abd 			; <UNDEFINED> instruction: 0x00001abd
    4a44:	41016101 	tstmi	r1, r1, lsl #2
    4a48:	38000000 	stmdacc	r0, {}	; <UNPREDICTABLE>
    4a4c:	60000029 	andvs	r0, r0, r9, lsr #32
    4a50:	02000029 	andeq	r0, r0, #41	; 0x29
    4a54:	0110007d 	tsteq	r0, sp, ror r0
    4a58:	00001b5c 	andeq	r1, r0, ip, asr fp
    4a5c:	60017901 	andvs	r7, r1, r1, lsl #18
    4a60:	a8000029 	stmdage	r0, {r0, r3, r5}
    4a64:	02000029 	andeq	r0, r0, #41	; 0x29
    4a68:	0110007d 	tsteq	r0, sp, ror r0
    4a6c:	00001bb3 			; <UNDEFINED> instruction: 0x00001bb3
    4a70:	a8019a01 	stmdage	r1, {r0, r9, fp, ip, pc}
    4a74:	e8000029 	stmda	r0, {r0, r3, r5}
    4a78:	02000029 	andeq	r0, r0, #41	; 0x29
    4a7c:	010c007d 	tsteq	ip, sp, ror r0
    4a80:	00001a5b 	andeq	r1, r0, fp, asr sl
    4a84:	4101b501 	tstmi	r1, r1, lsl #10
    4a88:	e8000000 	stmda	r0, {}	; <UNPREDICTABLE>
    4a8c:	38000029 	stmdacc	r0, {r0, r3, r5}
    4a90:	0200002a 	andeq	r0, r0, #42	; 0x2a
    4a94:	0447007d 	strbeq	r0, [r7], #-125	; 0x7d
    4a98:	8e0d0000 	cdphi	0, 0, cr0, cr13, cr0, {0}
    4a9c:	0100001b 	tsteq	r0, fp, lsl r0
    4aa0:	000053b5 			; <UNDEFINED> instruction: 0x000053b5
    4aa4:	00195a00 	andseq	r5, r9, r0, lsl #20
    4aa8:	41110000 	tstmi	r1, r0
    4aac:	0100001c 	tsteq	r0, ip, lsl r0
    4ab0:	00039103 	andeq	r9, r3, r3, lsl #2
    4ab4:	4c030500 	cfstr32mi	mvfx0, [r3], {-0}
    4ab8:	11000033 	tstne	r0, r3, lsr r0
    4abc:	00001b0c 	andeq	r1, r0, ip, lsl #22
    4ac0:	00530401 	subseq	r0, r3, r1, lsl #8
    4ac4:	03050000 	movweq	r0, #20480	; 0x5000
    4ac8:	00003350 	andeq	r3, r0, r0, asr r3
    4acc:	001b4611 	andseq	r4, fp, r1, lsl r6
    4ad0:	53040100 	movwpl	r0, #16640	; 0x4100
    4ad4:	05000000 	streq	r0, [r0, #-0]
    4ad8:	00335403 	eorseq	r5, r3, r3, lsl #8
    4adc:	1aa81100 	bne	fea08ee4 <__bss_end+0xfea05994>
    4ae0:	04010000 	streq	r0, [r1], #-0
    4ae4:	00000053 	andeq	r0, r0, r3, asr r0
    4ae8:	33580305 	cmpcc	r8, #335544320	; 0x14000000
    4aec:	b6000000 	strlt	r0, [r0], -r0
    4af0:	02000001 	andeq	r0, r0, #1
    4af4:	00117100 	andseq	r7, r1, r0, lsl #2
    4af8:	54010400 	strpl	r0, [r1], #-1024	; 0x400
    4afc:	01000000 	mrseq	r0, (UNDEF: 0)
    4b00:	00001cb6 			; <UNDEFINED> instruction: 0x00001cb6
    4b04:	0000014f 	andeq	r0, r0, pc, asr #2
    4b08:	00002a38 	andeq	r2, r0, r8, lsr sl
    4b0c:	00002a90 	muleq	r0, r0, sl
    4b10:	000013ba 			; <UNDEFINED> instruction: 0x000013ba
    4b14:	8f060102 	svchi	0x00060102
    4b18:	02000000 	andeq	r0, r0, #0
    4b1c:	008d0801 	addeq	r0, sp, r1, lsl #16
    4b20:	02020000 	andeq	r0, r2, #0
    4b24:	0001d605 	andeq	sp, r1, r5, lsl #12
    4b28:	07020200 	streq	r0, [r2, -r0, lsl #4]
    4b2c:	000000b1 	strheq	r0, [r0], -r1
    4b30:	00103203 	andseq	r3, r0, r3, lsl #4
    4b34:	4c120200 	lfmmi	f0, 4, [r2], {-0}
    4b38:	04000000 	streq	r0, [r0], #-0
    4b3c:	6e690504 	cdpvs	5, 6, cr0, cr9, cr4, {0}
    4b40:	36030074 			; <UNDEFINED> instruction: 0x36030074
    4b44:	02000008 	andeq	r0, r0, #8
    4b48:	00005e13 	andeq	r5, r0, r3, lsl lr
    4b4c:	07040200 	streq	r0, [r4, -r0, lsl #4]
    4b50:	00000132 	andeq	r0, r0, r2, lsr r1
    4b54:	b1050802 	tstlt	r5, r2, lsl #16
    4b58:	02000001 	andeq	r0, r0, #1
    4b5c:	01280708 	teqeq	r8, r8, lsl #14
    4b60:	53050000 	movwpl	r0, #20480	; 0x5000
    4b64:	06000000 	streq	r0, [r0], -r0
    4b68:	00000053 	andeq	r0, r0, r3, asr r0
    4b6c:	00000088 	andeq	r0, r0, r8, lsl #1
    4b70:	00005e07 	andeq	r5, r0, r7, lsl #28
    4b74:	08000600 	stmdaeq	r0, {r9, sl}
    4b78:	00001cf3 	strdeq	r1, [r0], -r3
    4b7c:	bf150324 	svclt	0x00150324
    4b80:	09000000 	stmdbeq	r0, {}	; <UNPREDICTABLE>
    4b84:	006c7443 	rsbeq	r7, ip, r3, asr #8
    4b88:	00731803 	rsbseq	r1, r3, r3, lsl #16
    4b8c:	23020000 	movwcs	r0, #8192	; 0x2000
    4b90:	0a720a00 	beq	1c87398 <__bss_end+0x1c83e48>
    4b94:	19030000 	stmdbne	r3, {}	; <UNPREDICTABLE>
    4b98:	000000bf 	strheq	r0, [r0], -pc	; <UNPREDICTABLE>
    4b9c:	0a042302 	beq	10d7ac <__bss_end+0x10a25c>
    4ba0:	00001c65 	andeq	r1, r0, r5, ror #24
    4ba4:	00731b03 	rsbseq	r1, r3, r3, lsl #22
    4ba8:	23020000 	movwcs	r0, #8192	; 0x2000
    4bac:	78050020 	stmdavc	r5, {r5}
    4bb0:	03000000 	movweq	r0, #0
    4bb4:	00001ca3 	andeq	r1, r0, r3, lsr #25
    4bb8:	00881d03 	addeq	r1, r8, r3, lsl #26
    4bbc:	310b0000 	mrscc	r0, (UNDEF: 11)
    4bc0:	04000000 	streq	r0, [r0], #-0
    4bc4:	013c8904 	teqeq	ip, r4, lsl #18
    4bc8:	1e0c0000 	cdpne	0, 0, cr0, cr12, cr0, {0}
    4bcc:	00000000 	andeq	r0, r0, r0
    4bd0:	0000a40c 	andeq	sl, r0, ip, lsl #8
    4bd4:	470c0100 	strmi	r0, [ip, -r0, lsl #2]
    4bd8:	02000000 	andeq	r0, r0, #0
    4bdc:	0000810c 	andeq	r8, r0, ip, lsl #2
    4be0:	bf0c0300 	svclt	0x000c0300
    4be4:	04000001 	streq	r0, [r0], #-1
    4be8:	00011c0c 	andeq	r1, r1, ip, lsl #24
    4bec:	040c0500 	streq	r0, [ip], #-1280	; 0x500
    4bf0:	06000001 	streq	r0, [r0], -r1
    4bf4:	00013f0c 	andeq	r3, r1, ip, lsl #30
    4bf8:	120c0700 	andne	r0, ip, #0
    4bfc:	08000000 	stmdaeq	r0, {}	; <UNPREDICTABLE>
    4c00:	0000760c 	andeq	r7, r0, ip, lsl #12
    4c04:	110c0900 	tstne	ip, r0, lsl #18
    4c08:	0a000001 	beq	4c14 <__bss_end+0x16c4>
    4c0c:	0001cb0c 	andeq	ip, r1, ip, lsl #22
    4c10:	2b0c0b00 	blcs	307818 <__bss_end+0x3042c8>
    4c14:	0c000000 	stceq	0, cr0, [r0], {-0}
    4c18:	0001a30c 	andeq	sl, r1, ip, lsl #6
    4c1c:	500c0d00 	andpl	r0, ip, r0, lsl #26
    4c20:	0e000002 	cdpeq	0, 0, cr0, cr0, cr2, {0}
    4c24:	0000390c 	andeq	r3, r0, ip, lsl #18
    4c28:	02000f00 	andeq	r0, r0, #0
    4c2c:	00960801 	addseq	r0, r6, r1, lsl #16
    4c30:	04020000 	streq	r0, [r2], #-0
    4c34:	00012d07 	andeq	r2, r1, r7, lsl #26
    4c38:	76010d00 	strvc	r0, [r1], -r0, lsl #26
    4c3c:	0100001c 	tsteq	r0, ip, lsl r0
    4c40:	00410111 	subeq	r0, r1, r1, lsl r1
    4c44:	2a380000 	bcs	e04c4c <__bss_end+0xe016fc>
    4c48:	2a680000 	bcs	1a04c50 <__bss_end+0x1a01700>
    4c4c:	7d020000 	stcvc	0, cr0, [r2, #-0]
    4c50:	00017600 	andeq	r7, r1, r0, lsl #12
    4c54:	1ce50e00 	stclne	14, cr0, [r5]
    4c58:	11010000 	mrsne	r0, (UNDEF: 1)
    4c5c:	00000176 	andeq	r0, r0, r6, ror r1
    4c60:	0000196d 	andeq	r1, r0, sp, ror #18
    4c64:	c4040f00 	strgt	r0, [r4], #-3840	; 0xf00
    4c68:	0d000000 	stceq	0, cr0, [r0, #-0]
    4c6c:	001c8601 	andseq	r8, ip, r1, lsl #12
    4c70:	012a0100 	teqeq	sl, r0, lsl #2
    4c74:	00000041 	andeq	r0, r0, r1, asr #32
    4c78:	00002a68 	andeq	r2, r0, r8, ror #20
    4c7c:	00002a90 	muleq	r0, r0, sl
    4c80:	a8007d02 	stmdage	r0, {r1, r8, sl, fp, ip, sp, lr}
    4c84:	0e000001 	cdpeq	0, 0, cr0, cr0, cr1, {0}
    4c88:	00001ce5 	andeq	r1, r0, r5, ror #25
    4c8c:	01762a01 	cmneq	r6, r1, lsl #20
    4c90:	198b0000 	stmibne	fp, {}	; <UNPREDICTABLE>
    4c94:	10000000 	andne	r0, r0, r0
    4c98:	00001c99 	muleq	r0, r9, ip
    4c9c:	01760401 	cmneq	r6, r1, lsl #8
    4ca0:	03050000 	movweq	r0, #20480	; 0x5000
    4ca4:	0000335c 	andeq	r3, r0, ip, asr r3
    4ca8:	0002ff00 	andeq	pc, r2, r0, lsl #30
    4cac:	46000200 	strmi	r0, [r0], -r0, lsl #4
    4cb0:	04000012 	streq	r0, [r0], #-18
    4cb4:	00005401 	andeq	r5, r0, r1, lsl #8
    4cb8:	1d200100 	stfnes	f0, [r0, #-0]
    4cbc:	014f0000 	mrseq	r0, SPSR
    4cc0:	2a900000 	bcs	fe404cc8 <__bss_end+0xfe401778>
    4cc4:	2c080000 	stccs	0, cr0, [r8], {-0}
    4cc8:	146d0000 	strbtne	r0, [sp], #-0
    4ccc:	01020000 	mrseq	r0, (UNDEF: 2)
    4cd0:	00008f06 	andeq	r8, r0, r6, lsl #30
    4cd4:	08010200 	stmdaeq	r1, {r9}
    4cd8:	0000008d 	andeq	r0, r0, sp, lsl #1
    4cdc:	d6050202 	strle	r0, [r5], -r2, lsl #4
    4ce0:	02000001 	andeq	r0, r0, #1
    4ce4:	00b10702 	adcseq	r0, r1, r2, lsl #14
    4ce8:	32030000 	andcc	r0, r3, #0
    4cec:	02000010 	andeq	r0, r0, #16
    4cf0:	00004c12 	andeq	r4, r0, r2, lsl ip
    4cf4:	05040400 	streq	r0, [r4, #-1024]	; 0x400
    4cf8:	00746e69 	rsbseq	r6, r4, r9, ror #28
    4cfc:	00083603 	andeq	r3, r8, r3, lsl #12
    4d00:	5e130200 	cdppl	2, 1, cr0, cr3, cr0, {0}
    4d04:	02000000 	andeq	r0, r0, #0
    4d08:	01320704 	teqeq	r2, r4, lsl #14
    4d0c:	08020000 	stmdaeq	r2, {}	; <UNPREDICTABLE>
    4d10:	0001b105 	andeq	fp, r1, r5, lsl #2
    4d14:	07080200 	streq	r0, [r8, -r0, lsl #4]
    4d18:	00000128 	andeq	r0, r0, r8, lsr #2
    4d1c:	00003105 	andeq	r3, r0, r5, lsl #2
    4d20:	89030400 	stmdbhi	r3, {sl}
    4d24:	000000e0 	andeq	r0, r0, r0, ror #1
    4d28:	00001e06 	andeq	r1, r0, r6, lsl #28
    4d2c:	a4060000 	strge	r0, [r6], #-0
    4d30:	01000000 	mrseq	r0, (UNDEF: 0)
    4d34:	00004706 	andeq	r4, r0, r6, lsl #14
    4d38:	81060200 	mrshi	r0, LR_usr
    4d3c:	03000000 	movweq	r0, #0
    4d40:	0001bf06 	andeq	fp, r1, r6, lsl #30
    4d44:	1c060400 	cfstrsne	mvf0, [r6], {-0}
    4d48:	05000001 	streq	r0, [r0, #-1]
    4d4c:	00010406 	andeq	r0, r1, r6, lsl #8
    4d50:	3f060600 	svccc	0x00060600
    4d54:	07000001 	streq	r0, [r0, -r1]
    4d58:	00001206 	andeq	r1, r0, r6, lsl #4
    4d5c:	76060800 	strvc	r0, [r6], -r0, lsl #16
    4d60:	09000000 	stmdbeq	r0, {}	; <UNPREDICTABLE>
    4d64:	00011106 	andeq	r1, r1, r6, lsl #2
    4d68:	cb060a00 	blgt	187570 <__bss_end+0x184020>
    4d6c:	0b000001 	bleq	4d78 <__bss_end+0x1828>
    4d70:	00002b06 	andeq	r2, r0, r6, lsl #22
    4d74:	a3060c00 	movwge	r0, #27648	; 0x6c00
    4d78:	0d000001 	stceq	0, cr0, [r0, #-4]
    4d7c:	00025006 	andeq	r5, r2, r6
    4d80:	39060e00 	stmdbcc	r6, {r9, sl, fp}
    4d84:	0f000000 	svceq	0x00000000
    4d88:	08010200 	stmdaeq	r1, {r9}
    4d8c:	00000096 	muleq	r0, r6, r0
    4d90:	2d070402 	cfstrscs	mvf0, [r7, #-8]
    4d94:	07000001 	streq	r0, [r0, -r1]
    4d98:	00001db2 			; <UNDEFINED> instruction: 0x00001db2
    4d9c:	e7011301 	str	r1, [r1, -r1, lsl #6]
    4da0:	03000000 	movweq	r0, #0
    4da4:	0000010b 	andeq	r0, r0, fp, lsl #2
    4da8:	001d9808 	andseq	r9, sp, r8, lsl #16
    4dac:	e7150100 	ldr	r0, [r5, -r0, lsl #2]
    4db0:	00000000 	andeq	r0, r0, r0
    4db4:	001d7b09 	andseq	r7, sp, r9, lsl #22
    4db8:	01330100 	teqeq	r3, r0, lsl #2
    4dbc:	00012403 	andeq	r2, r1, r3, lsl #8
    4dc0:	1d980a00 	vldrne	s0, [r8]
    4dc4:	33010000 	movwcc	r0, #4096	; 0x1000
    4dc8:	000000e7 	andeq	r0, r0, r7, ror #1
    4dcc:	10010b00 	andne	r0, r1, r0, lsl #22
    4dd0:	0100001d 	tsteq	r0, sp, lsl r0
    4dd4:	00410147 	subeq	r0, r1, r7, asr #2
    4dd8:	2a900000 	bcs	fe404de0 <__bss_end+0xfe401890>
    4ddc:	2ac00000 	bcs	ff004de4 <__bss_end+0xff001894>
    4de0:	7d020000 	stcvc	0, cr0, [r2, #-0]
    4de4:	00015000 	andeq	r5, r1, r0
    4de8:	14fc0c00 	ldrbtne	r0, [ip], #3072	; 0xc00
    4dec:	47010000 	strmi	r0, [r1, -r0]
    4df0:	00000053 	andeq	r0, r0, r3, asr r0
    4df4:	000019a9 	andeq	r1, r0, r9, lsr #19
    4df8:	9e010d00 	cdpls	13, 0, cr0, cr1, cr0, {0}
    4dfc:	0100001d 	tsteq	r0, sp, lsl r0
    4e00:	00410161 	subeq	r0, r1, r1, ror #2
    4e04:	2ac00000 	bcs	ff004e0c <__bss_end+0xff0018bc>
    4e08:	2b3c0000 	blcs	f04e10 <__bss_end+0xf018c0>
    4e0c:	19bc0000 	ldmibne	ip!, {}	; <UNPREDICTABLE>
    4e10:	01db0000 	bicseq	r0, fp, r0
    4e14:	d90c0000 	stmdble	ip, {}	; <UNPREDICTABLE>
    4e18:	0100001d 	tsteq	r0, sp, lsl r0
    4e1c:	00005361 	andeq	r5, r0, r1, ror #6
    4e20:	0019dc00 	andseq	sp, r9, r0, lsl #24
    4e24:	1daa0c00 	stcne	12, cr0, [sl]
    4e28:	61010000 	mrsvs	r0, (UNDEF: 1)
    4e2c:	00000053 	andeq	r0, r0, r3, asr r0
    4e30:	00001a05 	andeq	r1, r0, r5, lsl #20
    4e34:	001d910e 	andseq	r9, sp, lr, lsl #2
    4e38:	53640100 	cmnpl	r4, #0
    4e3c:	23000000 	movwcs	r0, #0
    4e40:	0f00001a 	svceq	0x0000001a
    4e44:	000000ee 	andeq	r0, r0, lr, ror #1
    4e48:	00002ac4 	andeq	r2, r0, r4, asr #21
    4e4c:	00002acc 	andeq	r2, r0, ip, asr #21
    4e50:	01c16701 	biceq	r6, r1, r1, lsl #14
    4e54:	c4100000 	ldrgt	r0, [r0], #-0
    4e58:	cc00002a 	stcgt	0, cr0, [r0], {42}	; 0x2a
    4e5c:	1100002a 	tstne	r0, sl, lsr #32
    4e60:	000000ff 	strdeq	r0, [r0], -pc	; <UNPREDICTABLE>
    4e64:	00001a79 	andeq	r1, r0, r9, ror sl
    4e68:	0b120000 	bleq	484e70 <__bss_end+0x481920>
    4e6c:	18000001 	stmdane	r0, {r0}
    4e70:	1c00002b 	stcne	0, cr0, [r0], {43}	; 0x2b
    4e74:	0100002b 	tsteq	r0, fp, lsr #32
    4e78:	0118136f 	tsteq	r8, pc, ror #6
    4e7c:	1a970000 	bne	fe5c4e84 <__bss_end+0xfe5c1934>
    4e80:	00000000 	andeq	r0, r0, r0
    4e84:	1d6d010b 	stfnee	f0, [sp, #-44]!	; 0xffffffd4
    4e88:	84010000 	strhi	r0, [r1], #-0
    4e8c:	00004101 	andeq	r4, r0, r1, lsl #2
    4e90:	002b3c00 	eoreq	r3, fp, r0, lsl #24
    4e94:	002b6c00 	eoreq	r6, fp, r0, lsl #24
    4e98:	007d0200 	rsbseq	r0, sp, r0, lsl #4
    4e9c:	00000222 	andeq	r0, r0, r2, lsr #4
    4ea0:	001dd90c 	andseq	sp, sp, ip, lsl #18
    4ea4:	53840100 	orrpl	r0, r4, #0
    4ea8:	aa000000 	bge	4eb0 <__bss_end+0x1960>
    4eac:	1400001a 	strne	r0, [r0], #-26
    4eb0:	0000010b 	andeq	r0, r0, fp, lsl #2
    4eb4:	00002b40 	andeq	r2, r0, r0, asr #22
    4eb8:	00000158 	andeq	r0, r0, r8, asr r1
    4ebc:	18158a01 	ldmdane	r5, {r0, r9, fp, pc}
    4ec0:	05000001 	streq	r0, [r0, #-1]
    4ec4:	00336003 	eorseq	r6, r3, r3
    4ec8:	0b000000 	bleq	4ed0 <__bss_end+0x1980>
    4ecc:	001d5301 	andseq	r5, sp, r1, lsl #6
    4ed0:	019a0100 	orrseq	r0, sl, r0, lsl #2
    4ed4:	00000041 	andeq	r0, r0, r1, asr #32
    4ed8:	00002b6c 	andeq	r2, r0, ip, ror #22
    4edc:	00002bd8 	ldrdeq	r2, [r0], -r8
    4ee0:	aa007d02 	bge	242f0 <__bss_end+0x20da0>
    4ee4:	0c000002 	stceq	0, cr0, [r0], {2}
    4ee8:	00001dd9 	ldrdeq	r1, [r0], -r9
    4eec:	00539a01 	subseq	r9, r3, r1, lsl #20
    4ef0:	1abd0000 	bne	fef44ef8 <__bss_end+0xfef419a8>
    4ef4:	aa0c0000 	bge	304efc <__bss_end+0x3019ac>
    4ef8:	0100001d 	tsteq	r0, sp, lsl r0
    4efc:	0000539a 	muleq	r0, sl, r3
    4f00:	001ae600 	andseq	lr, sl, r0, lsl #12
    4f04:	1d910e00 	ldcne	14, cr0, [r1]
    4f08:	9d010000 	stcls	0, cr0, [r1, #-0]
    4f0c:	00000053 	andeq	r0, r0, r3, asr r0
    4f10:	00001b04 	andeq	r1, r0, r4, lsl #22
    4f14:	0000ee0f 	andeq	lr, r0, pc, lsl #28
    4f18:	002b6c00 	eoreq	r6, fp, r0, lsl #24
    4f1c:	002b7400 	eoreq	r7, fp, r0, lsl #8
    4f20:	90a00100 	adcls	r0, r0, r0, lsl #2
    4f24:	10000002 	andne	r0, r0, r2
    4f28:	00002b6c 	andeq	r2, r0, ip, ror #22
    4f2c:	00002b74 	andeq	r2, r0, r4, ror fp
    4f30:	0000ff16 	andeq	pc, r0, r6, lsl pc	; <UNPREDICTABLE>
    4f34:	005c0100 	subseq	r0, ip, r0, lsl #2
    4f38:	010b1200 	mrseq	r1, R11_fiq
    4f3c:	2bc00000 	blcs	ff004f44 <__bss_end+0xff0019f4>
    4f40:	2bc40000 	blcs	ff104f48 <__bss_end+0xff1019f8>
    4f44:	a8010000 	stmdage	r1, {}	; <UNPREDICTABLE>
    4f48:	00011813 	andeq	r1, r1, r3, lsl r8
    4f4c:	001b5a00 	andseq	r5, fp, r0, lsl #20
    4f50:	0b000000 	bleq	4f58 <__bss_end+0x1a08>
    4f54:	001dc501 	andseq	ip, sp, r1, lsl #10
    4f58:	01bd0100 			; <UNDEFINED> instruction: 0x01bd0100
    4f5c:	00000041 	andeq	r0, r0, r1, asr #32
    4f60:	00002bd8 	ldrdeq	r2, [r0], -r8
    4f64:	00002c08 	andeq	r2, r0, r8, lsl #24
    4f68:	f1007d02 			; <UNDEFINED> instruction: 0xf1007d02
    4f6c:	0c000002 	stceq	0, cr0, [r0], {2}
    4f70:	00001dd9 	ldrdeq	r1, [r0], -r9
    4f74:	0053bd01 	subseq	fp, r3, r1, lsl #26
    4f78:	1b6d0000 	blne	1b44f80 <__bss_end+0x1b41a30>
    4f7c:	0b140000 	bleq	504f84 <__bss_end+0x501a34>
    4f80:	dc000001 	stcle	0, cr0, [r0], {1}
    4f84:	8000002b 	andhi	r0, r0, fp, lsr #32
    4f88:	01000001 	tsteq	r0, r1
    4f8c:	011815c3 	tsteq	r8, r3, asr #11
    4f90:	03050000 	movweq	r0, #20480	; 0x5000
    4f94:	00003360 	andeq	r3, r0, r0, ror #6
    4f98:	04170000 	ldreq	r0, [r7], #-0
    4f9c:	0100001d 	tsteq	r0, sp, lsl r0
    4fa0:	0000530d 	andeq	r5, r0, sp, lsl #6
    4fa4:	60030500 	andvs	r0, r3, r0, lsl #10
    4fa8:	00000033 	andeq	r0, r0, r3, lsr r0
    4fac:	0000107f 	andeq	r1, r0, pc, ror r0
    4fb0:	138e0002 	orrne	r0, lr, #2
    4fb4:	01040000 	mrseq	r0, (UNDEF: 4)
    4fb8:	00000054 	andeq	r0, r0, r4, asr r0
    4fbc:	001def01 	andseq	lr, sp, r1, lsl #30
    4fc0:	00014f00 	andeq	r4, r1, r0, lsl #30
    4fc4:	002c0800 	eoreq	r0, ip, r0, lsl #16
    4fc8:	002fac00 	eoreq	sl, pc, r0, lsl #24
    4fcc:	00158e00 	andseq	r8, r5, r0, lsl #28
    4fd0:	06010200 	streq	r0, [r1], -r0, lsl #4
    4fd4:	0000008f 	andeq	r0, r0, pc, lsl #1
    4fd8:	000b1b03 	andeq	r1, fp, r3, lsl #22
    4fdc:	370f0200 	strcc	r0, [pc, -r0, lsl #4]
    4fe0:	02000000 	andeq	r0, r0, #0
    4fe4:	008d0801 	addeq	r0, sp, r1, lsl #16
    4fe8:	02020000 	andeq	r0, r2, #0
    4fec:	0001d605 	andeq	sp, r1, r5, lsl #12
    4ff0:	07020200 	streq	r0, [r2, -r0, lsl #4]
    4ff4:	000000b1 	strheq	r0, [r0], -r1
    4ff8:	00103203 	andseq	r3, r0, r3, lsl #4
    4ffc:	57120200 	ldrpl	r0, [r2, -r0, lsl #4]
    5000:	04000000 	streq	r0, [r0], #-0
    5004:	6e690504 	cdpvs	5, 6, cr0, cr9, cr4, {0}
    5008:	36030074 			; <UNDEFINED> instruction: 0x36030074
    500c:	02000008 	andeq	r0, r0, #8
    5010:	00006913 	andeq	r6, r0, r3, lsl r9
    5014:	07040200 	streq	r0, [r4, -r0, lsl #4]
    5018:	00000132 	andeq	r0, r0, r2, lsr r1
    501c:	b1050802 	tstlt	r5, r2, lsl #16
    5020:	02000001 	andeq	r0, r0, #1
    5024:	01280708 	teqeq	r8, r8, lsl #14
    5028:	04050000 	streq	r0, [r5], #-0
    502c:	010f1a03 	tsteq	pc, r3, lsl #20
    5030:	a5060000 	strge	r0, [r6, #-0]
    5034:	03000005 	movweq	r0, #5
    5038:	00005e1c 	andeq	r5, r0, ip, lsl lr
    503c:	1e020400 	cfcpysne	mvf0, mvf2
    5040:	06002302 	streq	r2, [r0], -r2, lsl #6
    5044:	00000a72 	andeq	r0, r0, r2, ror sl
    5048:	005e1d03 	subseq	r1, lr, r3, lsl #26
    504c:	06040000 	streq	r0, [r4], -r0
    5050:	00230218 	eoreq	r0, r3, r8, lsl r2
    5054:	0005ad06 	andeq	sl, r5, r6, lsl #26
    5058:	5e1e0300 	cdppl	3, 1, cr0, cr14, cr0, {0}
    505c:	04000000 	streq	r0, [r0], #-0
    5060:	23021008 	movwcs	r1, #8200	; 0x2008
    5064:	05bd0600 	ldreq	r0, [sp, #1536]!	; 0x600
    5068:	1f030000 	svcne	0x00030000
    506c:	0000005e 	andeq	r0, r0, lr, asr r0
    5070:	020f0104 	andeq	r0, pc, #1
    5074:	90060023 	andls	r0, r6, r3, lsr #32
    5078:	0300000a 	movweq	r0, #10
    507c:	00005e20 	andeq	r5, r0, r0, lsr #28
    5080:	08070400 	stmdaeq	r7, {sl}
    5084:	06002302 	streq	r2, [r0], -r2, lsl #6
    5088:	0000077d 	andeq	r0, r0, sp, ror r7
    508c:	005e2103 	subseq	r2, lr, r3, lsl #2
    5090:	03040000 	movweq	r0, #16384	; 0x4000
    5094:	00230205 	eoreq	r0, r3, r5, lsl #4
    5098:	000a9a06 	andeq	r9, sl, r6, lsl #20
    509c:	5e220300 	cdppl	3, 2, cr0, cr2, cr0, {0}
    50a0:	04000000 	streq	r0, [r0], #-0
    50a4:	23020104 	movwcs	r0, #8452	; 0x2104
    50a8:	0a340600 	beq	d068b0 <__bss_end+0xd03360>
    50ac:	23030000 	movwcs	r0, #12288	; 0x3000
    50b0:	0000005e 	andeq	r0, r0, lr, asr r0
    50b4:	02000104 	andeq	r0, r0, #1
    50b8:	07000023 	streq	r0, [r0, -r3, lsr #32]
    50bc:	2e180304 	cdpcs	3, 1, cr0, cr8, cr4, {0}
    50c0:	08000001 	stmdaeq	r0, {r0}
    50c4:	000003dc 	ldrdeq	r0, [r0], -ip
    50c8:	005e1903 	subseq	r1, lr, r3, lsl #18
    50cc:	5f080000 	svcpl	0x00080000
    50d0:	03000008 	movweq	r0, #8
    50d4:	00007e25 	andeq	r7, r0, r5, lsr #28
    50d8:	3a030000 	bcc	c50e0 <__bss_end+0xc1b90>
    50dc:	0300000a 	movweq	r0, #10
    50e0:	00010f26 	andeq	r0, r1, r6, lsr #30
    50e4:	03040500 	movweq	r0, #17664	; 0x4500
    50e8:	0001ca3e 	andeq	ip, r1, lr, lsr sl
    50ec:	0cad0600 	stceq	6, cr0, [sp]
    50f0:	40030000 	andmi	r0, r3, r0
    50f4:	0000005e 	andeq	r0, r0, lr, asr r0
    50f8:	021e0204 	andseq	r0, lr, #1073741824	; 0x40000000
    50fc:	72060023 	andvc	r0, r6, #35	; 0x23
    5100:	0300000a 	movweq	r0, #10
    5104:	00005e41 	andeq	r5, r0, r1, asr #28
    5108:	140a0400 	strne	r0, [sl], #-1024	; 0x400
    510c:	06002302 	streq	r2, [r0], -r2, lsl #6
    5110:	000006b3 			; <UNDEFINED> instruction: 0x000006b3
    5114:	005e4203 	subseq	r4, lr, r3, lsl #4
    5118:	01040000 	mrseq	r0, (UNDEF: 4)
    511c:	00230213 	eoreq	r0, r3, r3, lsl r2
    5120:	000a7c06 	andeq	r7, sl, r6, lsl #24
    5124:	5e430300 	cdppl	3, 4, cr0, cr3, cr0, {0}
    5128:	04000000 	streq	r0, [r0], #-0
    512c:	23021003 	movwcs	r1, #8195	; 0x2003
    5130:	083c0600 	ldmdaeq	ip!, {r9, sl}
    5134:	44030000 	strmi	r0, [r3], #-0
    5138:	0000005e 	andeq	r0, r0, lr, asr r0
    513c:	020e0204 	andeq	r0, lr, #1073741824	; 0x40000000
    5140:	86060023 	strhi	r0, [r6], -r3, lsr #32
    5144:	0300000a 	movweq	r0, #10
    5148:	00005e45 	andeq	r5, r0, r5, asr #28
    514c:	040a0400 	streq	r0, [sl], #-1024	; 0x400
    5150:	06002302 	streq	r2, [r0], -r2, lsl #6
    5154:	00000623 	andeq	r0, r0, r3, lsr #12
    5158:	005e4603 	subseq	r4, lr, r3, lsl #12
    515c:	01040000 	mrseq	r0, (UNDEF: 4)
    5160:	00230203 	eoreq	r0, r3, r3, lsl #4
    5164:	000a9006 	andeq	r9, sl, r6
    5168:	5e470300 	cdppl	3, 4, cr0, cr7, cr0, {0}
    516c:	04000000 	streq	r0, [r0], #-0
    5170:	23020003 	movwcs	r0, #8195	; 0x2003
    5174:	04070000 	streq	r0, [r7], #-0
    5178:	01e93c03 	mvneq	r3, r3, lsl #24
    517c:	dc080000 	stcle	0, cr0, [r8], {-0}
    5180:	03000003 	movweq	r0, #3
    5184:	00005e3d 	andeq	r5, r0, sp, lsr lr
    5188:	085f0800 	ldmdaeq	pc, {fp}^	; <UNPREDICTABLE>
    518c:	48030000 	stmdami	r3, {}	; <UNPREDICTABLE>
    5190:	00000139 	andeq	r0, r0, r9, lsr r1
    5194:	04aa0300 	strteq	r0, [sl], #768	; 0x300
    5198:	49030000 	stmdbmi	r3, {}	; <UNPREDICTABLE>
    519c:	000001ca 	andeq	r0, r0, sl, asr #3
    51a0:	00036e09 	andeq	r6, r3, r9, lsl #28
    51a4:	4f030400 	svcmi	0x00030400
    51a8:	00000278 	andeq	r0, r0, r8, ror r2
    51ac:	000a7206 	andeq	r7, sl, r6, lsl #4
    51b0:	5e510300 	cdppl	3, 5, cr0, cr1, cr0, {0}
    51b4:	04000000 	streq	r0, [r0], #-0
    51b8:	23021c04 	movwcs	r1, #11268	; 0x2c04
    51bc:	08b30600 	ldmeq	r3!, {r9, sl}
    51c0:	52030000 	andpl	r0, r3, #0
    51c4:	0000005e 	andeq	r0, r0, lr, asr r0
    51c8:	021a0204 	andseq	r0, sl, #1073741824	; 0x40000000
    51cc:	1f060023 	svcne	0x00060023
    51d0:	03000008 	movweq	r0, #8
    51d4:	00005e53 	andeq	r5, r0, r3, asr lr
    51d8:	18020400 	stmdane	r2, {sl}
    51dc:	06002302 	streq	r2, [r0], -r2, lsl #6
    51e0:	000009d3 	ldrdeq	r0, [r0], -r3
    51e4:	005e5403 	subseq	r5, lr, r3, lsl #8
    51e8:	02040000 	andeq	r0, r4, #0
    51ec:	00230216 	eoreq	r0, r3, r6, lsl r2
    51f0:	000a7c06 	andeq	r7, sl, r6, lsl #24
    51f4:	5e550300 	cdppl	3, 5, cr0, cr5, cr0, {0}
    51f8:	04000000 	streq	r0, [r0], #-0
    51fc:	23021402 	movwcs	r1, #9218	; 0x2402
    5200:	09b50600 	ldmibeq	r5!, {r9, sl}
    5204:	56030000 	strpl	r0, [r3], -r0
    5208:	0000005e 	andeq	r0, r0, lr, asr r0
    520c:	02120204 	andseq	r0, r2, #1073741824	; 0x40000000
    5210:	86060023 	strhi	r0, [r6], -r3, lsr #32
    5214:	0300000a 	movweq	r0, #10
    5218:	00005e57 	andeq	r5, r0, r7, asr lr
    521c:	00120400 	andseq	r0, r2, r0, lsl #8
    5220:	00002302 	andeq	r2, r0, r2, lsl #6
    5224:	000c0703 	andeq	r0, ip, r3, lsl #14
    5228:	f4580300 			; <UNDEFINED> instruction: 0xf4580300
    522c:	05000001 	streq	r0, [r0, #-1]
    5230:	f25f0304 	vcgt.s16	d16, d15, d4
    5234:	06000002 	streq	r0, [r0], -r2
    5238:	0000063b 	andeq	r0, r0, fp, lsr r6
    523c:	005e6103 	subseq	r6, lr, r3, lsl #2
    5240:	05040000 	streq	r0, [r4, #-0]
    5244:	0023021b 	eoreq	r0, r3, fp, lsl r2
    5248:	000ca406 	andeq	sl, ip, r6, lsl #8
    524c:	5e620300 	cdppl	3, 6, cr0, cr2, cr0, {0}
    5250:	04000000 	streq	r0, [r0], #-0
    5254:	2302100b 	movwcs	r1, #8203	; 0x200b
    5258:	06400600 	strbeq	r0, [r0], -r0, lsl #12
    525c:	63030000 	movwvs	r0, #12288	; 0x3000
    5260:	0000005e 	andeq	r0, r0, lr, asr r0
    5264:	020e0204 	andeq	r0, lr, #1073741824	; 0x40000000
    5268:	7c060023 	stcvc	0, cr0, [r6], {35}	; 0x23
    526c:	0300000a 	movweq	r0, #10
    5270:	00005e64 	andeq	r5, r0, r4, ror #28
    5274:	08060400 	stmdaeq	r6, {sl}
    5278:	06002302 	streq	r2, [r0], -r2, lsl #6
    527c:	00000625 	andeq	r0, r0, r5, lsr #12
    5280:	005e6503 	subseq	r6, lr, r3, lsl #10
    5284:	02040000 	andeq	r0, r4, #0
    5288:	00230206 	eoreq	r0, r3, r6, lsl #4
    528c:	000a8606 	andeq	r8, sl, r6, lsl #12
    5290:	5e660300 	cdppl	3, 6, cr0, cr6, cr0, {0}
    5294:	04000000 	streq	r0, [r0], #-0
    5298:	23020006 	movwcs	r0, #8198	; 0x2006
    529c:	04070000 	streq	r0, [r7], #-0
    52a0:	03115d03 	tsteq	r1, #192	; 0xc0
    52a4:	dc080000 	stcle	0, cr0, [r8], {-0}
    52a8:	03000003 	movweq	r0, #3
    52ac:	00005e5e 	andeq	r5, r0, lr, asr lr
    52b0:	085f0800 	ldmdaeq	pc, {fp}^	; <UNPREDICTABLE>
    52b4:	67030000 	strvs	r0, [r3, -r0]
    52b8:	00000283 	andeq	r0, r0, r3, lsl #5
    52bc:	08ed0300 	stmiaeq	sp!, {r8, r9}^
    52c0:	68030000 	stmdavs	r3, {}	; <UNPREDICTABLE>
    52c4:	000002f2 	strdeq	r0, [r0], -r2
    52c8:	0007b709 	andeq	fp, r7, r9, lsl #14
    52cc:	6a030400 	bvs	c62d4 <__bss_end+0xc2d84>
    52d0:	0000034b 	andeq	r0, r0, fp, asr #6
    52d4:	000c8506 	andeq	r8, ip, r6, lsl #10
    52d8:	5e6c0300 	cdppl	3, 6, cr0, cr12, cr0, {0}
    52dc:	04000000 	streq	r0, [r0], #-0
    52e0:	23021010 	movwcs	r1, #8208	; 0x2010
    52e4:	0ca40600 	stceq	6, cr0, [r4]
    52e8:	6d030000 	stcvs	0, cr0, [r3, #-0]
    52ec:	0000005e 	andeq	r0, r0, lr, asr r0
    52f0:	02001004 	andeq	r1, r0, #4
    52f4:	03000023 	movweq	r0, #35	; 0x23
    52f8:	00000b4c 	andeq	r0, r0, ip, asr #22
    52fc:	031c6e03 	tsteq	ip, #48	; 0x30
    5300:	270a0000 	strcs	r0, [sl, -r0]
    5304:	dc00000d 	stcle	0, cr0, [r0], {13}
    5308:	2c700302 	ldclcs	3, cr0, [r0], #-8
    530c:	0b00000b 	bleq	5340 <__bss_end+0x1df0>
    5310:	00000786 	andeq	r0, r0, r6, lsl #15
    5314:	0b2c7203 	bleq	b21b28 <__bss_end+0xb1e5d8>
    5318:	23020000 	movwcs	r0, #8192	; 0x2000
    531c:	079a0b00 	ldreq	r0, [sl, r0, lsl #22]
    5320:	73030000 	movwvc	r0, #12288	; 0x3000
    5324:	00000b31 	andeq	r0, r0, r1, lsr fp
    5328:	0b042302 	bleq	10df38 <__bss_end+0x10a9e8>
    532c:	00000d1f 	andeq	r0, r0, pc, lsl sp
    5330:	0b317403 	bleq	c62344 <__bss_end+0xc5edf4>
    5334:	23020000 	movwcs	r0, #8192	; 0x2000
    5338:	0a7c0b08 	beq	1f07f60 <__bss_end+0x1f04a10>
    533c:	75030000 	strvc	r0, [r3, #-0]
    5340:	00000b31 	andeq	r0, r0, r1, lsr fp
    5344:	0b0c2302 	bleq	30df54 <__bss_end+0x30aa04>
    5348:	000008db 	ldrdeq	r0, [r0], -fp
    534c:	0b317603 	bleq	c62b60 <__bss_end+0xc5f610>
    5350:	23020000 	movwcs	r0, #8192	; 0x2000
    5354:	0a860b10 	beq	fe187f9c <__bss_end+0xfe184a4c>
    5358:	77030000 	strvc	r0, [r3, -r0]
    535c:	00000b31 	andeq	r0, r0, r1, lsr fp
    5360:	0b142302 	bleq	50df70 <__bss_end+0x50aa20>
    5364:	0000047c 	andeq	r0, r0, ip, ror r4
    5368:	0b317803 	bleq	c6337c <__bss_end+0xc5fe2c>
    536c:	23020000 	movwcs	r0, #8192	; 0x2000
    5370:	0a900b18 	beq	fe407fd8 <__bss_end+0xfe404a88>
    5374:	79030000 	stmdbvc	r3, {}	; <UNPREDICTABLE>
    5378:	00000b31 	andeq	r0, r0, r1, lsr fp
    537c:	0b1c2302 	bleq	70df8c <__bss_end+0x70aa3c>
    5380:	00000a22 	andeq	r0, r0, r2, lsr #20
    5384:	0b317a03 	bleq	c63b98 <__bss_end+0xc60648>
    5388:	23020000 	movwcs	r0, #8192	; 0x2000
    538c:	0a9a0b20 	beq	fe688014 <__bss_end+0xfe684ac4>
    5390:	7b030000 	blvc	c5398 <__bss_end+0xc1e48>
    5394:	00000b31 	andeq	r0, r0, r1, lsr fp
    5398:	0b242302 	bleq	90dfa8 <__bss_end+0x90aa58>
    539c:	00000434 	andeq	r0, r0, r4, lsr r4
    53a0:	0b317c03 	bleq	c643b4 <__bss_end+0xc60e64>
    53a4:	23020000 	movwcs	r0, #8192	; 0x2000
    53a8:	0aa40b28 	beq	fe908050 <__bss_end+0xfe904b00>
    53ac:	7d030000 	stcvc	0, cr0, [r3, #-0]
    53b0:	00000b31 	andeq	r0, r0, r1, lsr fp
    53b4:	0b2c2302 	bleq	b0dfc4 <__bss_end+0xb0aa74>
    53b8:	00000a0a 	andeq	r0, r0, sl, lsl #20
    53bc:	0b317e03 	bleq	c64bd0 <__bss_end+0xc61680>
    53c0:	23020000 	movwcs	r0, #8192	; 0x2000
    53c4:	0aae0b30 	beq	feb8808c <__bss_end+0xfeb84b3c>
    53c8:	7f030000 	svcvc	0x00030000
    53cc:	00000b31 	andeq	r0, r0, r1, lsr fp
    53d0:	0b342302 	bleq	d0dfe0 <__bss_end+0xd0aa90>
    53d4:	000007af 	andeq	r0, r0, pc, lsr #15
    53d8:	0b318003 	bleq	c653ec <__bss_end+0xc61e9c>
    53dc:	23020000 	movwcs	r0, #8192	; 0x2000
    53e0:	0ab80b38 	beq	fee080c8 <__bss_end+0xfee04b78>
    53e4:	81030000 	mrshi	r0, (UNDEF: 3)
    53e8:	00000b31 	andeq	r0, r0, r1, lsr fp
    53ec:	0b3c2302 	bleq	f0dffc <__bss_end+0xf0aaac>
    53f0:	00000b3a 	andeq	r0, r0, sl, lsr fp
    53f4:	0b318203 	bleq	c65c08 <__bss_end+0xc626b8>
    53f8:	23020000 	movwcs	r0, #8192	; 0x2000
    53fc:	0d9a0b40 	vldreq	d0, [sl, #256]	; 0x100
    5400:	83030000 	movwhi	r0, #12288	; 0x3000
    5404:	00000b31 	andeq	r0, r0, r1, lsr fp
    5408:	0b442302 	bleq	110e018 <__bss_end+0x110aac8>
    540c:	00000473 	andeq	r0, r0, r3, ror r4
    5410:	0b318403 	bleq	c66424 <__bss_end+0xc62ed4>
    5414:	23020000 	movwcs	r0, #8192	; 0x2000
    5418:	0be30b48 	bleq	ff8c8140 <__bss_end+0xff8c4bf0>
    541c:	85030000 	strhi	r0, [r3, #-0]
    5420:	00000b31 	andeq	r0, r0, r1, lsr fp
    5424:	0b4c2302 	bleq	130e034 <__bss_end+0x130aae4>
    5428:	000008e3 	andeq	r0, r0, r3, ror #17
    542c:	0b368603 	bleq	da6c40 <__bss_end+0xda36f0>
    5430:	23020000 	movwcs	r0, #8192	; 0x2000
    5434:	08b30b50 	ldmeq	r3!, {r4, r6, r8, r9, fp}
    5438:	87030000 	strhi	r0, [r3, -r0]
    543c:	00000b3b 	andeq	r0, r0, fp, lsr fp
    5440:	0b542302 	bleq	150e050 <__bss_end+0x150ab00>
    5444:	000005b5 			; <UNDEFINED> instruction: 0x000005b5
    5448:	0b408803 	bleq	102745c <__bss_end+0x1023f0c>
    544c:	23020000 	movwcs	r0, #8192	; 0x2000
    5450:	0a500b58 	beq	14081b8 <__bss_end+0x1404c68>
    5454:	89030000 	stmdbhi	r3, {}	; <UNPREDICTABLE>
    5458:	00000b31 	andeq	r0, r0, r1, lsr fp
    545c:	0b5c2302 	bleq	170e06c <__bss_end+0x170ab1c>
    5460:	00000b31 	andeq	r0, r0, r1, lsr fp
    5464:	0b318a03 	bleq	c67c78 <__bss_end+0xc64728>
    5468:	23020000 	movwcs	r0, #8192	; 0x2000
    546c:	07400b60 	strbeq	r0, [r0, -r0, ror #22]
    5470:	8b030000 	blhi	c5478 <__bss_end+0xc1f28>
    5474:	00000b31 	andeq	r0, r0, r1, lsr fp
    5478:	0b642302 	bleq	190e088 <__bss_end+0x190ab38>
    547c:	00000cb7 			; <UNDEFINED> instruction: 0x00000cb7
    5480:	0b318c03 	bleq	c68494 <__bss_end+0xc64f44>
    5484:	23020000 	movwcs	r0, #8192	; 0x2000
    5488:	09620b68 	stmdbeq	r2!, {r3, r5, r6, r8, r9, fp}^
    548c:	8d030000 	stchi	0, cr0, [r3, #-0]
    5490:	00000b31 	andeq	r0, r0, r1, lsr fp
    5494:	0b6c2302 	bleq	1b0e0a4 <__bss_end+0x1b0ab54>
    5498:	00000ac2 	andeq	r0, r0, r2, asr #21
    549c:	0b558e03 	bleq	1568cb0 <__bss_end+0x1565760>
    54a0:	23020000 	movwcs	r0, #8192	; 0x2000
    54a4:	0d900b70 	vldreq	d0, [r0, #448]	; 0x1c0
    54a8:	8f030000 	svchi	0x00030000
    54ac:	00000b31 	andeq	r0, r0, r1, lsr fp
    54b0:	0b782302 	bleq	1e0e0c0 <__bss_end+0x1e0ab70>
    54b4:	00000420 	andeq	r0, r0, r0, lsr #8
    54b8:	0b319003 	bleq	c694cc <__bss_end+0xc65f7c>
    54bc:	23020000 	movwcs	r0, #8192	; 0x2000
    54c0:	0d5d0b7c 	vldreq	d16, [sp, #-496]	; 0xfffffe10
    54c4:	91030000 	mrsls	r0, (UNDEF: 3)
    54c8:	00000b31 	andeq	r0, r0, r1, lsr fp
    54cc:	01802303 	orreq	r2, r0, r3, lsl #6
    54d0:	000cc00b 	andeq	ip, ip, fp
    54d4:	31920300 	orrscc	r0, r2, r0, lsl #6
    54d8:	0300000b 	movweq	r0, #11
    54dc:	0c018423 	cfstrseq	mvf8, [r1], {35}	; 0x23
    54e0:	00306453 	eorseq	r6, r0, r3, asr r4
    54e4:	0b319303 	bleq	c6a0f8 <__bss_end+0xc66ba8>
    54e8:	23030000 	movwcs	r0, #12288	; 0x3000
    54ec:	530c0188 	movwpl	r0, #49544	; 0xc188
    54f0:	03003164 	movweq	r3, #356	; 0x164
    54f4:	000b3194 	muleq	fp, r4, r1
    54f8:	8c230300 	stchi	3, cr0, [r3], #-0
    54fc:	64530c01 	ldrbvs	r0, [r3], #-3073	; 0xc01
    5500:	95030032 	strls	r0, [r3, #-50]	; 0x32
    5504:	00000b31 	andeq	r0, r0, r1, lsr fp
    5508:	01902303 	orrseq	r2, r0, r3, lsl #6
    550c:	000ccb0b 	andeq	ip, ip, fp, lsl #22
    5510:	5a960300 	bpl	fe586118 <__bss_end+0xfe582bc8>
    5514:	0300000b 	movweq	r0, #11
    5518:	0c019423 	cfstrseq	mvf9, [r1], {35}	; 0x23
    551c:	03007353 	movweq	r7, #851	; 0x353
    5520:	000b3197 	muleq	fp, r7, r1
    5524:	9c230300 	stcls	3, cr0, [r3], #-0
    5528:	0b270b01 	bleq	9c8134 <__bss_end+0x9c4be4>
    552c:	98030000 	stmdals	r3, {}	; <UNPREDICTABLE>
    5530:	00000b31 	andeq	r0, r0, r1, lsr fp
    5534:	01a02303 	lsleq	r2, r3, #6
    5538:	000b2c0b 	andeq	r2, fp, fp, lsl #24
    553c:	31990300 	orrscc	r0, r9, r0, lsl #6
    5540:	0300000b 	movweq	r0, #11
    5544:	0b01a423 	bleq	6e5d8 <__bss_end+0x6b088>
    5548:	00000cd6 	ldrdeq	r0, [r0], -r6
    554c:	0b5f9a03 	bleq	17ebd60 <__bss_end+0x17e8810>
    5550:	23030000 	movwcs	r0, #12288	; 0x3000
    5554:	640b01a8 	strvs	r0, [fp], #-424	; 0x1a8
    5558:	03000004 	movweq	r0, #4
    555c:	000b319b 	muleq	fp, fp, r1
    5560:	b0230300 	eorlt	r0, r3, r0, lsl #6
    5564:	04690b01 	strbteq	r0, [r9], #-2817	; 0xb01
    5568:	9c030000 	stcls	0, cr0, [r3], {-0}
    556c:	00000b31 	andeq	r0, r0, r1, lsr fp
    5570:	01b42303 			; <UNDEFINED> instruction: 0x01b42303
    5574:	00046e0b 	andeq	r6, r4, fp, lsl #28
    5578:	319d0300 	orrscc	r0, sp, r0, lsl #6
    557c:	0300000b 	movweq	r0, #11
    5580:	0b01b823 	bleq	73614 <__bss_end+0x700c4>
    5584:	00000527 	andeq	r0, r0, r7, lsr #10
    5588:	0b319e03 	bleq	c6cd9c <__bss_end+0xc6984c>
    558c:	23030000 	movwcs	r0, #12288	; 0x3000
    5590:	590b01bc 	stmdbpl	fp, {r2, r3, r4, r5, r7, r8}
    5594:	03000009 	movweq	r0, #9
    5598:	000b319f 	muleq	fp, pc, r1	; <UNPREDICTABLE>
    559c:	c0230300 	eorgt	r0, r3, r0, lsl #6
    55a0:	08910b01 	ldmeq	r1, {r0, r8, r9, fp}
    55a4:	a0030000 	andge	r0, r3, r0
    55a8:	00000b64 	andeq	r0, r0, r4, ror #22
    55ac:	01c42303 	biceq	r2, r4, r3, lsl #6
    55b0:	6273550c 	rsbsvs	r5, r3, #50331648	; 0x3000000
    55b4:	31a10300 			; <UNDEFINED> instruction: 0x31a10300
    55b8:	0300000b 	movweq	r0, #11
    55bc:	0b01cc23 	bleq	78650 <__bss_end+0x75100>
    55c0:	00000c54 	andeq	r0, r0, r4, asr ip
    55c4:	0b31a203 	bleq	c6ddd8 <__bss_end+0xc6a888>
    55c8:	23030000 	movwcs	r0, #12288	; 0x3000
    55cc:	ce0b01d0 	fltgt<illegal precision>m	f3, r0
    55d0:	03000007 	movweq	r0, #7
    55d4:	000b79a3 	andeq	r7, fp, r3, lsr #19
    55d8:	d4230300 	strtle	r0, [r3], #-768	; 0x300
    55dc:	0d130b01 	vldreq	d0, [r3, #-4]
    55e0:	a4030000 	strge	r0, [r3], #-0
    55e4:	00000b31 	andeq	r0, r0, r1, lsr fp
    55e8:	01f02303 	mvnseq	r2, r3, lsl #6
    55ec:	000bff0b 	andeq	pc, fp, fp, lsl #30
    55f0:	31a50300 			; <UNDEFINED> instruction: 0x31a50300
    55f4:	0300000b 	movweq	r0, #11
    55f8:	0b01f423 	bleq	8268c <__bss_end+0x7f13c>
    55fc:	00000c8e 	andeq	r0, r0, lr, lsl #25
    5600:	0b31a603 	bleq	c6ee14 <__bss_end+0xc6b8c4>
    5604:	23030000 	movwcs	r0, #12288	; 0x3000
    5608:	db0b01f8 	blle	2c5df0 <__bss_end+0x2c28a0>
    560c:	03000009 	movweq	r0, #9
    5610:	000b31a7 	andeq	r3, fp, r7, lsr #3
    5614:	fc230300 	stc2	3, cr0, [r3], #-0
    5618:	09ac0b01 	stmibeq	ip!, {r0, r8, r9, fp}
    561c:	a8030000 	stmdage	r3, {}	; <UNPREDICTABLE>
    5620:	00000b31 	andeq	r0, r0, r1, lsr fp
    5624:	02802303 	addeq	r2, r0, #201326592	; 0xc000000
    5628:	00078e0b 	andeq	r8, r7, fp, lsl #28
    562c:	31a90300 			; <UNDEFINED> instruction: 0x31a90300
    5630:	0300000b 	movweq	r0, #11
    5634:	0b028423 	bleq	a66c8 <__bss_end+0xa3178>
    5638:	000003b8 			; <UNDEFINED> instruction: 0x000003b8
    563c:	0b31aa03 	bleq	c6fe50 <__bss_end+0xc6c900>
    5640:	23030000 	movwcs	r0, #12288	; 0x3000
    5644:	0e0b0288 	cdpeq	2, 0, cr0, cr11, cr8, {4}
    5648:	03000005 	movweq	r0, #5
    564c:	000b31ab 	andeq	r3, fp, fp, lsr #3
    5650:	8c230300 	stchi	3, cr0, [r3], #-0
    5654:	03c40b02 	biceq	r0, r4, #2048	; 0x800
    5658:	ac030000 	stcge	0, cr0, [r3], {-0}
    565c:	00000b31 	andeq	r0, r0, r1, lsr fp
    5660:	02902303 	addseq	r2, r0, #201326592	; 0xc000000
    5664:	0003d00b 	andeq	sp, r3, fp
    5668:	31ad0300 			; <UNDEFINED> instruction: 0x31ad0300
    566c:	0300000b 	movweq	r0, #11
    5670:	0b029423 	bleq	aa704 <__bss_end+0xa71b4>
    5674:	00000410 	andeq	r0, r0, r0, lsl r4
    5678:	0b31ae03 	bleq	c70e8c <__bss_end+0xc6d93c>
    567c:	23030000 	movwcs	r0, #12288	; 0x3000
    5680:	180b0298 	stmdane	fp, {r3, r4, r7, r9}
    5684:	03000004 	movweq	r0, #4
    5688:	000b31af 	andeq	r3, fp, pc, lsr #3
    568c:	9c230300 	stcls	3, cr0, [r3], #-0
    5690:	07df0b02 	ldrbeq	r0, [pc, r2, lsl #22]
    5694:	b0030000 	andlt	r0, r3, r0
    5698:	00000b8e 	andeq	r0, r0, lr, lsl #23
    569c:	02a02303 	adceq	r2, r0, #201326592	; 0xc000000
    56a0:	000a580b 	andeq	r5, sl, fp, lsl #16
    56a4:	31b10300 			; <UNDEFINED> instruction: 0x31b10300
    56a8:	0300000b 	movweq	r0, #11
    56ac:	0b02b023 	bleq	b1740 <__bss_end+0xae1f0>
    56b0:	00000af1 	strdeq	r0, [r0], -r1
    56b4:	0b31b203 	bleq	c71ec8 <__bss_end+0xc6e978>
    56b8:	23030000 	movwcs	r0, #12288	; 0x3000
    56bc:	3c0b02b4 	sfmcc	f0, 4, [fp], {180}	; 0xb4
    56c0:	03000004 	movweq	r0, #4
    56c4:	000b31b3 			; <UNDEFINED> instruction: 0x000b31b3
    56c8:	b8230300 	stmdalt	r3!, {r8, r9}
    56cc:	65560c02 	ldrbvs	r0, [r6, #-3074]	; 0xc02
    56d0:	31b40300 			; <UNDEFINED> instruction: 0x31b40300
    56d4:	0300000b 	movweq	r0, #11
    56d8:	0b02bc23 	bleq	b476c <__bss_end+0xb121c>
    56dc:	0000099f 	muleq	r0, pc, r9	; <UNPREDICTABLE>
    56e0:	0b31b503 	bleq	c72af4 <__bss_end+0xc6f5a4>
    56e4:	23030000 	movwcs	r0, #12288	; 0x3000
    56e8:	410c02c0 	smlabtmi	ip, r0, r2, r0
    56ec:	03007376 	movweq	r7, #886	; 0x376
    56f0:	000b31b6 			; <UNDEFINED> instruction: 0x000b31b6
    56f4:	c4230300 	strtgt	r0, [r3], #-768	; 0x300
    56f8:	04480b02 	strbeq	r0, [r8], #-2818	; 0xb02
    56fc:	b7030000 	strlt	r0, [r3, -r0]
    5700:	00000b31 	andeq	r0, r0, r1, lsr fp
    5704:	02c82303 	sbceq	r2, r8, #201326592	; 0xc000000
    5708:	0007ea0b 	andeq	lr, r7, fp, lsl #20
    570c:	31b80300 			; <UNDEFINED> instruction: 0x31b80300
    5710:	0300000b 	movweq	r0, #11
    5714:	0b02cc23 	bleq	b87a8 <__bss_end+0xb5258>
    5718:	0000089c 	muleq	r0, ip, r8
    571c:	0b31b903 	bleq	c73b30 <__bss_end+0xc705e0>
    5720:	23030000 	movwcs	r0, #12288	; 0x3000
    5724:	830b02d0 	movwhi	r0, #45776	; 0xb2d0
    5728:	0300000b 	movweq	r0, #11
    572c:	000b31ba 			; <UNDEFINED> instruction: 0x000b31ba
    5730:	d4230300 	strtle	r0, [r3], #-768	; 0x300
    5734:	04ec0b02 	strbteq	r0, [ip], #2818	; 0xb02
    5738:	bb030000 	bllt	c5740 <__bss_end+0xc21f0>
    573c:	00000b31 	andeq	r0, r0, r1, lsr fp
    5740:	02d82303 	sbcseq	r2, r8, #201326592	; 0xc000000
    5744:	0005360b 	andeq	r3, r5, fp, lsl #12
    5748:	31bc0300 			; <UNDEFINED> instruction: 0x31bc0300
    574c:	0300000b 	movweq	r0, #11
    5750:	0b02dc23 	bleq	bc7e4 <__bss_end+0xb9294>
    5754:	000004f8 	strdeq	r0, [r0], -r8
    5758:	0b31bd03 	bleq	c74b6c <__bss_end+0xc7161c>
    575c:	23030000 	movwcs	r0, #12288	; 0x3000
    5760:	f50b02e0 			; <UNDEFINED> instruction: 0xf50b02e0
    5764:	03000007 	movweq	r0, #7
    5768:	000b31be 			; <UNDEFINED> instruction: 0x000b31be
    576c:	e4230300 	strt	r0, [r3], #-768	; 0x300
    5770:	0ad10b02 	beq	ff448380 <__bss_end+0xff444e30>
    5774:	bf030000 	svclt	0x00030000
    5778:	00000b31 	andeq	r0, r0, r1, lsr fp
    577c:	02e82303 	rsceq	r2, r8, #201326592	; 0xc000000
    5780:	000add0b 	andeq	sp, sl, fp, lsl #26
    5784:	31c00300 	biccc	r0, r0, r0, lsl #6
    5788:	0300000b 	movweq	r0, #11
    578c:	0b02ec23 	bleq	c0820 <__bss_end+0xbd2d0>
    5790:	00000800 	andeq	r0, r0, r0, lsl #16
    5794:	0b93c103 	bleq	fe4f5ba8 <__bss_end+0xfe4f2658>
    5798:	23030000 	movwcs	r0, #12288	; 0x3000
    579c:	e10b02f0 	strd	r0, [fp, -r0]
    57a0:	0300000c 	movweq	r0, #12
    57a4:	000b31c2 	andeq	r3, fp, r2, asr #3
    57a8:	80230300 	eorhi	r0, r3, r0, lsl #6
    57ac:	06760b03 	ldrbteq	r0, [r6], -r3, lsl #22
    57b0:	c3030000 	movwgt	r0, #12288	; 0x3000
    57b4:	00000b31 	andeq	r0, r0, r1, lsr fp
    57b8:	03842303 	orreq	r2, r4, #201326592	; 0xc000000
    57bc:	0006820b 	andeq	r8, r6, fp, lsl #4
    57c0:	31c40300 	biccc	r0, r4, r0, lsl #6
    57c4:	0300000b 	movweq	r0, #11
    57c8:	0b038823 	bleq	e785c <__bss_end+0xe430c>
    57cc:	0000068e 	andeq	r0, r0, lr, lsl #13
    57d0:	0b31c503 	bleq	c76be4 <__bss_end+0xc73694>
    57d4:	23030000 	movwcs	r0, #12288	; 0x3000
    57d8:	0b0b038c 	bleq	2c6610 <__bss_end+0x2c30c0>
    57dc:	03000008 	movweq	r0, #8
    57e0:	000b98c6 	andeq	r9, fp, r6, asr #17
    57e4:	90230300 	eorls	r0, r3, r0, lsl #6
    57e8:	06ab0b03 	strteq	r0, [fp], r3, lsl #22
    57ec:	c7030000 	strgt	r0, [r3, -r0]
    57f0:	00000b31 	andeq	r0, r0, r1, lsr fp
    57f4:	03a02303 	moveq	r2, #201326592	; 0xc000000
    57f8:	00062c0b 	andeq	r2, r6, fp, lsl #24
    57fc:	31c80300 	biccc	r0, r8, r0, lsl #6
    5800:	0300000b 	movweq	r0, #11
    5804:	0b03a423 	bleq	ee898 <__bss_end+0xeb348>
    5808:	00000909 	andeq	r0, r0, r9, lsl #18
    580c:	0b31c903 	bleq	c77c20 <__bss_end+0xc746d0>
    5810:	23030000 	movwcs	r0, #12288	; 0x3000
    5814:	eb0b03a8 	bl	2c66bc <__bss_end+0x2c316c>
    5818:	03000006 	movweq	r0, #6
    581c:	000b31ca 	andeq	r3, fp, sl, asr #3
    5820:	ac230300 	stcge	3, cr0, [r3], #-0
    5824:	06f70b03 	ldrbteq	r0, [r7], r3, lsl #22
    5828:	cb030000 	blgt	c5830 <__bss_end+0xc22e0>
    582c:	00000b31 	andeq	r0, r0, r1, lsr fp
    5830:	03b02303 	movseq	r2, #201326592	; 0xc000000
    5834:	0008bb0b 	andeq	fp, r8, fp, lsl #22
    5838:	adcc0300 	stclge	3, cr0, [ip]
    583c:	0300000b 	movweq	r0, #11
    5840:	0b03b423 	bleq	f28d4 <__bss_end+0xef384>
    5844:	000003f0 	strdeq	r0, [r0], -r0	; <UNPREDICTABLE>
    5848:	0b31cd03 	bleq	c78c5c <__bss_end+0xc7570c>
    584c:	23030000 	movwcs	r0, #12288	; 0x3000
    5850:	a30b03c0 	movwge	r0, #46016	; 0xb3c0
    5854:	03000007 	movweq	r0, #7
    5858:	000bc2ce 	andeq	ip, fp, lr, asr #5
    585c:	c4230300 	strtgt	r0, [r3], #-768	; 0x300
    5860:	069a0b03 	ldreq	r0, [sl], r3, lsl #22
    5864:	cf030000 	svcgt	0x00030000
    5868:	00000bc7 	andeq	r0, r0, r7, asr #23
    586c:	04802303 	streq	r2, [r0], #771	; 0x303
    5870:	00097f0b 	andeq	r7, r9, fp, lsl #30
    5874:	31d00300 	bicscc	r0, r0, r0, lsl #6
    5878:	0300000b 	movweq	r0, #11
    587c:	0b048423 	bleq	126910 <__bss_end+0x1233c0>
    5880:	00000c98 	muleq	r0, r8, ip
    5884:	0b31d103 	bleq	c79c98 <__bss_end+0xc76748>
    5888:	23030000 	movwcs	r0, #12288	; 0x3000
    588c:	600b0488 	andvs	r0, fp, r8, lsl #9
    5890:	0300000c 	movweq	r0, #12
    5894:	000b31d2 	ldrdeq	r3, [fp], -r2
    5898:	8c230300 	stchi	3, cr0, [r3], #-0
    589c:	05c50b04 	strbeq	r0, [r5, #2820]	; 0xb04
    58a0:	d3030000 	movwle	r0, #12288	; 0x3000
    58a4:	00000bcc 	andeq	r0, r0, ip, asr #23
    58a8:	04902303 	ldreq	r2, [r0], #771	; 0x303
    58ac:	0008560b 	andeq	r5, r8, fp, lsl #12
    58b0:	e1d50300 	bics	r0, r5, r0, lsl #6
    58b4:	0300000b 	movweq	r0, #11
    58b8:	0b04a023 	bleq	12d94c <__bss_end+0x12a3fc>
    58bc:	000004c8 	andeq	r0, r0, r8, asr #9
    58c0:	0b31d603 	bleq	c7b0d4 <__bss_end+0xc77b84>
    58c4:	23030000 	movwcs	r0, #12288	; 0x3000
    58c8:	e20b04a4 	and	r0, fp, #-1543503872	; 0xa4000000
    58cc:	03000003 	movweq	r0, #3
    58d0:	000b31d7 	ldrdeq	r3, [fp], -r7
    58d4:	a8230300 	stmdage	r3!, {r8, r9}
    58d8:	087a0b04 	ldmdaeq	sl!, {r2, r8, r9, fp}^
    58dc:	d8030000 	stmdale	r3, {}	; <UNPREDICTABLE>
    58e0:	00000b31 	andeq	r0, r0, r1, lsr fp
    58e4:	04ac2303 	strteq	r2, [ip], #771	; 0x303
    58e8:	0006d30b 	andeq	sp, r6, fp, lsl #6
    58ec:	31d90300 	bicscc	r0, r9, r0, lsl #6
    58f0:	0300000b 	movweq	r0, #11
    58f4:	0b04b023 	bleq	131988 <__bss_end+0x12e438>
    58f8:	00000b65 	andeq	r0, r0, r5, ror #22
    58fc:	0b31da03 	bleq	c7c110 <__bss_end+0xc78bc0>
    5900:	23030000 	movwcs	r0, #12288	; 0x3000
    5904:	4f0b04b4 	svcmi	0x000b04b4
    5908:	0300000d 	movweq	r0, #13
    590c:	000b31db 	ldrdeq	r3, [fp], -fp
    5910:	b8230300 	stmdalt	r3!, {r8, r9}
    5914:	06070b04 	streq	r0, [r7], -r4, lsl #22
    5918:	dc030000 	stcle	0, cr0, [r3], {-0}
    591c:	00000b31 	andeq	r0, r0, r1, lsr fp
    5920:	04bc2303 	ldrteq	r2, [ip], #771	; 0x303
    5924:	0006de0b 	andeq	sp, r6, fp, lsl #28
    5928:	31dd0300 	bicscc	r0, sp, r0, lsl #6
    592c:	0300000b 	movweq	r0, #11
    5930:	0b04c023 	bleq	1359c4 <__bss_end+0x132474>
    5934:	0000051b 	andeq	r0, r0, fp, lsl r5
    5938:	0b31de03 	bleq	c7d14c <__bss_end+0xc79bfc>
    593c:	23030000 	movwcs	r0, #12288	; 0x3000
    5940:	c90b04c4 	stmdbgt	fp, {r2, r6, r7, sl}
    5944:	03000009 	movweq	r0, #9
    5948:	000b31df 	ldrdeq	r3, [fp], -pc	; <UNPREDICTABLE>
    594c:	c8230300 	stmdagt	r3!, {r8, r9}
    5950:	09fc0b04 	ldmibeq	ip!, {r2, r8, r9, fp}^
    5954:	e0030000 	and	r0, r3, r0
    5958:	00000b31 	andeq	r0, r0, r1, lsr fp
    595c:	04cc2303 	strbeq	r2, [ip], #771	; 0x303
    5960:	00052e0b 	andeq	r2, r5, fp, lsl #28
    5964:	31e20300 	mvncc	r0, r0, lsl #6
    5968:	0300000b 	movweq	r0, #11
    596c:	0b04d023 	bleq	139a00 <__bss_end+0x1364b0>
    5970:	000009c0 	andeq	r0, r0, r0, asr #19
    5974:	0b31e303 	bleq	c7e588 <__bss_end+0xc7b038>
    5978:	23030000 	movwcs	r0, #12288	; 0x3000
    597c:	d10b04d4 	ldrdle	r0, [fp, -r4]
    5980:	03000005 	movweq	r0, #5
    5984:	000be6e5 	andeq	lr, fp, r5, ror #13
    5988:	d8230300 	stmdale	r3!, {r8, r9}
    598c:	0a150b04 	beq	5485a4 <__bss_end+0x545054>
    5990:	e6030000 	str	r0, [r3], -r0
    5994:	00000b31 	andeq	r0, r0, r1, lsr fp
    5998:	04e02303 	strbteq	r2, [r0], #771	; 0x303
    599c:	0005dd0b 	andeq	sp, r5, fp, lsl #26
    59a0:	ebe70300 	bl	ff9c65a8 <__bss_end+0xff9c3058>
    59a4:	0300000b 	movweq	r0, #11
    59a8:	0b04e423 	bleq	13ea3c <__bss_end+0x13b4ec>
    59ac:	00000590 	muleq	r0, r0, r5
    59b0:	0b31e803 	bleq	c7f9c4 <__bss_end+0xc7c474>
    59b4:	23030000 	movwcs	r0, #12288	; 0x3000
    59b8:	e90b04f0 	stmdb	fp, {r4, r5, r6, r7, sl}
    59bc:	03000005 	movweq	r0, #5
    59c0:	000bf0e9 	andeq	pc, fp, r9, ror #1
    59c4:	f4230300 	vld2.8	{d0-d3}, [r3], r0
    59c8:	09350b04 	ldmdbeq	r5!, {r2, r8, r9, fp}
    59cc:	ea030000 	b	c59d4 <__bss_end+0xc2484>
    59d0:	00000b31 	andeq	r0, r0, r1, lsr fp
    59d4:	05802303 	streq	r2, [r0, #771]	; 0x303
    59d8:	0009e80b 	andeq	lr, r9, fp, lsl #16
    59dc:	31ec0300 	mvncc	r0, r0, lsl #6
    59e0:	0300000b 	movweq	r0, #11
    59e4:	0b058423 	bleq	166a78 <__bss_end+0x163528>
    59e8:	000008c6 	andeq	r0, r0, r6, asr #17
    59ec:	0b31ed03 	bleq	c80e00 <__bss_end+0xc7d8b0>
    59f0:	23030000 	movwcs	r0, #12288	; 0x3000
    59f4:	880b0588 	stmdahi	fp, {r3, r7, r8, sl}
    59f8:	03000009 	movweq	r0, #9
    59fc:	000b31ee 	andeq	r3, fp, lr, ror #3
    5a00:	8c230300 	stchi	3, cr0, [r3], #-0
    5a04:	0b8f0b05 	bleq	fe3c8620 <__bss_end+0xfe3c50d0>
    5a08:	ef030000 	svc	0x00030000
    5a0c:	00000b31 	andeq	r0, r0, r1, lsr fp
    5a10:	05902303 	ldreq	r2, [r0, #771]	; 0x303
    5a14:	0005fb0b 	andeq	pc, r5, fp, lsl #22
    5a18:	f5f00300 			; <UNDEFINED> instruction: 0xf5f00300
    5a1c:	0300000b 	movweq	r0, #11
    5a20:	0b059423 	bleq	16aab4 <__bss_end+0x167564>
    5a24:	0000096b 	andeq	r0, r0, fp, ror #18
    5a28:	0b31f103 	bleq	c81e3c <__bss_end+0xc7e8ec>
    5a2c:	23030000 	movwcs	r0, #12288	; 0x3000
    5a30:	700b05a4 	andvc	r0, fp, r4, lsr #11
    5a34:	0300000c 	movweq	r0, #12
    5a38:	000b31f2 	strdeq	r3, [fp], -r2
    5a3c:	a8230300 	stmdage	r3!, {r8, r9}
    5a40:	03880b05 	orreq	r0, r8, #5120	; 0x1400
    5a44:	f3030000 	vhadd.u8	d0, d3, d0
    5a48:	00000b31 	andeq	r0, r0, r1, lsr fp
    5a4c:	05ac2303 	streq	r2, [ip, #771]!	; 0x303
    5a50:	000bed0b 	andeq	lr, fp, fp, lsl #26
    5a54:	31f40300 	mvnscc	r0, r0, lsl #6
    5a58:	0300000b 	movweq	r0, #11
    5a5c:	0b05b023 	bleq	171af0 <__bss_end+0x16e5a0>
    5a60:	00000395 	muleq	r0, r5, r3
    5a64:	0bfaf503 	bleq	ffec2e78 <__bss_end+0xffebf928>
    5a68:	23030000 	movwcs	r0, #12288	; 0x3000
    5a6c:	170b05b4 			; <UNDEFINED> instruction: 0x170b05b4
    5a70:	03000009 	movweq	r0, #9
    5a74:	000b31f7 	strdeq	r3, [fp], -r7
    5a78:	c0230300 	eorgt	r0, r3, r0, lsl #6
    5a7c:	09210b05 	stmdbeq	r1!, {r0, r2, r8, r9, fp}
    5a80:	f8030000 			; <UNDEFINED> instruction: 0xf8030000
    5a84:	00000b31 	andeq	r0, r0, r1, lsr fp
    5a88:	05c42303 	strbeq	r2, [r4, #771]	; 0x303
    5a8c:	00092b0b 	andeq	r2, r9, fp, lsl #22
    5a90:	31f90300 	mvnscc	r0, r0, lsl #6
    5a94:	0300000b 	movweq	r0, #11
    5a98:	0b05c823 	bleq	177b2c <__bss_end+0x1745dc>
    5a9c:	00000864 	andeq	r0, r0, r4, ror #16
    5aa0:	0b31fa03 	bleq	c842b4 <__bss_end+0xc80d64>
    5aa4:	23030000 	movwcs	r0, #12288	; 0x3000
    5aa8:	680b05cc 	stmdavs	fp, {r2, r3, r6, r7, r8, sl}
    5aac:	0300000a 	movweq	r0, #10
    5ab0:	000b31fb 	strdeq	r3, [fp], -fp
    5ab4:	d0230300 	eorle	r0, r3, r0, lsl #6
    5ab8:	086f0b05 	stmdaeq	pc!, {r0, r2, r8, r9, fp}^	; <UNPREDICTABLE>
    5abc:	fc030000 	stc2	0, cr0, [r3], {-0}
    5ac0:	00000b31 	andeq	r0, r0, r1, lsr fp
    5ac4:	05d42303 	ldrbeq	r2, [r4, #771]	; 0x303
    5ac8:	0006450b 	andeq	r4, r6, fp, lsl #10
    5acc:	31fd0300 	mvnscc	r0, r0, lsl #6
    5ad0:	0300000b 	movweq	r0, #11
    5ad4:	0005d823 	andeq	sp, r5, r3, lsr #16
    5ad8:	00012e0d 	andeq	r2, r1, sp, lsl #28
    5adc:	005e0d00 	subseq	r0, lr, r0, lsl #26
    5ae0:	e90d0000 	stmdb	sp, {}	; <UNPREDICTABLE>
    5ae4:	0d000001 	stceq	0, cr0, [r0, #-4]
    5ae8:	00000278 	andeq	r0, r0, r8, ror r2
    5aec:	0003110d 	andeq	r1, r3, sp, lsl #2
    5af0:	005e0e00 	subseq	r0, lr, r0, lsl #28
    5af4:	0b550000 	bleq	1545afc <__bss_end+0x15425ac>
    5af8:	690f0000 	stmdbvs	pc, {}	; <UNPREDICTABLE>
    5afc:	01000000 	mrseq	r0, (UNDEF: 0)
    5b00:	0b450d00 	bleq	1148f08 <__bss_end+0x11459b8>
    5b04:	450d0000 	strmi	r0, [sp, #-0]
    5b08:	0d00000b 	stceq	0, cr0, [r0, #-44]	; 0xffffffd4
    5b0c:	00000b45 	andeq	r0, r0, r5, asr #22
    5b10:	000b450d 	andeq	r4, fp, sp, lsl #10
    5b14:	005e0e00 	subseq	r0, lr, r0, lsl #28
    5b18:	0b790000 	bleq	1e45b20 <__bss_end+0x1e425d0>
    5b1c:	690f0000 	stmdbvs	pc, {}	; <UNPREDICTABLE>
    5b20:	06000000 	streq	r0, [r0], -r0
    5b24:	0b690d00 	bleq	1a48f2c <__bss_end+0x1a459dc>
    5b28:	5e0e0000 	cdppl	0, 0, cr0, cr14, cr0, {0}
    5b2c:	8e000000 	cdphi	0, 0, cr0, cr0, cr0, {0}
    5b30:	0f00000b 	svceq	0x0000000b
    5b34:	00000069 	andeq	r0, r0, r9, rrx
    5b38:	7e0d0003 	cdpvc	0, 0, cr0, cr13, cr3, {0}
    5b3c:	0d00000b 	stceq	0, cr0, [r0, #-44]	; 0xffffffd4
    5b40:	00000b7e 	andeq	r0, r0, lr, ror fp
    5b44:	000b7e0d 	andeq	r7, fp, sp, lsl #28
    5b48:	005e0e00 	subseq	r0, lr, r0, lsl #28
    5b4c:	0bad0000 	bleq	feb45b54 <__bss_end+0xfeb42604>
    5b50:	690f0000 	stmdbvs	pc, {}	; <UNPREDICTABLE>
    5b54:	02000000 	andeq	r0, r0, #0
    5b58:	0b9d0d00 	bleq	fe748f60 <__bss_end+0xfe745a10>
    5b5c:	5e0e0000 	cdppl	0, 0, cr0, cr14, cr0, {0}
    5b60:	c2000000 	andgt	r0, r0, #0
    5b64:	0f00000b 	svceq	0x0000000b
    5b68:	00000069 	andeq	r0, r0, r9, rrx
    5b6c:	b20d000e 	andlt	r0, sp, #14
    5b70:	0d00000b 	stceq	0, cr0, [r0, #-44]	; 0xffffffd4
    5b74:	0000034b 	andeq	r0, r0, fp, asr #6
    5b78:	000b7e0d 	andeq	r7, fp, sp, lsl #28
    5b7c:	005e0e00 	subseq	r0, lr, r0, lsl #28
    5b80:	0be10000 	bleq	ff845b88 <__bss_end+0xff842638>
    5b84:	690f0000 	stmdbvs	pc, {}	; <UNPREDICTABLE>
    5b88:	00000000 	andeq	r0, r0, r0
    5b8c:	0bd10d00 	bleq	ff448f94 <__bss_end+0xff445a44>
    5b90:	450d0000 	strmi	r0, [sp, #-0]
    5b94:	0d00000b 	stceq	0, cr0, [r0, #-44]	; 0xffffffd4
    5b98:	00000b9d 	muleq	r0, sp, fp
    5b9c:	000b9d0d 	andeq	r9, fp, sp, lsl #26
    5ba0:	0b7e0d00 	bleq	1f88fa8 <__bss_end+0x1f85a58>
    5ba4:	9d0d0000 	stcls	0, cr0, [sp, #-0]
    5ba8:	0300000b 	movweq	r0, #11
    5bac:	00000bb2 			; <UNDEFINED> instruction: 0x00000bb2
    5bb0:	0356fe03 	cmpeq	r6, #48	; 0x30
    5bb4:	04100000 	ldreq	r0, [r0], #-0
    5bb8:	00000bff 	strdeq	r0, [r0], -pc	; <UNPREDICTABLE>
    5bbc:	000a2a09 	andeq	r2, sl, r9, lsl #20
    5bc0:	18040800 	stmdane	r4, {fp}
    5bc4:	00000c39 	andeq	r0, r0, r9, lsr ip
    5bc8:	00042c0b 	andeq	r2, r4, fp, lsl #24
    5bcc:	5e190400 	cfmulspl	mvf0, mvf9, mvf0
    5bd0:	02000000 	andeq	r0, r0, #0
    5bd4:	4f0b0023 	svcmi	0x000b0023
    5bd8:	04000006 	streq	r0, [r0], #-6
    5bdc:	00005e1a 	andeq	r5, r0, sl, lsl lr
    5be0:	04230200 	strteq	r0, [r3], #-512	; 0x200
    5be4:	0bc40900 	bleq	ff107fec <__bss_end+0xff104a9c>
    5be8:	043c0000 	ldrteq	r0, [ip], #-0
    5bec:	000d181d 	andeq	r1, sp, sp, lsl r8
    5bf0:	0c230b00 	stceq	11, cr0, [r3], #-0
    5bf4:	1e040000 	cdpne	0, 0, cr0, cr4, cr0, {0}
    5bf8:	0000005e 	andeq	r0, r0, lr, asr r0
    5bfc:	0b002302 	bleq	e80c <__bss_end+0xb2bc>
    5c00:	00000bd9 	ldrdeq	r0, [r0], -r9
    5c04:	005e1f04 	subseq	r1, lr, r4, lsl #30
    5c08:	23020000 	movwcs	r0, #8192	; 0x2000
    5c0c:	06a20b04 	strteq	r0, [r2], r4, lsl #22
    5c10:	20040000 	andcs	r0, r4, r0
    5c14:	0000005e 	andeq	r0, r0, lr, asr r0
    5c18:	0b082302 	bleq	20e828 <__bss_end+0x20b2d8>
    5c1c:	000004e0 	andeq	r0, r0, r0, ror #9
    5c20:	005e2b04 	subseq	r2, lr, r4, lsl #22
    5c24:	23020000 	movwcs	r0, #8192	; 0x2000
    5c28:	09c00b0c 	stmibeq	r0, {r2, r3, r8, r9, fp}^
    5c2c:	2c040000 	stccs	0, cr0, [r4], {-0}
    5c30:	0000005e 	andeq	r0, r0, lr, asr r0
    5c34:	0b102302 	bleq	40e844 <__bss_end+0x40b2f4>
    5c38:	0000079a 	muleq	r0, sl, r7
    5c3c:	005e2d04 	subseq	r2, lr, r4, lsl #26
    5c40:	23020000 	movwcs	r0, #8192	; 0x2000
    5c44:	08db0b14 	ldmeq	fp, {r2, r4, r8, r9, fp}^
    5c48:	2e040000 	cdpcs	0, 0, cr0, cr4, cr0, {0}
    5c4c:	0000005e 	andeq	r0, r0, lr, asr r0
    5c50:	0b182302 	bleq	60e860 <__bss_end+0x60b310>
    5c54:	0000047c 	andeq	r0, r0, ip, ror r4
    5c58:	005e2f04 	subseq	r2, lr, r4, lsl #30
    5c5c:	23020000 	movwcs	r0, #8192	; 0x2000
    5c60:	04340b1c 	ldrteq	r0, [r4], #-2844	; 0xb1c
    5c64:	30040000 	andcc	r0, r4, r0
    5c68:	0000005e 	andeq	r0, r0, lr, asr r0
    5c6c:	0b202302 	bleq	80e87c <__bss_end+0x80b32c>
    5c70:	000003e2 	andeq	r0, r0, r2, ror #7
    5c74:	005e3104 	subseq	r3, lr, r4, lsl #2
    5c78:	23020000 	movwcs	r0, #8192	; 0x2000
    5c7c:	087a0b24 	ldmdaeq	sl!, {r2, r5, r8, r9, fp}^
    5c80:	32040000 	andcc	r0, r4, #0
    5c84:	0000005e 	andeq	r0, r0, lr, asr r0
    5c88:	0b282302 	bleq	a0e898 <__bss_end+0xa0b348>
    5c8c:	00000b65 	andeq	r0, r0, r5, ror #22
    5c90:	005e3304 	subseq	r3, lr, r4, lsl #6
    5c94:	23020000 	movwcs	r0, #8192	; 0x2000
    5c98:	08c60b2c 	stmiaeq	r6, {r2, r3, r5, r8, r9, fp}^
    5c9c:	34040000 	strcc	r0, [r4], #-0
    5ca0:	0000005e 	andeq	r0, r0, lr, asr r0
    5ca4:	0b302302 	bleq	c0e8b4 <__bss_end+0xc0b364>
    5ca8:	00000c70 	andeq	r0, r0, r0, ror ip
    5cac:	005e3504 	subseq	r3, lr, r4, lsl #10
    5cb0:	23020000 	movwcs	r0, #8192	; 0x2000
    5cb4:	05b50b34 	ldreq	r0, [r5, #2868]!	; 0xb34
    5cb8:	36040000 	strcc	r0, [r4], -r0
    5cbc:	0000005e 	andeq	r0, r0, lr, asr r0
    5cc0:	00382302 	eorseq	r2, r8, r2, lsl #6
    5cc4:	00088409 	andeq	r8, r8, r9, lsl #8
    5cc8:	3b040800 	blcc	107cd0 <__bss_end+0x104780>
    5ccc:	00000d6b 	andeq	r0, r0, fp, ror #26
    5cd0:	0005ad0b 	andeq	sl, r5, fp, lsl #26
    5cd4:	2c3c0400 	cfldrscs	mvf0, [ip], #-0
    5cd8:	02000000 	andeq	r0, r0, #0
    5cdc:	9d0b0023 	stcls	0, cr0, [fp, #-140]	; 0xffffff74
    5ce0:	04000005 	streq	r0, [r0], #-5
    5ce4:	00002c3d 	andeq	r2, r0, sp, lsr ip
    5ce8:	01230200 	teqeq	r3, r0, lsl #4
    5cec:	0005a50b 	andeq	sl, r5, fp, lsl #10
    5cf0:	2c3e0400 	cfldrscs	mvf0, [lr], #-0
    5cf4:	02000000 	andeq	r0, r0, #0
    5cf8:	bd0b0223 	sfmlt	f0, 4, [fp, #-140]	; 0xffffff74
    5cfc:	04000005 	streq	r0, [r0], #-5
    5d00:	00002c3f 	andeq	r2, r0, pc, lsr ip
    5d04:	03230200 	teqeq	r3, #0
    5d08:	6c6c500c 	stclvs	0, cr5, [ip], #-48	; 0xffffffd0
    5d0c:	5e400400 	cdppl	4, 4, cr0, cr0, cr0, {0}
    5d10:	02000000 	andeq	r0, r0, #0
    5d14:	09000423 	stmdbeq	r0, {r0, r1, r5, sl}
    5d18:	00001edb 	ldrdeq	r1, [r0], -fp
    5d1c:	94430440 	strbls	r0, [r3], #-1088	; 0x440
    5d20:	0b00000d 	bleq	5d5c <__bss_end+0x280c>
    5d24:	00000b45 	andeq	r0, r0, r5, asr #22
    5d28:	0c0a4404 	cfstrseq	mvf4, [sl], {4}
    5d2c:	23020000 	movwcs	r0, #8192	; 0x2000
    5d30:	1e870b00 	vdivne.f64	d0, d7, d0
    5d34:	45040000 	strmi	r0, [r4, #-0]
    5d38:	00000bb2 			; <UNDEFINED> instruction: 0x00000bb2
    5d3c:	00042302 	andeq	r2, r4, r2, lsl #6
    5d40:	00003111 	andeq	r3, r0, r1, lsl r1
    5d44:	89050400 	stmdbhi	r5, {sl}
    5d48:	00000e01 	andeq	r0, r0, r1, lsl #28
    5d4c:	00001e12 	andeq	r1, r0, r2, lsl lr
    5d50:	a4120000 	ldrge	r0, [r2], #-0
    5d54:	01000000 	mrseq	r0, (UNDEF: 0)
    5d58:	00004712 	andeq	r4, r0, r2, lsl r7
    5d5c:	81120200 	tsthi	r2, r0, lsl #4
    5d60:	03000000 	movweq	r0, #0
    5d64:	0001bf12 	andeq	fp, r1, r2, lsl pc
    5d68:	1c120400 	cfldrsne	mvf0, [r2], {-0}
    5d6c:	05000001 	streq	r0, [r0, #-1]
    5d70:	00010412 	andeq	r0, r1, r2, lsl r4
    5d74:	3f120600 	svccc	0x00120600
    5d78:	07000001 	streq	r0, [r0, -r1]
    5d7c:	00001212 	andeq	r1, r0, r2, lsl r2
    5d80:	76120800 	ldrvc	r0, [r2], -r0, lsl #16
    5d84:	09000000 	stmdbeq	r0, {}	; <UNPREDICTABLE>
    5d88:	00011112 	andeq	r1, r1, r2, lsl r1
    5d8c:	cb120a00 	blgt	488594 <__bss_end+0x485044>
    5d90:	0b000001 	bleq	5d9c <__bss_end+0x284c>
    5d94:	00002b12 	andeq	r2, r0, r2, lsl fp
    5d98:	a3120c00 	tstge	r2, #0
    5d9c:	0d000001 	stceq	0, cr0, [r0, #-4]
    5da0:	00025012 	andeq	r5, r2, r2, lsl r0
    5da4:	39120e00 	ldmdbcc	r2, {r9, sl, fp}
    5da8:	0f000000 	svceq	0x00000000
    5dac:	08010200 	stmdaeq	r1, {r9}
    5db0:	00000096 	muleq	r0, r6, r0
    5db4:	2d070402 	cfstrscs	mvf0, [r7, #-8]
    5db8:	13000001 	movwne	r0, #1
    5dbc:	001e1b01 	andseq	r1, lr, r1, lsl #22
    5dc0:	01150100 	tsteq	r5, r0, lsl #2
    5dc4:	00000c0a 	andeq	r0, r0, sl, lsl #24
    5dc8:	00002c08 	andeq	r2, r0, r8, lsl #24
    5dcc:	00002c38 	andeq	r2, r0, r8, lsr ip
    5dd0:	3b007d02 	blcc	251e0 <__bss_end+0x21c90>
    5dd4:	1400000e 	strne	r0, [r0], #-14
    5dd8:	000014fc 	strdeq	r1, [r0], -ip
    5ddc:	005e1501 	subseq	r1, lr, r1, lsl #10
    5de0:	1b800000 	blne	fe005de8 <__bss_end+0xfe002898>
    5de4:	15000000 	strne	r0, [r0, #-0]
    5de8:	001ecf01 	andseq	ip, lr, r1, lsl #30
    5dec:	012e0100 	teqeq	lr, r0, lsl #2
    5df0:	00000c0a 	andeq	r0, r0, sl, lsl #24
    5df4:	00002c38 	andeq	r2, r0, r8, lsr ip
    5df8:	00002c48 	andeq	r2, r0, r8, asr #24
    5dfc:	13007d02 	movwne	r7, #3330	; 0xd02
    5e00:	001eb301 	andseq	fp, lr, r1, lsl #6
    5e04:	01550100 	cmpeq	r5, r0, lsl #2
    5e08:	0000004c 	andeq	r0, r0, ip, asr #32
    5e0c:	00002c48 	andeq	r2, r0, r8, asr #24
    5e10:	00002c84 	andeq	r2, r0, r4, lsl #25
    5e14:	7f007d02 	svcvc	0x00007d02
    5e18:	1400000e 	strne	r0, [r0], #-14
    5e1c:	00001eda 	ldrdeq	r1, [r0], -sl
    5e20:	0e7f5501 	cdpeq	5, 7, cr5, cr15, cr1, {0}
    5e24:	1b930000 	blne	fe4c5e2c <__bss_end+0xfe4c28dc>
    5e28:	10000000 	andne	r0, r0, r0
    5e2c:	000d6b04 	andeq	r6, sp, r4, lsl #22
    5e30:	e5011300 	str	r1, [r1, #-768]	; 0x300
    5e34:	0100001e 	tsteq	r0, lr, lsl r0
    5e38:	004c0170 	subeq	r0, ip, r0, ror r1
    5e3c:	2c840000 	stccs	0, cr0, [r4], {0}
    5e40:	2cb80000 	ldccs	0, cr0, [r8]
    5e44:	7d020000 	stcvc	0, cr0, [r2, #-0]
    5e48:	000eb100 	andeq	fp, lr, r0, lsl #2
    5e4c:	1eda1400 	cdpne	4, 13, cr1, cr10, cr0, {0}
    5e50:	70010000 	andvc	r0, r1, r0
    5e54:	00000e7f 	andeq	r0, r0, pc, ror lr
    5e58:	00001bb1 			; <UNDEFINED> instruction: 0x00001bb1
    5e5c:	c0011600 	andgt	r1, r1, r0, lsl #12
    5e60:	0100001e 	tsteq	r0, lr, lsl r0
    5e64:	004c018e 	subeq	r0, ip, lr, lsl #3
    5e68:	2cb80000 	ldccs	0, cr0, [r8]
    5e6c:	2d280000 	stccs	0, cr0, [r8, #-0]
    5e70:	1bcf0000 	blne	ff3c5e78 <__bss_end+0xff3c2928>
    5e74:	0ede0000 	cdpeq	0, 13, cr0, cr14, cr0, {0}
    5e78:	33140000 	tstcc	r4, #0
    5e7c:	01000006 	tsteq	r0, r6
    5e80:	000ede8e 	andeq	sp, lr, lr, lsl #29
    5e84:	001bef00 	andseq	lr, fp, r0, lsl #30
    5e88:	04100000 	ldreq	r0, [r0], #-0
    5e8c:	00000c10 	andeq	r0, r0, r0, lsl ip
    5e90:	1e780116 	mrcne	1, 3, r0, cr8, cr6, {0}
    5e94:	b3010000 	movwlt	r0, #4096	; 0x1000
    5e98:	00004c01 	andeq	r4, r0, r1, lsl #24
    5e9c:	002d2800 	eoreq	r2, sp, r0, lsl #16
    5ea0:	002d7000 	eoreq	r7, sp, r0
    5ea4:	001c0d00 	andseq	r0, ip, r0, lsl #26
    5ea8:	000f1100 	andeq	r1, pc, r0, lsl #2
    5eac:	06331400 	ldrteq	r1, [r3], -r0, lsl #8
    5eb0:	b3010000 	movwlt	r0, #4096	; 0x1000
    5eb4:	00000ede 	ldrdeq	r0, [r0], -lr
    5eb8:	00001c2d 	andeq	r1, r0, sp, lsr #24
    5ebc:	4c011600 	stcmi	6, cr1, [r1], {-0}
    5ec0:	0100001e 	tsteq	r0, lr, lsl r0
    5ec4:	004c01cd 	subeq	r0, ip, sp, asr #3
    5ec8:	2d700000 	ldclcs	0, cr0, [r0, #-0]
    5ecc:	2dc40000 	stclcs	0, cr0, [r4]
    5ed0:	1c4b0000 	marne	acc0, r0, fp
    5ed4:	0f3e0000 	svceq	0x003e0000
    5ed8:	a0140000 	andsge	r0, r4, r0
    5edc:	0100001e 	tsteq	r0, lr, lsl r0
    5ee0:	000f3ecd 	andeq	r3, pc, sp, asr #29
    5ee4:	001c6b00 	andseq	r6, ip, r0, lsl #22
    5ee8:	04100000 	ldreq	r0, [r0], #-0
    5eec:	00000d18 	andeq	r0, r0, r8, lsl sp
    5ef0:	1e940116 	mrcne	1, 4, r0, cr4, cr6, {0}
    5ef4:	ed010000 	stc	0, cr0, [r1, #-0]
    5ef8:	00004c01 	andeq	r4, r0, r1, lsl #24
    5efc:	002dc400 	eoreq	ip, sp, r0, lsl #8
    5f00:	002e0c00 	eoreq	r0, lr, r0, lsl #24
    5f04:	001c8900 	andseq	r8, ip, r0, lsl #18
    5f08:	000f7100 	andeq	r7, pc, r0, lsl #2
    5f0c:	1ea01400 	cdpne	4, 10, cr1, cr0, cr0, {0}
    5f10:	ed010000 	stc	0, cr0, [r1, #-0]
    5f14:	00000f3e 	andeq	r0, r0, lr, lsr pc
    5f18:	00001ca9 	andeq	r1, r0, r9, lsr #25
    5f1c:	28011700 	stmdacs	r1, {r8, r9, sl, ip}
    5f20:	0100001e 	tsteq	r0, lr, lsl r0
    5f24:	4c01010a 	stfmis	f0, [r1], {10}
    5f28:	0c000000 	stceq	0, cr0, [r0], {-0}
    5f2c:	c000002e 	andgt	r0, r0, lr, lsr #32
    5f30:	0200002e 	andeq	r0, r0, #46	; 0x2e
    5f34:	0f9f007d 	svceq	0x009f007d
    5f38:	16180000 	ldrne	r0, [r8], -r0
    5f3c:	01000008 	tsteq	r0, r8
    5f40:	0f9f010a 	svceq	0x009f010a
    5f44:	1cc70000 	stclne	0, cr0, [r7], {0}
    5f48:	10000000 	andne	r0, r0, r0
    5f4c:	000c3904 	andeq	r3, ip, r4, lsl #18
    5f50:	de011700 	cdple	7, 0, cr1, cr1, cr0, {0}
    5f54:	0100001d 	tsteq	r0, sp, lsl r0
    5f58:	4c010142 	stfmis	f0, [r1], {66}	; 0x42
    5f5c:	c0000000 	andgt	r0, r0, r0
    5f60:	5000002e 	andpl	r0, r0, lr, lsr #32
    5f64:	0200002f 	andeq	r0, r0, #47	; 0x2f
    5f68:	0fd3007d 	svceq	0x00d3007d
    5f6c:	16180000 	ldrne	r0, [r8], -r0
    5f70:	01000008 	tsteq	r0, r8
    5f74:	0f9f0142 	svceq	0x009f0142
    5f78:	1ce50000 	stclne	0, cr0, [r5]
    5f7c:	19000000 	stmdbne	r0, {}	; <UNPREDICTABLE>
    5f80:	001e6301 	andseq	r6, lr, r1, lsl #6
    5f84:	01700100 	cmneq	r0, r0, lsl #2
    5f88:	00005e01 	andeq	r5, r0, r1, lsl #28
    5f8c:	002f5000 	eoreq	r5, pc, r0
    5f90:	002fac00 	eoreq	sl, pc, r0, lsl #24
    5f94:	001d0300 	andseq	r0, sp, r0, lsl #6
    5f98:	00104f00 	andseq	r4, r0, r0, lsl #30
    5f9c:	05ad1a00 	streq	r1, [sp, #2560]!	; 0xa00
    5fa0:	72010000 	andvc	r0, r1, #0
    5fa4:	00005e01 	andeq	r5, r0, r1, lsl #28
    5fa8:	001d2300 	andseq	r2, sp, r0, lsl #6
    5fac:	059d1b00 	ldreq	r1, [sp, #2816]	; 0xb00
    5fb0:	73010000 	movwvc	r0, #4096	; 0x1000
    5fb4:	00005e01 	andeq	r5, r0, r1, lsl #28
    5fb8:	a51a0100 	ldrge	r0, [sl, #-256]	; 0x100
    5fbc:	01000005 	tsteq	r0, r5
    5fc0:	005e0174 	subseq	r0, lr, r4, ror r1
    5fc4:	1d420000 	stclne	0, cr0, [r2, #-0]
    5fc8:	bd1a0000 	ldclt	0, cr0, [sl, #-0]
    5fcc:	01000005 	tsteq	r0, r5
    5fd0:	005e0175 	subseq	r0, lr, r5, ror r1
    5fd4:	1d630000 	stclne	0, cr0, [r3, #-0]
    5fd8:	ab1a0000 	blge	685fe0 <__bss_end+0x682a90>
    5fdc:	0100001e 	tsteq	r0, lr, lsl r0
    5fe0:	005e0176 	subseq	r0, lr, r6, ror r1
    5fe4:	1d820000 	stcne	0, cr0, [r2]
    5fe8:	6f1a0000 	svcvs	0x001a0000
    5fec:	0100001e 	tsteq	r0, lr, lsl r0
    5ff0:	005e0177 	subseq	r0, lr, r7, ror r1
    5ff4:	1d960000 	ldcne	0, cr0, [r6]
    5ff8:	1c000000 	stcne	0, cr0, [r0], {-0}
    5ffc:	00000b45 	andeq	r0, r0, r5, asr #22
    6000:	0c0a0401 	cfstrseq	mvf0, [sl], {1}
    6004:	03050000 	movweq	r0, #20480	; 0x5000
    6008:	00003364 	andeq	r3, r0, r4, ror #6
    600c:	001e391c 	andseq	r3, lr, ip, lsl r9
    6010:	2e350100 	rsfcss	f0, f5, f0
    6014:	05000001 	streq	r0, [r0, #-1]
    6018:	00336c03 	eorseq	r6, r3, r3, lsl #24
    601c:	1ef51c00 	cdpne	12, 15, cr1, cr5, cr0, {0}
    6020:	36010000 	strcc	r0, [r1], -r0
    6024:	000001e9 	andeq	r0, r0, r9, ror #3
    6028:	33680305 	cmncc	r8, #335544320	; 0x14000000
    602c:	Address 0x0000602c is out of bounds.


Disassembly of section .debug_abbrev:

00000000 <.debug_abbrev>:
       0:	25011101 	strcs	r1, [r1, #-257]	; 0x101
       4:	030b130e 	movweq	r1, #45838	; 0xb30e
       8:	110e1b0e 	tstne	lr, lr, lsl #22
       c:	10011201 	andne	r1, r1, r1, lsl #4
      10:	02000006 	andeq	r0, r0, #6
      14:	0b0b0024 	bleq	2c00ac <__bss_end+0x2bcb5c>
      18:	0e030b3e 	vmoveq.16	d3[0], r0
      1c:	24030000 	strcs	r0, [r3], #-0
      20:	3e0b0b00 	vmlacc.f64	d0, d11, d0
      24:	0008030b 	andeq	r0, r8, fp, lsl #6
      28:	01040400 	tsteq	r4, r0, lsl #8
      2c:	0b0b0e03 	bleq	2c3840 <__bss_end+0x2c02f0>
      30:	0b3b0b3a 	bleq	ec2d20 <__bss_end+0xebf7d0>
      34:	00001301 	andeq	r1, r0, r1, lsl #6
      38:	03002805 	movweq	r2, #2053	; 0x805
      3c:	000d1c0e 	andeq	r1, sp, lr, lsl #24
      40:	01130600 	tsteq	r3, r0, lsl #12
      44:	0b0b0e03 	bleq	2c3858 <__bss_end+0x2c0308>
      48:	0b3b0b3a 	bleq	ec2d38 <__bss_end+0xebf7e8>
      4c:	00001301 	andeq	r1, r0, r1, lsl #6
      50:	03000d07 	movweq	r0, #3335	; 0xd07
      54:	3b0b3a0e 	blcc	2ce894 <__bss_end+0x2cb344>
      58:	3813490b 	ldmdacc	r3, {r0, r1, r3, r8, fp, lr}
      5c:	0800000a 	stmdaeq	r0, {r1, r3}
      60:	13490101 	movtne	r0, #37121	; 0x9101
      64:	00001301 	andeq	r1, r0, r1, lsl #6
      68:	49002109 	stmdbmi	r0, {r0, r3, r8, sp}
      6c:	000b2f13 	andeq	r2, fp, r3, lsl pc
      70:	00160a00 	andseq	r0, r6, r0, lsl #20
      74:	0b3a0e03 	bleq	e83888 <__bss_end+0xe80338>
      78:	13490b3b 	movtne	r0, #39739	; 0x9b3b
      7c:	340b0000 	strcc	r0, [fp], #-0
      80:	3a0e0300 	bcc	380c88 <__bss_end+0x37d738>
      84:	490b3b0b 	stmdbmi	fp, {r0, r1, r3, r8, r9, fp, ip, sp}
      88:	020c3f13 	andeq	r3, ip, #76	; 0x4c
      8c:	0c00000a 	stceq	0, cr0, [r0], {10}
      90:	13490026 	movtne	r0, #36902	; 0x9026
      94:	01000000 	mrseq	r0, (UNDEF: 0)
      98:	06100011 			; <UNDEFINED> instruction: 0x06100011
      9c:	01120111 	tsteq	r2, r1, lsl r1
      a0:	081b0803 	ldmdaeq	fp, {r0, r1, fp}
      a4:	05130825 	ldreq	r0, [r3, #-2085]	; 0x825
      a8:	01000000 	mrseq	r0, (UNDEF: 0)
      ac:	0e250111 	mcreq	1, 1, r0, cr5, cr1, {0}
      b0:	0e030b13 	vmoveq.32	d3[0], r0
      b4:	01110e1b 	tsteq	r1, fp, lsl lr
      b8:	06100112 			; <UNDEFINED> instruction: 0x06100112
      bc:	24020000 	strcs	r0, [r2], #-0
      c0:	3e0b0b00 	vmlacc.f64	d0, d11, d0
      c4:	000e030b 	andeq	r0, lr, fp, lsl #6
      c8:	00240300 	eoreq	r0, r4, r0, lsl #6
      cc:	0b3e0b0b 	bleq	f82d00 <__bss_end+0xf7f7b0>
      d0:	00000803 	andeq	r0, r0, r3, lsl #16
      d4:	0b000f04 	bleq	3cec <__bss_end+0x79c>
      d8:	0013490b 	andseq	r4, r3, fp, lsl #18
      dc:	000f0500 	andeq	r0, pc, r0, lsl #10
      e0:	00000b0b 	andeq	r0, r0, fp, lsl #22
      e4:	3f012e06 	svccc	0x00012e06
      e8:	3a0e030c 	bcc	380d20 <__bss_end+0x37d7d0>
      ec:	270b3b0b 	strcs	r3, [fp, -fp, lsl #22]
      f0:	1201110c 	andne	r1, r1, #3
      f4:	000a4001 	andeq	r4, sl, r1
      f8:	00050700 	andeq	r0, r5, r0, lsl #14
      fc:	0b3a0e03 	bleq	e83910 <__bss_end+0xe803c0>
     100:	13490b3b 	movtne	r0, #39739	; 0x9b3b
     104:	00000602 	andeq	r0, r0, r2, lsl #12
     108:	03000508 	movweq	r0, #1288	; 0x508
     10c:	3b0b3a08 	blcc	2ce934 <__bss_end+0x2cb3e4>
     110:	0213490b 	andseq	r4, r3, #180224	; 0x2c000
     114:	09000006 	stmdbeq	r0, {r1, r2}
     118:	0e030034 	mcreq	0, 0, r0, cr3, cr4, {1}
     11c:	0b3b0b3a 	bleq	ec2e0c <__bss_end+0xebf8bc>
     120:	06021349 	streq	r1, [r2], -r9, asr #6
     124:	340a0000 	strcc	r0, [sl], #-0
     128:	3a0e0300 	bcc	380d30 <__bss_end+0x37d7e0>
     12c:	490b3b0b 	stmdbmi	fp, {r0, r1, r3, r8, r9, fp, ip, sp}
     130:	000a0213 	andeq	r0, sl, r3, lsl r2
     134:	11010000 	mrsne	r0, (UNDEF: 1)
     138:	130e2501 	movwne	r2, #58625	; 0xe501
     13c:	1b0e030b 	blne	380d70 <__bss_end+0x37d820>
     140:	1201110e 	andne	r1, r1, #-2147483645	; 0x80000003
     144:	00061001 	andeq	r1, r6, r1
     148:	00240200 	eoreq	r0, r4, r0, lsl #4
     14c:	0b3e0b0b 	bleq	f82d80 <__bss_end+0xf7f830>
     150:	00000e03 	andeq	r0, r0, r3, lsl #28
     154:	0b002403 	bleq	9168 <__bss_end+0x5c18>
     158:	030b3e0b 	movweq	r3, #48651	; 0xbe0b
     15c:	00000008 	andeq	r0, r0, r8
     160:	10001101 	andne	r1, r0, r1, lsl #2
     164:	12011106 	andne	r1, r1, #-2147483647	; 0x80000001
     168:	1b080301 	blne	200d74 <__bss_end+0x1fd824>
     16c:	13082508 	movwne	r2, #34056	; 0x8508
     170:	00000005 	andeq	r0, r0, r5
     174:	25011101 	strcs	r1, [r1, #-257]	; 0x101
     178:	030b130e 	movweq	r1, #45838	; 0xb30e
     17c:	110e1b0e 	tstne	lr, lr, lsl #22
     180:	10011201 	andne	r1, r1, r1, lsl #4
     184:	02000006 	andeq	r0, r0, #6
     188:	0b0b0024 	bleq	2c0220 <__bss_end+0x2bccd0>
     18c:	0e030b3e 	vmoveq.16	d3[0], r0
     190:	24030000 	strcs	r0, [r3], #-0
     194:	3e0b0b00 	vmlacc.f64	d0, d11, d0
     198:	0008030b 	andeq	r0, r8, fp, lsl #6
     19c:	11010000 	mrsne	r0, (UNDEF: 1)
     1a0:	130e2501 	movwne	r2, #58625	; 0xe501
     1a4:	1b0e030b 	blne	380dd8 <__bss_end+0x37d888>
     1a8:	1201110e 	andne	r1, r1, #-2147483645	; 0x80000003
     1ac:	00061001 	andeq	r1, r6, r1
     1b0:	00240200 	eoreq	r0, r4, r0, lsl #4
     1b4:	0b3e0b0b 	bleq	f82de8 <__bss_end+0xf7f898>
     1b8:	00000e03 	andeq	r0, r0, r3, lsl #28
     1bc:	0b002403 	bleq	91d0 <__bss_end+0x5c80>
     1c0:	030b3e0b 	movweq	r3, #48651	; 0xbe0b
     1c4:	00000008 	andeq	r0, r0, r8
     1c8:	25011101 	strcs	r1, [r1, #-257]	; 0x101
     1cc:	030b130e 	movweq	r1, #45838	; 0xb30e
     1d0:	110e1b0e 	tstne	lr, lr, lsl #22
     1d4:	10011201 	andne	r1, r1, r1, lsl #4
     1d8:	02000006 	andeq	r0, r0, #6
     1dc:	0b0b0024 	bleq	2c0274 <__bss_end+0x2bcd24>
     1e0:	0e030b3e 	vmoveq.16	d3[0], r0
     1e4:	24030000 	strcs	r0, [r3], #-0
     1e8:	3e0b0b00 	vmlacc.f64	d0, d11, d0
     1ec:	0008030b 	andeq	r0, r8, fp, lsl #6
     1f0:	11010000 	mrsne	r0, (UNDEF: 1)
     1f4:	130e2501 	movwne	r2, #58625	; 0xe501
     1f8:	1b0e030b 	blne	380e2c <__bss_end+0x37d8dc>
     1fc:	1201110e 	andne	r1, r1, #-2147483645	; 0x80000003
     200:	00061001 	andeq	r1, r6, r1
     204:	00240200 	eoreq	r0, r4, r0, lsl #4
     208:	0b3e0b0b 	bleq	f82e3c <__bss_end+0xf7f8ec>
     20c:	00000e03 	andeq	r0, r0, r3, lsl #28
     210:	03001603 	movweq	r1, #1539	; 0x603
     214:	3b0b3a0e 	blcc	2cea54 <__bss_end+0x2cb504>
     218:	0013490b 	andseq	r4, r3, fp, lsl #18
     21c:	00240400 	eoreq	r0, r4, r0, lsl #8
     220:	0b3e0b0b 	bleq	f82e54 <__bss_end+0xf7f904>
     224:	00000803 	andeq	r0, r0, r3, lsl #16
     228:	0b011305 	bleq	44e44 <__bss_end+0x418f4>
     22c:	3b0b3a0b 	blcc	2cea60 <__bss_end+0x2cb510>
     230:	0013010b 	andseq	r0, r3, fp, lsl #2
     234:	000d0600 	andeq	r0, sp, r0, lsl #12
     238:	0b3a0e03 	bleq	e83a4c <__bss_end+0xe804fc>
     23c:	13490b3b 	movtne	r0, #39739	; 0x9b3b
     240:	0b0d0b0b 	bleq	342e74 <__bss_end+0x33f924>
     244:	0a380b0c 	beq	e02e7c <__bss_end+0xdff92c>
     248:	17070000 	strne	r0, [r7, -r0]
     24c:	3a0b0b01 	bcc	2c2e58 <__bss_end+0x2bf908>
     250:	010b3b0b 	tsteq	fp, fp, lsl #22
     254:	08000013 	stmdaeq	r0, {r0, r1, r4}
     258:	0e03000d 	cdpeq	0, 0, cr0, cr3, cr13, {0}
     25c:	0b3b0b3a 	bleq	ec2f4c <__bss_end+0xebf9fc>
     260:	00001349 	andeq	r1, r0, r9, asr #6
     264:	03011309 	movweq	r1, #4873	; 0x1309
     268:	3a0b0b0e 	bcc	2c2ea8 <__bss_end+0x2bf958>
     26c:	010b3b0b 	tsteq	fp, fp, lsl #22
     270:	0a000013 	beq	2c4 <set_pll+0xb0>
     274:	0e030113 	mcreq	1, 0, r0, cr3, cr3, {0}
     278:	0b3a050b 	bleq	e816ac <__bss_end+0xe7e15c>
     27c:	13010b3b 	movwne	r0, #6971	; 0x1b3b
     280:	0d0b0000 	stceq	0, cr0, [fp, #-0]
     284:	3a0e0300 	bcc	380e8c <__bss_end+0x37d93c>
     288:	490b3b0b 	stmdbmi	fp, {r0, r1, r3, r8, r9, fp, ip, sp}
     28c:	000a3813 	andeq	r3, sl, r3, lsl r8
     290:	000d0c00 	andeq	r0, sp, r0, lsl #24
     294:	0b3a0803 	bleq	e822a8 <__bss_end+0xe7ed58>
     298:	13490b3b 	movtne	r0, #39739	; 0x9b3b
     29c:	00000a38 	andeq	r0, r0, r8, lsr sl
     2a0:	4900350d 	stmdbmi	r0, {r0, r2, r3, r8, sl, ip, sp}
     2a4:	0e000013 	mcreq	0, 0, r0, cr0, cr3, {0}
     2a8:	13490101 	movtne	r0, #37121	; 0x9101
     2ac:	00001301 	andeq	r1, r0, r1, lsl #6
     2b0:	4900210f 	stmdbmi	r0, {r0, r1, r2, r3, r8, sp}
     2b4:	000b2f13 	andeq	r2, fp, r3, lsl pc
     2b8:	000f1000 	andeq	r1, pc, r0
     2bc:	13490b0b 	movtne	r0, #39691	; 0x9b0b
     2c0:	04110000 	ldreq	r0, [r1], #-0
     2c4:	0b0e0301 	bleq	380ed0 <__bss_end+0x37d980>
     2c8:	3b0b3a0b 	blcc	2ceafc <__bss_end+0x2cb5ac>
     2cc:	0013010b 	andseq	r0, r3, fp, lsl #2
     2d0:	00281200 	eoreq	r1, r8, r0, lsl #4
     2d4:	0d1c0e03 	ldceq	14, cr0, [ip, #-12]
     2d8:	04130000 	ldreq	r0, [r3], #-0
     2dc:	3a0b0b01 	bcc	2c2ee8 <__bss_end+0x2bf998>
     2e0:	010b3b0b 	tsteq	fp, fp, lsl #22
     2e4:	14000013 	strne	r0, [r0], #-19
     2e8:	0b0b000f 	bleq	2c032c <__bss_end+0x2bcddc>
     2ec:	15150000 	ldrne	r0, [r5, #-0]
     2f0:	490c2700 	stmdbmi	ip, {r8, r9, sl, sp}
     2f4:	16000013 			; <UNDEFINED> instruction: 0x16000013
     2f8:	0c3f002e 	ldceq	0, cr0, [pc], #-184	; 248 <set_pll+0x34>
     2fc:	0b3a0e03 	bleq	e83b10 <__bss_end+0xe805c0>
     300:	0c270b3b 	stceq	11, cr0, [r7], #-236	; 0xffffff14
     304:	01111349 	tsteq	r1, r9, asr #6
     308:	06400112 			; <UNDEFINED> instruction: 0x06400112
     30c:	2e170000 	cdpcs	0, 1, cr0, cr7, cr0, {0}
     310:	030c3f01 	movweq	r3, #52993	; 0xcf01
     314:	3b0b3a0e 	blcc	2ceb54 <__bss_end+0x2cb604>
     318:	110c270b 	tstne	ip, fp, lsl #14
     31c:	40011201 	andmi	r1, r1, r1, lsl #4
     320:	00130106 	andseq	r0, r3, r6, lsl #2
     324:	00341800 	eorseq	r1, r4, r0, lsl #16
     328:	0b3a0e03 	bleq	e83b3c <__bss_end+0xe805ec>
     32c:	13490b3b 	movtne	r0, #39739	; 0x9b3b
     330:	00000602 	andeq	r0, r0, r2, lsl #12
     334:	03003419 	movweq	r3, #1049	; 0x419
     338:	3b0b3a0e 	blcc	2ceb78 <__bss_end+0x2cb628>
     33c:	1c13490b 	ldcne	9, cr4, [r3], {11}
     340:	1a00000b 	bne	374 <set_pll+0x160>
     344:	0e030034 	mcreq	0, 0, r0, cr3, cr4, {1}
     348:	0b3b0b3a 	bleq	ec3038 <__bss_end+0xebfae8>
     34c:	00001349 	andeq	r1, r0, r9, asr #6
     350:	0300341b 	movweq	r3, #1051	; 0x41b
     354:	3b0b3a0e 	blcc	2ceb94 <__bss_end+0x2cb644>
     358:	0213490b 	andseq	r4, r3, #180224	; 0x2c000
     35c:	1c00000a 	stcne	0, cr0, [r0], {10}
     360:	0e030034 	mcreq	0, 0, r0, cr3, cr4, {1}
     364:	0b3b0b3a 	bleq	ec3054 <__bss_end+0xebfb04>
     368:	0c3f1349 	ldceq	3, cr1, [pc], #-292	; 24c <set_pll+0x38>
     36c:	00000a02 	andeq	r0, r0, r2, lsl #20
     370:	0300341d 	movweq	r3, #1053	; 0x41d
     374:	3b0b3a0e 	blcc	2cebb4 <__bss_end+0x2cb664>
     378:	3f13490b 	svccc	0x0013490b
     37c:	000c3c0c 	andeq	r3, ip, ip, lsl #24
     380:	11010000 	mrsne	r0, (UNDEF: 1)
     384:	130e2501 	movwne	r2, #58625	; 0xe501
     388:	1b0e030b 	blne	380fbc <__bss_end+0x37da6c>
     38c:	1201110e 	andne	r1, r1, #-2147483645	; 0x80000003
     390:	00061001 	andeq	r1, r6, r1
     394:	00240200 	eoreq	r0, r4, r0, lsl #4
     398:	0b3e0b0b 	bleq	f82fcc <__bss_end+0xf7fa7c>
     39c:	00000e03 	andeq	r0, r0, r3, lsl #28
     3a0:	0b002403 	bleq	93b4 <__bss_end+0x5e64>
     3a4:	030b3e0b 	movweq	r3, #48651	; 0xbe0b
     3a8:	04000008 	streq	r0, [r0], #-8
     3ac:	0e030016 	mcreq	0, 0, r0, cr3, cr6, {0}
     3b0:	0b3b0b3a 	bleq	ec30a0 <__bss_end+0xebfb50>
     3b4:	00001349 	andeq	r1, r0, r9, asr #6
     3b8:	03011305 	movweq	r1, #4869	; 0x1305
     3bc:	3a0b0b0e 	bcc	2c2ffc <__bss_end+0x2bfaac>
     3c0:	010b3b0b 	tsteq	fp, fp, lsl #22
     3c4:	06000013 			; <UNDEFINED> instruction: 0x06000013
     3c8:	0e03000d 	cdpeq	0, 0, cr0, cr3, cr13, {0}
     3cc:	0b3b0b3a 	bleq	ec30bc <__bss_end+0xebfb6c>
     3d0:	0b0b1349 	bleq	2c50fc <__bss_end+0x2c1bac>
     3d4:	0b0c0b0d 	bleq	303010 <__bss_end+0x2ffac0>
     3d8:	00000a38 	andeq	r0, r0, r8, lsr sl
     3dc:	0b011707 	bleq	46000 <__bss_end+0x42ab0>
     3e0:	3b0b3a0b 	blcc	2cec14 <__bss_end+0x2cb6c4>
     3e4:	0013010b 	andseq	r0, r3, fp, lsl #2
     3e8:	000d0800 	andeq	r0, sp, r0, lsl #16
     3ec:	0b3a0e03 	bleq	e83c00 <__bss_end+0xe806b0>
     3f0:	13490b3b 	movtne	r0, #39739	; 0x9b3b
     3f4:	35090000 	strcc	r0, [r9, #-0]
     3f8:	00134900 	andseq	r4, r3, r0, lsl #18
     3fc:	01040a00 	tsteq	r4, r0, lsl #20
     400:	0b0b0e03 	bleq	2c3c14 <__bss_end+0x2c06c4>
     404:	0b3b0b3a 	bleq	ec30f4 <__bss_end+0xebfba4>
     408:	00001301 	andeq	r1, r0, r1, lsl #6
     40c:	0300280b 	movweq	r2, #2059	; 0x80b
     410:	000d1c0e 	andeq	r1, sp, lr, lsl #24
     414:	012e0c00 	teqeq	lr, r0, lsl #24
     418:	0e030c3f 	mcreq	12, 0, r0, cr3, cr15, {1}
     41c:	0b3b0b3a 	bleq	ec310c <__bss_end+0xebfbbc>
     420:	01110c27 	tsteq	r1, r7, lsr #24
     424:	06400112 			; <UNDEFINED> instruction: 0x06400112
     428:	00001301 	andeq	r1, r0, r1, lsl #6
     42c:	0300340d 	movweq	r3, #1037	; 0x40d
     430:	3b0b3a0e 	blcc	2cec70 <__bss_end+0x2cb720>
     434:	0213490b 	andseq	r4, r3, #180224	; 0x2c000
     438:	0e00000a 	cdpeq	0, 0, cr0, cr0, cr10, {0}
     43c:	0c3f002e 	ldceq	0, cr0, [pc], #-184	; 38c <busy_waiting+0xc>
     440:	0b3a0e03 	bleq	e83c54 <__bss_end+0xe80704>
     444:	0c270b3b 	stceq	11, cr0, [r7], #-236	; 0xffffff14
     448:	01120111 	tsteq	r2, r1, lsl r1
     44c:	00000a40 	andeq	r0, r0, r0, asr #20
     450:	0300340f 	movweq	r3, #1039	; 0x40f
     454:	3b0b3a08 	blcc	2cec7c <__bss_end+0x2cb72c>
     458:	0213490b 	andseq	r4, r3, #180224	; 0x2c000
     45c:	10000006 	andne	r0, r0, r6
     460:	08030005 	stmdaeq	r3, {r0, r2}
     464:	0b3b0b3a 	bleq	ec3154 <__bss_end+0xebfc04>
     468:	06021349 	streq	r1, [r2], -r9, asr #6
     46c:	2e110000 	cdpcs	0, 1, cr0, cr1, cr0, {0}
     470:	030c3f01 	movweq	r3, #52993	; 0xcf01
     474:	3b0b3a0e 	blcc	2cecb4 <__bss_end+0x2cb764>
     478:	490c270b 	stmdbmi	ip, {r0, r1, r3, r8, r9, sl, sp}
     47c:	12011113 	andne	r1, r1, #-1073741820	; 0xc0000004
     480:	01064001 	tsteq	r6, r1
     484:	12000013 	andne	r0, r0, #19
     488:	0c3f012e 	ldfeqs	f0, [pc], #-184	; 3d8 <mem_status_init_nommu+0xc>
     48c:	0b3a0e03 	bleq	e83ca0 <__bss_end+0xe80750>
     490:	0c270b3b 	stceq	11, cr0, [r7], #-236	; 0xffffff14
     494:	01120111 	tsteq	r2, r1, lsl r1
     498:	13010a40 	movwne	r0, #6720	; 0x1a40
     49c:	34130000 	ldrcc	r0, [r3], #-0
     4a0:	3a0e0300 	bcc	3810a8 <__bss_end+0x37db58>
     4a4:	49053b0b 	stmdbmi	r5, {r0, r1, r3, r8, r9, fp, ip, sp}
     4a8:	000a0213 	andeq	r0, sl, r3, lsl r2
     4ac:	012e1400 	teqeq	lr, r0, lsl #8
     4b0:	0e030c3f 	mcreq	12, 0, r0, cr3, cr15, {1}
     4b4:	053b0b3a 	ldreq	r0, [fp, #-2874]!	; 0xb3a
     4b8:	01110c27 	tsteq	r1, r7, lsr #24
     4bc:	0a400112 	beq	100090c <__bss_end+0xffd3bc>
     4c0:	00001301 	andeq	r1, r0, r1, lsl #6
     4c4:	3f012e15 	svccc	0x00012e15
     4c8:	3a0e030c 	bcc	381100 <__bss_end+0x37dbb0>
     4cc:	27053b0b 	strcs	r3, [r5, -fp, lsl #22]
     4d0:	1201110c 	andne	r1, r1, #3
     4d4:	01064001 	tsteq	r6, r1
     4d8:	16000013 			; <UNDEFINED> instruction: 0x16000013
     4dc:	08030005 	stmdaeq	r3, {r0, r2}
     4e0:	053b0b3a 	ldreq	r0, [fp, #-2874]!	; 0xb3a
     4e4:	06021349 	streq	r1, [r2], -r9, asr #6
     4e8:	34170000 	ldrcc	r0, [r7], #-0
     4ec:	3a0e0300 	bcc	3810f4 <__bss_end+0x37dba4>
     4f0:	49053b0b 	stmdbmi	r5, {r0, r1, r3, r8, r9, fp, ip, sp}
     4f4:	00060213 	andeq	r0, r6, r3, lsl r2
     4f8:	000f1800 	andeq	r1, pc, r0, lsl #16
     4fc:	13490b0b 	movtne	r0, #39691	; 0x9b0b
     500:	34190000 	ldrcc	r0, [r9], #-0
     504:	3a0e0300 	bcc	38110c <__bss_end+0x37dbbc>
     508:	490b3b0b 	stmdbmi	fp, {r0, r1, r3, r8, r9, fp, ip, sp}
     50c:	020c3f13 	andeq	r3, ip, #76	; 0x4c
     510:	0000000a 	andeq	r0, r0, sl
     514:	25011101 	strcs	r1, [r1, #-257]	; 0x101
     518:	030b130e 	movweq	r1, #45838	; 0xb30e
     51c:	110e1b0e 	tstne	lr, lr, lsl #22
     520:	10011201 	andne	r1, r1, r1, lsl #4
     524:	02000006 	andeq	r0, r0, #6
     528:	0b0b0024 	bleq	2c05c0 <__bss_end+0x2bd070>
     52c:	0e030b3e 	vmoveq.16	d3[0], r0
     530:	16030000 	strne	r0, [r3], -r0
     534:	3a0e0300 	bcc	38113c <__bss_end+0x37dbec>
     538:	490b3b0b 	stmdbmi	fp, {r0, r1, r3, r8, r9, fp, ip, sp}
     53c:	04000013 	streq	r0, [r0], #-19
     540:	0b0b0024 	bleq	2c05d8 <__bss_end+0x2bd088>
     544:	08030b3e 	stmdaeq	r3, {r1, r2, r3, r4, r5, r8, r9, fp}
     548:	04050000 	streq	r0, [r5], #-0
     54c:	0b0e0301 	bleq	381158 <__bss_end+0x37dc08>
     550:	3b0b3a0b 	blcc	2ced84 <__bss_end+0x2cb834>
     554:	0013010b 	andseq	r0, r3, fp, lsl #2
     558:	00280600 	eoreq	r0, r8, r0, lsl #12
     55c:	0d1c0e03 	ldceq	14, cr0, [ip, #-12]
     560:	2e070000 	cdpcs	0, 0, cr0, cr7, cr0, {0}
     564:	030c3f01 	movweq	r3, #52993	; 0xcf01
     568:	3b0b3a0e 	blcc	2ceda8 <__bss_end+0x2cb858>
     56c:	490c270b 	stmdbmi	ip, {r0, r1, r3, r8, r9, sl, sp}
     570:	010b2013 	tsteq	fp, r3, lsl r0
     574:	08000013 	stmdaeq	r0, {r0, r1, r4}
     578:	0e030034 	mcreq	0, 0, r0, cr3, cr4, {1}
     57c:	0b3b0b3a 	bleq	ec326c <__bss_end+0xebfd1c>
     580:	00001349 	andeq	r1, r0, r9, asr #6
     584:	3f012e09 	svccc	0x00012e09
     588:	3a0e030c 	bcc	3811c0 <__bss_end+0x37dc70>
     58c:	270b3b0b 	strcs	r3, [fp, -fp, lsl #22]
     590:	010b200c 	tsteq	fp, ip
     594:	0a000013 	beq	5e8 <save_mem_status_nommu>
     598:	0e030005 	cdpeq	0, 0, cr0, cr3, cr5, {0}
     59c:	0b3b0b3a 	bleq	ec328c <__bss_end+0xebfd3c>
     5a0:	00001349 	andeq	r1, r0, r9, asr #6
     5a4:	03012e0b 	movweq	r2, #7691	; 0x1e0b
     5a8:	3b0b3a0e 	blcc	2cede8 <__bss_end+0x2cb898>
     5ac:	490c270b 	stmdbmi	ip, {r0, r1, r3, r8, r9, sl, sp}
     5b0:	010b2013 	tsteq	fp, r3, lsl r0
     5b4:	0c000013 	stceq	0, cr0, [r0], {19}
     5b8:	1331012e 	teqne	r1, #-2147483637	; 0x8000000b
     5bc:	01120111 	tsteq	r2, r1, lsl r1
     5c0:	13010a40 	movwne	r0, #6720	; 0x1a40
     5c4:	050d0000 	streq	r0, [sp, #-0]
     5c8:	02133100 	andseq	r3, r3, #0
     5cc:	0e000006 	cdpeq	0, 0, cr0, cr0, cr6, {0}
     5d0:	13310005 	teqne	r1, #5
     5d4:	00000a02 	andeq	r0, r0, r2, lsl #20
     5d8:	3100340f 	tstcc	r0, pc, lsl #8
     5dc:	00060213 	andeq	r0, r6, r3, lsl r2
     5e0:	002e1000 	eoreq	r1, lr, r0
     5e4:	0e030c3f 	mcreq	12, 0, r0, cr3, cr15, {1}
     5e8:	0b3b0b3a 	bleq	ec32d8 <__bss_end+0xebfd88>
     5ec:	01110c27 	tsteq	r1, r7, lsr #24
     5f0:	0a400112 	beq	1000a40 <__bss_end+0xffd4f0>
     5f4:	34110000 	ldrcc	r0, [r1], #-0
     5f8:	02133100 	andseq	r3, r3, #0
     5fc:	1200000a 	andne	r0, r0, #10
     600:	0c3f012e 	ldfeqs	f0, [pc], #-184	; 550 <get_mem_status+0x34>
     604:	0b3a0e03 	bleq	e83e18 <__bss_end+0xe808c8>
     608:	0c270b3b 	stceq	11, cr0, [r7], #-236	; 0xffffff14
     60c:	01120111 	tsteq	r2, r1, lsl r1
     610:	13010a40 	movwne	r0, #6720	; 0x1a40
     614:	34130000 	ldrcc	r0, [r3], #-0
     618:	3a0e0300 	bcc	381220 <__bss_end+0x37dcd0>
     61c:	490b3b0b 	stmdbmi	fp, {r0, r1, r3, r8, r9, fp, ip, sp}
     620:	00060213 	andeq	r0, r6, r3, lsl r2
     624:	012e1400 	teqeq	lr, r0, lsl #8
     628:	0e030c3f 	mcreq	12, 0, r0, cr3, cr15, {1}
     62c:	0b3b0b3a 	bleq	ec331c <__bss_end+0xebfdcc>
     630:	01110c27 	tsteq	r1, r7, lsr #24
     634:	06400112 			; <UNDEFINED> instruction: 0x06400112
     638:	00001301 	andeq	r1, r0, r1, lsl #6
     63c:	03003415 	movweq	r3, #1045	; 0x415
     640:	3b0b3a08 	blcc	2cee68 <__bss_end+0x2cb918>
     644:	0213490b 	andseq	r4, r3, #180224	; 0x2c000
     648:	16000006 	strne	r0, [r0], -r6
     64c:	1331011d 	teqne	r1, #1073741831	; 0x40000007
     650:	01120111 	tsteq	r2, r1, lsl r1
     654:	0b590b58 	bleq	16433bc <__bss_end+0x163fe6c>
     658:	00001301 	andeq	r1, r0, r1, lsl #6
     65c:	11010b17 	tstne	r1, r7, lsl fp
     660:	00011201 	andeq	r1, r1, r1, lsl #4
     664:	011d1800 	tsteq	sp, r0, lsl #16
     668:	01111331 	tsteq	r1, r1, lsr r3
     66c:	0b580112 	bleq	1600abc <__bss_end+0x15fd56c>
     670:	00000b59 	andeq	r0, r0, r9, asr fp
     674:	03000519 	movweq	r0, #1305	; 0x519
     678:	3b0b3a08 	blcc	2ceea0 <__bss_end+0x2cb950>
     67c:	0213490b 	andseq	r4, r3, #180224	; 0x2c000
     680:	1a000006 	bne	6a0 <io_init_high+0xc>
     684:	0803000a 	stmdaeq	r3, {r1, r3}
     688:	0b3b0b3a 	bleq	ec3378 <__bss_end+0xebfe28>
     68c:	00000111 	andeq	r0, r0, r1, lsl r1
     690:	0300051b 	movweq	r0, #1307	; 0x51b
     694:	3b0b3a0e 	blcc	2ceed4 <__bss_end+0x2cb984>
     698:	0213490b 	andseq	r4, r3, #180224	; 0x2c000
     69c:	1c000006 	stcne	0, cr0, [r0], {6}
     6a0:	0e030005 	cdpeq	0, 0, cr0, cr3, cr5, {0}
     6a4:	0b3b0b3a 	bleq	ec3394 <__bss_end+0xebfe44>
     6a8:	0a021349 	beq	853d4 <__bss_end+0x81e84>
     6ac:	2e1d0000 	cdpcs	0, 1, cr0, cr13, cr0, {0}
     6b0:	030c3f01 	movweq	r3, #52993	; 0xcf01
     6b4:	3b0b3a0e 	blcc	2ceef4 <__bss_end+0x2cb9a4>
     6b8:	490c2705 	stmdbmi	ip, {r0, r2, r8, r9, sl, sp}
     6bc:	12011113 	andne	r1, r1, #-1073741820	; 0xc0000004
     6c0:	010a4001 	tsteq	sl, r1
     6c4:	1e000013 	mcrne	0, 0, r0, cr0, cr3, {0}
     6c8:	0e030005 	cdpeq	0, 0, cr0, cr3, cr5, {0}
     6cc:	053b0b3a 	ldreq	r0, [fp, #-2874]!	; 0xb3a
     6d0:	06021349 	streq	r1, [r2], -r9, asr #6
     6d4:	341f0000 	ldrcc	r0, [pc], #-0	; 6dc <io_high+0x18>
     6d8:	3a0e0300 	bcc	3812e0 <__bss_end+0x37dd90>
     6dc:	49053b0b 	stmdbmi	r5, {r0, r1, r3, r8, r9, fp, ip, sp}
     6e0:	00060213 	andeq	r0, r6, r3, lsl r2
     6e4:	011d2000 	tsteq	sp, r0
     6e8:	01111331 	tsteq	r1, r1, lsr r3
     6ec:	0b580112 	bleq	1600b3c <__bss_end+0x15fd5ec>
     6f0:	00000559 	andeq	r0, r0, r9, asr r5
     6f4:	03003421 	movweq	r3, #1057	; 0x421
     6f8:	3b0b3a0e 	blcc	2cef38 <__bss_end+0x2cb9e8>
     6fc:	0213490b 	andseq	r4, r3, #180224	; 0x2c000
     700:	0000000a 	andeq	r0, r0, sl
     704:	25011101 	strcs	r1, [r1, #-257]	; 0x101
     708:	030b130e 	movweq	r1, #45838	; 0xb30e
     70c:	110e1b0e 	tstne	lr, lr, lsl #22
     710:	10011201 	andne	r1, r1, r1, lsl #4
     714:	02000006 	andeq	r0, r0, #6
     718:	0b0b0024 	bleq	2c07b0 <__bss_end+0x2bd260>
     71c:	0e030b3e 	vmoveq.16	d3[0], r0
     720:	24030000 	strcs	r0, [r3], #-0
     724:	3e0b0b00 	vmlacc.f64	d0, d11, d0
     728:	0008030b 	andeq	r0, r8, fp, lsl #6
     72c:	00160400 	andseq	r0, r6, r0, lsl #8
     730:	0b3a0e03 	bleq	e83f44 <__bss_end+0xe809f4>
     734:	13490b3b 	movtne	r0, #39739	; 0x9b3b
     738:	13050000 	movwne	r0, #20480	; 0x5000
     73c:	0b0e0301 	bleq	381348 <__bss_end+0x37ddf8>
     740:	3b0b3a0b 	blcc	2cef74 <__bss_end+0x2cba24>
     744:	0013010b 	andseq	r0, r3, fp, lsl #2
     748:	000d0600 	andeq	r0, sp, r0, lsl #12
     74c:	0b3a0e03 	bleq	e83f60 <__bss_end+0xe80a10>
     750:	13490b3b 	movtne	r0, #39739	; 0x9b3b
     754:	00000a38 	andeq	r0, r0, r8, lsr sl
     758:	03000d07 	movweq	r0, #3335	; 0xd07
     75c:	3b0b3a08 	blcc	2cef84 <__bss_end+0x2cba34>
     760:	3813490b 	ldmdacc	r3, {r0, r1, r3, r8, fp, lr}
     764:	0800000a 	stmdaeq	r0, {r1, r3}
     768:	0c3f012e 	ldfeqs	f0, [pc], #-184	; 6b8 <io_init_low+0xc>
     76c:	0b3a0e03 	bleq	e83f80 <__bss_end+0xe80a30>
     770:	0c270b3b 	stceq	11, cr0, [r7], #-236	; 0xffffff14
     774:	01120111 	tsteq	r2, r1, lsl r1
     778:	13010a40 	movwne	r0, #6720	; 0x1a40
     77c:	05090000 	streq	r0, [r9, #-0]
     780:	3a0e0300 	bcc	381388 <__bss_end+0x37de38>
     784:	490b3b0b 	stmdbmi	fp, {r0, r1, r3, r8, r9, fp, ip, sp}
     788:	000a0213 	andeq	r0, sl, r3, lsl r2
     78c:	000f0a00 	andeq	r0, pc, r0, lsl #20
     790:	13490b0b 	movtne	r0, #39691	; 0x9b0b
     794:	2e0b0000 	cdpcs	0, 0, cr0, cr11, cr0, {0}
     798:	030c3f01 	movweq	r3, #52993	; 0xcf01
     79c:	3b0b3a0e 	blcc	2cefdc <__bss_end+0x2cba8c>
     7a0:	110c270b 	tstne	ip, fp, lsl #14
     7a4:	40011201 	andmi	r1, r1, r1, lsl #4
     7a8:	0000000a 	andeq	r0, r0, sl
     7ac:	10001101 	andne	r1, r0, r1, lsl #2
     7b0:	12011106 	andne	r1, r1, #-2147483647	; 0x80000001
     7b4:	1b080301 	blne	2013c0 <__bss_end+0x1fde70>
     7b8:	13082508 	movwne	r2, #34056	; 0x8508
     7bc:	00000005 	andeq	r0, r0, r5
     7c0:	25011101 	strcs	r1, [r1, #-257]	; 0x101
     7c4:	030b130e 	movweq	r1, #45838	; 0xb30e
     7c8:	110e1b0e 	tstne	lr, lr, lsl #22
     7cc:	10011201 	andne	r1, r1, r1, lsl #4
     7d0:	02000006 	andeq	r0, r0, #6
     7d4:	0b0b0024 	bleq	2c086c <__bss_end+0x2bd31c>
     7d8:	0e030b3e 	vmoveq.16	d3[0], r0
     7dc:	24030000 	strcs	r0, [r3], #-0
     7e0:	3e0b0b00 	vmlacc.f64	d0, d11, d0
     7e4:	0008030b 	andeq	r0, r8, fp, lsl #6
     7e8:	00160400 	andseq	r0, r6, r0, lsl #8
     7ec:	0b3a0e03 	bleq	e84000 <__bss_end+0xe80ab0>
     7f0:	13490b3b 	movtne	r0, #39739	; 0x9b3b
     7f4:	13050000 	movwne	r0, #20480	; 0x5000
     7f8:	0b0e0301 	bleq	381404 <__bss_end+0x37deb4>
     7fc:	3b0b3a0b 	blcc	2cf030 <__bss_end+0x2cbae0>
     800:	0013010b 	andseq	r0, r3, fp, lsl #2
     804:	000d0600 	andeq	r0, sp, r0, lsl #12
     808:	0b3a0e03 	bleq	e8401c <__bss_end+0xe80acc>
     80c:	13490b3b 	movtne	r0, #39739	; 0x9b3b
     810:	00000a38 	andeq	r0, r0, r8, lsr sl
     814:	03000d07 	movweq	r0, #3335	; 0xd07
     818:	3b0b3a08 	blcc	2cf040 <__bss_end+0x2cbaf0>
     81c:	3813490b 	ldmdacc	r3, {r0, r1, r3, r8, fp, lr}
     820:	0800000a 	stmdaeq	r0, {r1, r3}
     824:	0e030104 	adfeqs	f0, f3, f4
     828:	0b3a0b0b 	bleq	e8345c <__bss_end+0xe7ff0c>
     82c:	13010b3b 	movwne	r0, #6971	; 0x1b3b
     830:	28090000 	stmdacs	r9, {}	; <UNPREDICTABLE>
     834:	1c0e0300 	stcne	3, cr0, [lr], {-0}
     838:	0a00000d 	beq	874 <init_event_counter>
     83c:	0c3f012e 	ldfeqs	f0, [pc], #-184	; 78c <change_runtime_env+0x8>
     840:	0b3a0e03 	bleq	e84054 <__bss_end+0xe80b04>
     844:	0c270b3b 	stceq	11, cr0, [r7], #-236	; 0xffffff14
     848:	01120111 	tsteq	r2, r1, lsl r1
     84c:	13010a40 	movwne	r0, #6720	; 0x1a40
     850:	050b0000 	streq	r0, [fp, #-0]
     854:	3a0e0300 	bcc	38145c <__bss_end+0x37df0c>
     858:	490b3b0b 	stmdbmi	fp, {r0, r1, r3, r8, r9, fp, ip, sp}
     85c:	000a0213 	andeq	r0, sl, r3, lsl r2
     860:	000f0c00 	andeq	r0, pc, r0, lsl #24
     864:	13490b0b 	movtne	r0, #39691	; 0x9b0b
     868:	2e0d0000 	cdpcs	0, 0, cr0, cr13, cr0, {0}
     86c:	030c3f01 	movweq	r3, #52993	; 0xcf01
     870:	3b0b3a0e 	blcc	2cf0b0 <__bss_end+0x2cbb60>
     874:	110c2705 	tstne	ip, r5, lsl #14
     878:	40011201 	andmi	r1, r1, r1, lsl #4
     87c:	0013010a 	andseq	r0, r3, sl, lsl #2
     880:	00050e00 	andeq	r0, r5, r0, lsl #28
     884:	0b3a0e03 	bleq	e84098 <__bss_end+0xe80b48>
     888:	1349053b 	movtne	r0, #38203	; 0x953b
     88c:	00000a02 	andeq	r0, r0, r2, lsl #20
     890:	0300340f 	movweq	r3, #1039	; 0x40f
     894:	3b0b3a08 	blcc	2cf0bc <__bss_end+0x2cbb6c>
     898:	02134905 	andseq	r4, r3, #81920	; 0x14000
     89c:	10000006 	andne	r0, r0, r6
     8a0:	0e030034 	mcreq	0, 0, r0, cr3, cr4, {1}
     8a4:	053b0b3a 	ldreq	r0, [fp, #-2874]!	; 0xb3a
     8a8:	00001349 	andeq	r1, r0, r9, asr #6
     8ac:	3f002e11 	svccc	0x00002e11
     8b0:	3a0e030c 	bcc	3814e8 <__bss_end+0x37df98>
     8b4:	27053b0b 	strcs	r3, [r5, -fp, lsl #22]
     8b8:	1201110c 	andne	r1, r1, #3
     8bc:	000a4001 	andeq	r4, sl, r1
     8c0:	00341200 	eorseq	r1, r4, r0, lsl #4
     8c4:	0b3a0e03 	bleq	e840d8 <__bss_end+0xe80b88>
     8c8:	13490b3b 	movtne	r0, #39739	; 0x9b3b
     8cc:	00000a02 	andeq	r0, r0, r2, lsl #20
     8d0:	03003413 	movweq	r3, #1043	; 0x413
     8d4:	3b0b3a0e 	blcc	2cf114 <__bss_end+0x2cbbc4>
     8d8:	0013490b 	andseq	r4, r3, fp, lsl #18
     8dc:	00261400 	eoreq	r1, r6, r0, lsl #8
     8e0:	00001349 	andeq	r1, r0, r9, asr #6
     8e4:	49010115 	stmdbmi	r1, {r0, r2, r4, r8}
     8e8:	00130113 	andseq	r0, r3, r3, lsl r1
     8ec:	00211600 	eoreq	r1, r1, r0, lsl #12
     8f0:	0b2f1349 	bleq	bc561c <__bss_end+0xbc20cc>
     8f4:	34170000 	ldrcc	r0, [r7], #-0
     8f8:	3a0e0300 	bcc	381500 <__bss_end+0x37dfb0>
     8fc:	490b3b0b 	stmdbmi	fp, {r0, r1, r3, r8, r9, fp, ip, sp}
     900:	020c3f13 	andeq	r3, ip, #76	; 0x4c
     904:	0000000a 	andeq	r0, r0, sl
     908:	25011101 	strcs	r1, [r1, #-257]	; 0x101
     90c:	030b130e 	movweq	r1, #45838	; 0xb30e
     910:	110e1b0e 	tstne	lr, lr, lsl #22
     914:	10011201 	andne	r1, r1, r1, lsl #4
     918:	02000006 	andeq	r0, r0, #6
     91c:	0b0b0024 	bleq	2c09b4 <__bss_end+0x2bd464>
     920:	0e030b3e 	vmoveq.16	d3[0], r0
     924:	16030000 	strne	r0, [r3], -r0
     928:	3a0e0300 	bcc	381530 <__bss_end+0x37dfe0>
     92c:	490b3b0b 	stmdbmi	fp, {r0, r1, r3, r8, r9, fp, ip, sp}
     930:	04000013 	streq	r0, [r0], #-19
     934:	0b0b0024 	bleq	2c09cc <__bss_end+0x2bd47c>
     938:	08030b3e 	stmdaeq	r3, {r1, r2, r3, r4, r5, r8, r9, fp}
     93c:	13050000 	movwne	r0, #20480	; 0x5000
     940:	3a0b0b01 	bcc	2c354c <__bss_end+0x2bfffc>
     944:	010b3b0b 	tsteq	fp, fp, lsl #22
     948:	06000013 			; <UNDEFINED> instruction: 0x06000013
     94c:	0e03000d 	cdpeq	0, 0, cr0, cr3, cr13, {0}
     950:	0b3b0b3a 	bleq	ec3640 <__bss_end+0xec00f0>
     954:	0b0b1349 	bleq	2c5680 <__bss_end+0x2c2130>
     958:	0b0c0b0d 	bleq	303594 <__bss_end+0x300044>
     95c:	00000a38 	andeq	r0, r0, r8, lsr sl
     960:	0b011707 	bleq	46584 <__bss_end+0x43034>
     964:	3b0b3a0b 	blcc	2cf198 <__bss_end+0x2cbc48>
     968:	0013010b 	andseq	r0, r3, fp, lsl #2
     96c:	000d0800 	andeq	r0, sp, r0, lsl #16
     970:	0b3a0e03 	bleq	e84184 <__bss_end+0xe80c34>
     974:	13490b3b 	movtne	r0, #39739	; 0x9b3b
     978:	13090000 	movwne	r0, #36864	; 0x9000
     97c:	0b0e0301 	bleq	381588 <__bss_end+0x37e038>
     980:	3b0b3a0b 	blcc	2cf1b4 <__bss_end+0x2cbc64>
     984:	0013010b 	andseq	r0, r3, fp, lsl #2
     988:	01130a00 	tsteq	r3, r0, lsl #20
     98c:	050b0e03 	streq	r0, [fp, #-3587]	; 0xe03
     990:	0b3b0b3a 	bleq	ec3680 <__bss_end+0xec0130>
     994:	00001301 	andeq	r1, r0, r1, lsl #6
     998:	03000d0b 	movweq	r0, #3339	; 0xd0b
     99c:	3b0b3a0e 	blcc	2cf1dc <__bss_end+0x2cbc8c>
     9a0:	3813490b 	ldmdacc	r3, {r0, r1, r3, r8, fp, lr}
     9a4:	0c00000a 	stceq	0, cr0, [r0], {10}
     9a8:	0803000d 	stmdaeq	r3, {r0, r2, r3}
     9ac:	0b3b0b3a 	bleq	ec369c <__bss_end+0xec014c>
     9b0:	0a381349 	beq	e056dc <__bss_end+0xe0218c>
     9b4:	350d0000 	strcc	r0, [sp, #-0]
     9b8:	00134900 	andseq	r4, r3, r0, lsl #18
     9bc:	01010e00 	tsteq	r1, r0, lsl #28
     9c0:	13011349 	movwne	r1, #4937	; 0x1349
     9c4:	210f0000 	mrscs	r0, CPSR
     9c8:	2f134900 	svccs	0x00134900
     9cc:	1000000b 	andne	r0, r0, fp
     9d0:	0b0b000f 	bleq	2c0a14 <__bss_end+0x2bd4c4>
     9d4:	00001349 	andeq	r1, r0, r9, asr #6
     9d8:	03010411 	movweq	r0, #5137	; 0x1411
     9dc:	3a0b0b0e 	bcc	2c361c <__bss_end+0x2c00cc>
     9e0:	010b3b0b 	tsteq	fp, fp, lsl #22
     9e4:	12000013 	andne	r0, r0, #19
     9e8:	0e030028 	cdpeq	0, 0, cr0, cr3, cr8, {1}
     9ec:	00000d1c 	andeq	r0, r0, ip, lsl sp
     9f0:	03012e13 	movweq	r2, #7699	; 0x1e13
     9f4:	3b0b3a0e 	blcc	2cf234 <__bss_end+0x2cbce4>
     9f8:	490c270b 	stmdbmi	ip, {r0, r1, r3, r8, r9, sl, sp}
     9fc:	010b2013 	tsteq	fp, r3, lsl r0
     a00:	14000013 	strne	r0, [r0], #-19
     a04:	0e030005 	cdpeq	0, 0, cr0, cr3, cr5, {0}
     a08:	0b3b0b3a 	bleq	ec36f8 <__bss_end+0xec01a8>
     a0c:	00001349 	andeq	r1, r0, r9, asr #6
     a10:	03003415 	movweq	r3, #1045	; 0x415
     a14:	3b0b3a0e 	blcc	2cf254 <__bss_end+0x2cbd04>
     a18:	0013490b 	andseq	r4, r3, fp, lsl #18
     a1c:	00341600 	eorseq	r1, r4, r0, lsl #12
     a20:	0b3a0803 	bleq	e82a34 <__bss_end+0xe7f4e4>
     a24:	13490b3b 	movtne	r0, #39739	; 0x9b3b
     a28:	2e170000 	cdpcs	0, 1, cr0, cr7, cr0, {0}
     a2c:	3a0e0301 	bcc	381638 <__bss_end+0x37e0e8>
     a30:	27053b0b 	strcs	r3, [r5, -fp, lsl #22]
     a34:	010b200c 	tsteq	fp, ip
     a38:	18000013 	stmdane	r0, {r0, r1, r4}
     a3c:	08030005 	stmdaeq	r3, {r0, r2}
     a40:	053b0b3a 	ldreq	r0, [fp, #-2874]!	; 0xb3a
     a44:	00001349 	andeq	r1, r0, r9, asr #6
     a48:	03012e19 	movweq	r2, #7705	; 0x1e19
     a4c:	3b0b3a0e 	blcc	2cf28c <__bss_end+0x2cbd3c>
     a50:	490c2705 	stmdbmi	ip, {r0, r2, r8, r9, sl, sp}
     a54:	010b2013 	tsteq	fp, r3, lsl r0
     a58:	1a000013 	bne	aac <loop1+0x4>
     a5c:	0e030034 	mcreq	0, 0, r0, cr3, cr4, {1}
     a60:	053b0b3a 	ldreq	r0, [fp, #-2874]!	; 0xb3a
     a64:	00001349 	andeq	r1, r0, r9, asr #6
     a68:	3f002e1b 	svccc	0x00002e1b
     a6c:	3a0e030c 	bcc	3816a4 <__bss_end+0x37e154>
     a70:	27053b0b 	strcs	r3, [r5, -fp, lsl #22]
     a74:	000b200c 	andeq	r2, fp, ip
     a78:	012e1c00 	teqeq	lr, r0, lsl #24
     a7c:	0b3a0e03 	bleq	e84290 <__bss_end+0xe80d40>
     a80:	0c270b3b 	stceq	11, cr0, [r7], #-236	; 0xffffff14
     a84:	01120111 	tsteq	r2, r1, lsl r1
     a88:	13010640 	movwne	r0, #5696	; 0x1640
     a8c:	051d0000 	ldreq	r0, [sp, #-0]
     a90:	3a0e0300 	bcc	381698 <__bss_end+0x37e148>
     a94:	490b3b0b 	stmdbmi	fp, {r0, r1, r3, r8, r9, fp, ip, sp}
     a98:	00060213 	andeq	r0, r6, r3, lsl r2
     a9c:	00341e00 	eorseq	r1, r4, r0, lsl #28
     aa0:	0b3a0803 	bleq	e82ab4 <__bss_end+0xe7f564>
     aa4:	13490b3b 	movtne	r0, #39739	; 0x9b3b
     aa8:	00000b1c 	andeq	r0, r0, ip, lsl fp
     aac:	0300341f 	movweq	r3, #1055	; 0x41f
     ab0:	3b0b3a08 	blcc	2cf2d8 <__bss_end+0x2cbd88>
     ab4:	0213490b 	andseq	r4, r3, #180224	; 0x2c000
     ab8:	20000006 	andcs	r0, r0, r6
     abc:	0e030034 	mcreq	0, 0, r0, cr3, cr4, {1}
     ac0:	0b3b0b3a 	bleq	ec37b0 <__bss_end+0xec0260>
     ac4:	06021349 	streq	r1, [r2], -r9, asr #6
     ac8:	2e210000 	cdpcs	0, 2, cr0, cr1, cr0, {0}
     acc:	11133101 	tstne	r3, r1, lsl #2
     ad0:	40011201 	andmi	r1, r1, r1, lsl #4
     ad4:	00130106 	andseq	r0, r3, r6, lsl #2
     ad8:	00052200 	andeq	r2, r5, r0, lsl #4
     adc:	06021331 			; <UNDEFINED> instruction: 0x06021331
     ae0:	34230000 	strtcc	r0, [r3], #-0
     ae4:	02133100 	andseq	r3, r3, #0
     ae8:	24000006 	strcs	r0, [r0], #-6
     aec:	13310034 	teqne	r1, #52	; 0x34
     af0:	00000b1c 	andeq	r0, r0, ip, lsl fp
     af4:	31011d25 	tstcc	r1, r5, lsr #26
     af8:	55015213 	strpl	r5, [r1, #-531]	; 0x213
     afc:	590b5806 	stmdbpl	fp, {r1, r2, fp, ip, lr}
     b00:	2600000b 	strcs	r0, [r0], -fp
     b04:	0655010b 	ldrbeq	r0, [r5], -fp, lsl #2
     b08:	34270000 	strtcc	r0, [r7], #-0
     b0c:	00133100 	andseq	r3, r3, r0, lsl #2
     b10:	00342800 	eorseq	r2, r4, r0, lsl #16
     b14:	0d1c1331 	ldceq	3, cr1, [ip, #-196]	; 0xffffff3c
     b18:	05290000 	streq	r0, [r9, #-0]!
     b1c:	00133100 	andseq	r3, r3, r0, lsl #2
     b20:	012e2a00 	teqeq	lr, r0, lsl #20
     b24:	0e030c3f 	mcreq	12, 0, r0, cr3, cr15, {1}
     b28:	053b0b3a 	ldreq	r0, [fp, #-2874]!	; 0xb3a
     b2c:	01110c27 	tsteq	r1, r7, lsr #24
     b30:	0a400112 	beq	1000f80 <__bss_end+0xffda30>
     b34:	00001301 	andeq	r1, r0, r1, lsl #6
     b38:	31001d2b 	tstcc	r0, fp, lsr #26
     b3c:	12011113 	andne	r1, r1, #-1073741820	; 0xc0000004
     b40:	590b5801 	stmdbpl	fp, {r0, fp, ip, lr}
     b44:	2c000005 	stccs	0, cr0, [r0], {5}
     b48:	0c3f012e 	ldfeqs	f0, [pc], #-184	; a98 <flush_dcache+0xc>
     b4c:	0b3a0e03 	bleq	e84360 <__bss_end+0xe80e10>
     b50:	0c27053b 	cfstr32eq	mvfx0, [r7], #-236	; 0xffffff14
     b54:	01120111 	tsteq	r2, r1, lsl r1
     b58:	13010640 	movwne	r0, #5696	; 0x1640
     b5c:	052d0000 	streq	r0, [sp, #-0]!
     b60:	3a0e0300 	bcc	381768 <__bss_end+0x37e218>
     b64:	49053b0b 	stmdbmi	r5, {r0, r1, r3, r8, r9, fp, ip, sp}
     b68:	00060213 	andeq	r0, r6, r3, lsl r2
     b6c:	00342e00 	eorseq	r2, r4, r0, lsl #28
     b70:	0b3a0803 	bleq	e82b84 <__bss_end+0xe7f634>
     b74:	1349053b 	movtne	r0, #38203	; 0x953b
     b78:	00000602 	andeq	r0, r0, r2, lsl #12
     b7c:	0300342f 	movweq	r3, #1071	; 0x42f
     b80:	3b0b3a0e 	blcc	2cf3c0 <__bss_end+0x2cbe70>
     b84:	02134905 	andseq	r4, r3, #81920	; 0x14000
     b88:	30000006 	andcc	r0, r0, r6
     b8c:	1331001d 	teqne	r1, #29
     b90:	06550152 			; <UNDEFINED> instruction: 0x06550152
     b94:	05590b58 	ldrbeq	r0, [r9, #-2904]	; 0xb58
     b98:	2e310000 	cdpcs	0, 3, cr0, cr1, cr0, {0}
     b9c:	030c3f01 	movweq	r3, #52993	; 0xcf01
     ba0:	3b0b3a0e 	blcc	2cf3e0 <__bss_end+0x2cbe90>
     ba4:	490c2705 	stmdbmi	ip, {r0, r2, r8, r9, sl, sp}
     ba8:	12011113 	andne	r1, r1, #-1073741820	; 0xc0000004
     bac:	01064001 	tsteq	r6, r1
     bb0:	32000013 	andcc	r0, r0, #19
     bb4:	1331011d 	teqne	r1, #1073741831	; 0x40000007
     bb8:	06550152 			; <UNDEFINED> instruction: 0x06550152
     bbc:	05590b58 	ldrbeq	r0, [r9, #-2904]	; 0xb58
     bc0:	00001301 	andeq	r1, r0, r1, lsl #6
     bc4:	31011d33 	tstcc	r1, r3, lsr sp
     bc8:	12011113 	andne	r1, r1, #-1073741820	; 0xc0000004
     bcc:	590b5801 	stmdbpl	fp, {r0, fp, ip, lr}
     bd0:	34000005 	strcc	r0, [r0], #-5
     bd4:	13490026 	movtne	r0, #36902	; 0x9026
     bd8:	05350000 	ldreq	r0, [r5, #-0]!
     bdc:	3a080300 	bcc	2017e4 <__bss_end+0x1fe294>
     be0:	49053b0b 	stmdbmi	r5, {r0, r1, r3, r8, r9, fp, ip, sp}
     be4:	00060213 	andeq	r0, r6, r3, lsl r2
     be8:	00053600 	andeq	r3, r5, r0, lsl #12
     bec:	0b3a0803 	bleq	e82c00 <__bss_end+0xe7f6b0>
     bf0:	1349053b 	movtne	r0, #38203	; 0x953b
     bf4:	00000a02 	andeq	r0, r0, r2, lsl #20
     bf8:	31011d37 	tstcc	r1, r7, lsr sp
     bfc:	55015213 	strpl	r5, [r1, #-531]	; 0x213
     c00:	590b5806 	stmdbpl	fp, {r1, r2, fp, ip, lr}
     c04:	38000005 	stmdacc	r0, {r0, r2}
     c08:	1331002e 	teqne	r1, #46	; 0x2e
     c0c:	01120111 	tsteq	r2, r1, lsl r1
     c10:	00000a40 	andeq	r0, r0, r0, asr #20
     c14:	03003439 	movweq	r3, #1081	; 0x439
     c18:	3b0b3a0e 	blcc	2cf458 <__bss_end+0x2cbf08>
     c1c:	0213490b 	andseq	r4, r3, #180224	; 0x2c000
     c20:	0000000a 	andeq	r0, r0, sl
     c24:	25011101 	strcs	r1, [r1, #-257]	; 0x101
     c28:	030b130e 	movweq	r1, #45838	; 0xb30e
     c2c:	110e1b0e 	tstne	lr, lr, lsl #22
     c30:	10011201 	andne	r1, r1, r1, lsl #4
     c34:	02000006 	andeq	r0, r0, #6
     c38:	0b0b0024 	bleq	2c0cd0 <__bss_end+0x2bd780>
     c3c:	0e030b3e 	vmoveq.16	d3[0], r0
     c40:	16030000 	strne	r0, [r3], -r0
     c44:	3a0e0300 	bcc	38184c <__bss_end+0x37e2fc>
     c48:	490b3b0b 	stmdbmi	fp, {r0, r1, r3, r8, r9, fp, ip, sp}
     c4c:	04000013 	streq	r0, [r0], #-19
     c50:	0b0b0024 	bleq	2c0ce8 <__bss_end+0x2bd798>
     c54:	08030b3e 	stmdaeq	r3, {r1, r2, r3, r4, r5, r8, r9, fp}
     c58:	04050000 	streq	r0, [r5], #-0
     c5c:	0b0e0301 	bleq	381868 <__bss_end+0x37e318>
     c60:	3b0b3a0b 	blcc	2cf494 <__bss_end+0x2cbf44>
     c64:	0013010b 	andseq	r0, r3, fp, lsl #2
     c68:	00280600 	eoreq	r0, r8, r0, lsl #12
     c6c:	0d1c0e03 	ldceq	14, cr0, [ip, #-12]
     c70:	0f070000 	svceq	0x00070000
     c74:	000b0b00 	andeq	r0, fp, r0, lsl #22
     c78:	01130800 	tsteq	r3, r0, lsl #16
     c7c:	0b0b0e03 	bleq	2c4490 <__bss_end+0x2c0f40>
     c80:	0b3b0b3a 	bleq	ec3970 <__bss_end+0xec0420>
     c84:	00001301 	andeq	r1, r0, r1, lsl #6
     c88:	03000d09 	movweq	r0, #3337	; 0xd09
     c8c:	3813490e 	ldmdacc	r3, {r1, r2, r3, r8, fp, lr}
     c90:	000c340a 	andeq	r3, ip, sl, lsl #8
     c94:	012e0a00 	teqeq	lr, r0, lsl #20
     c98:	0b3a0e03 	bleq	e844ac <__bss_end+0xe80f5c>
     c9c:	0c270b3b 	stceq	11, cr0, [r7], #-236	; 0xffffff14
     ca0:	0b201349 	bleq	8059cc <__bss_end+0x80247c>
     ca4:	00001301 	andeq	r1, r0, r1, lsl #6
     ca8:	0300050b 	movweq	r0, #1291	; 0x50b
     cac:	3b0b3a0e 	blcc	2cf4ec <__bss_end+0x2cbf9c>
     cb0:	0013490b 	andseq	r4, r3, fp, lsl #18
     cb4:	00050c00 	andeq	r0, r5, r0, lsl #24
     cb8:	0b3a0803 	bleq	e82ccc <__bss_end+0xe7f77c>
     cbc:	13490b3b 	movtne	r0, #39739	; 0x9b3b
     cc0:	340d0000 	strcc	r0, [sp], #-0
     cc4:	3a080300 	bcc	2018cc <__bss_end+0x1fe37c>
     cc8:	490b3b0b 	stmdbmi	fp, {r0, r1, r3, r8, r9, fp, ip, sp}
     ccc:	0e000013 	mcreq	0, 0, r0, cr0, cr3, {0}
     cd0:	0b0b000f 	bleq	2c0d14 <__bss_end+0x2bd7c4>
     cd4:	00001349 	andeq	r1, r0, r9, asr #6
     cd8:	4900260f 	stmdbmi	r0, {r0, r1, r2, r3, r9, sl, sp}
     cdc:	10000013 	andne	r0, r0, r3, lsl r0
     ce0:	0e030034 	mcreq	0, 0, r0, cr3, cr4, {1}
     ce4:	0b3b0b3a 	bleq	ec39d4 <__bss_end+0xec0484>
     ce8:	00001349 	andeq	r1, r0, r9, asr #6
     cec:	49010111 	stmdbmi	r1, {r0, r4, r8}
     cf0:	00130113 	andseq	r0, r3, r3, lsl r1
     cf4:	00211200 	eoreq	r1, r1, r0, lsl #4
     cf8:	0b2f1349 	bleq	bc5a24 <__bss_end+0xbc24d4>
     cfc:	2e130000 	cdpcs	0, 1, cr0, cr3, cr0, {0}
     d00:	3a0e0301 	bcc	38190c <__bss_end+0x37e3bc>
     d04:	270b3b0b 	strcs	r3, [fp, -fp, lsl #22]
     d08:	1113490c 	tstne	r3, ip, lsl #18
     d0c:	40011201 	andmi	r1, r1, r1, lsl #4
     d10:	00130106 	andseq	r0, r3, r6, lsl #2
     d14:	00051400 	andeq	r1, r5, r0, lsl #8
     d18:	0b3a0e03 	bleq	e8452c <__bss_end+0xe80fdc>
     d1c:	13490b3b 	movtne	r0, #39739	; 0x9b3b
     d20:	00000602 	andeq	r0, r0, r2, lsl #12
     d24:	03003415 	movweq	r3, #1045	; 0x415
     d28:	3b0b3a0e 	blcc	2cf568 <__bss_end+0x2cc018>
     d2c:	0213490b 	andseq	r4, r3, #180224	; 0x2c000
     d30:	1600000a 	strne	r0, [r0], -sl
     d34:	08030034 	stmdaeq	r3, {r2, r4, r5}
     d38:	0b3b0b3a 	bleq	ec3a28 <__bss_end+0xec04d8>
     d3c:	06021349 	streq	r1, [r2], -r9, asr #6
     d40:	2e170000 	cdpcs	0, 1, cr0, cr7, cr0, {0}
     d44:	3a0e0301 	bcc	381950 <__bss_end+0x37e400>
     d48:	27053b0b 	strcs	r3, [r5, -fp, lsl #22]
     d4c:	1113490c 	tstne	r3, ip, lsl #18
     d50:	40011201 	andmi	r1, r1, r1, lsl #4
     d54:	00130106 	andseq	r0, r3, r6, lsl #2
     d58:	00051800 	andeq	r1, r5, r0, lsl #16
     d5c:	0b3a0e03 	bleq	e84570 <__bss_end+0xe81020>
     d60:	1349053b 	movtne	r0, #38203	; 0x953b
     d64:	00000602 	andeq	r0, r0, r2, lsl #12
     d68:	03000519 	movweq	r0, #1305	; 0x519
     d6c:	3b0b3a08 	blcc	2cf594 <__bss_end+0x2cc044>
     d70:	02134905 	andseq	r4, r3, #81920	; 0x14000
     d74:	1a000006 	bne	d94 <disable_mmu+0x18>
     d78:	0e030034 	mcreq	0, 0, r0, cr3, cr4, {1}
     d7c:	053b0b3a 	ldreq	r0, [fp, #-2874]!	; 0xb3a
     d80:	0a021349 	beq	85aac <__bss_end+0x8255c>
     d84:	1d1b0000 	ldcne	0, cr0, [fp, #-0]
     d88:	52133101 	andspl	r3, r3, #1073741824	; 0x40000000
     d8c:	58065501 	stmdapl	r6, {r0, r8, sl, ip, lr}
     d90:	0005590b 	andeq	r5, r5, fp, lsl #18
     d94:	00051c00 	andeq	r1, r5, r0, lsl #24
     d98:	06021331 			; <UNDEFINED> instruction: 0x06021331
     d9c:	0b1d0000 	bleq	740da4 <__bss_end+0x73d854>
     da0:	00065501 	andeq	r5, r6, r1, lsl #10
     da4:	00341e00 	eorseq	r1, r4, r0, lsl #28
     da8:	06021331 			; <UNDEFINED> instruction: 0x06021331
     dac:	2e1f0000 	cdpcs	0, 1, cr0, cr15, cr0, {0}
     db0:	11133101 	tstne	r3, r1, lsl #2
     db4:	40011201 	andmi	r1, r1, r1, lsl #4
     db8:	00130106 	andseq	r0, r3, r6, lsl #2
     dbc:	00342000 	eorseq	r2, r4, r0
     dc0:	0a021331 	beq	85a8c <__bss_end+0x8253c>
     dc4:	05210000 	streq	r0, [r1, #-0]!
     dc8:	1c133100 	ldfnes	f3, [r3], {-0}
     dcc:	2200000b 	andcs	r0, r0, #11
     dd0:	0c3f012e 	ldfeqs	f0, [pc], #-184	; d20 <mem_preload_tlb+0xb0>
     dd4:	0b3a0e03 	bleq	e845e8 <__bss_end+0xe81098>
     dd8:	0c27053b 	cfstr32eq	mvfx0, [r7], #-236	; 0xffffff14
     ddc:	01111349 	tsteq	r1, r9, asr #6
     de0:	06400112 			; <UNDEFINED> instruction: 0x06400112
     de4:	00001301 	andeq	r1, r0, r1, lsl #6
     de8:	00001823 	andeq	r1, r0, r3, lsr #16
     dec:	00342400 	eorseq	r2, r4, r0, lsl #8
     df0:	0b3a0e03 	bleq	e84604 <__bss_end+0xe810b4>
     df4:	1349053b 	movtne	r0, #38203	; 0x953b
     df8:	00000602 	andeq	r0, r0, r2, lsl #12
     dfc:	03003425 	movweq	r3, #1061	; 0x425
     e00:	3b0b3a08 	blcc	2cf628 <__bss_end+0x2cc0d8>
     e04:	02134905 	andseq	r4, r3, #81920	; 0x14000
     e08:	26000006 	strcs	r0, [r0], -r6
     e0c:	1331011d 	teqne	r1, #1073741831	; 0x40000007
     e10:	01120111 	tsteq	r2, r1, lsl r1
     e14:	05590b58 	ldrbeq	r0, [r9, #-2904]	; 0xb58
     e18:	00001301 	andeq	r1, r0, r1, lsl #6
     e1c:	11010b27 	tstne	r1, r7, lsr #22
     e20:	00011201 	andeq	r1, r1, r1, lsl #4
     e24:	00052800 	andeq	r2, r5, r0, lsl #16
     e28:	00001331 	andeq	r1, r0, r1, lsr r3
     e2c:	31000529 	tstcc	r0, r9, lsr #10
     e30:	000a0213 	andeq	r0, sl, r3, lsl r2
     e34:	011d2a00 	tsteq	sp, r0, lsl #20
     e38:	01111331 	tsteq	r1, r1, lsr r3
     e3c:	0b580112 	bleq	160128c <__bss_end+0x15fdd3c>
     e40:	00000559 	andeq	r0, r0, r9, asr r5
     e44:	00110100 	andseq	r0, r1, r0, lsl #2
     e48:	01110610 	tsteq	r1, r0, lsl r6
     e4c:	08030112 	stmdaeq	r3, {r1, r4, r8}
     e50:	0825081b 	stmdaeq	r5!, {r0, r1, r3, r4, fp}
     e54:	00000513 	andeq	r0, r0, r3, lsl r5
     e58:	01110100 	tsteq	r1, r0, lsl #2
     e5c:	0b130e25 	bleq	4c46f8 <__bss_end+0x4c11a8>
     e60:	0e1b0e03 	cdpeq	14, 1, cr0, cr11, cr3, {0}
     e64:	01120111 	tsteq	r2, r1, lsl r1
     e68:	00000610 	andeq	r0, r0, r0, lsl r6
     e6c:	0b002402 	bleq	9e7c <__bss_end+0x692c>
     e70:	030b3e0b 	movweq	r3, #48651	; 0xbe0b
     e74:	0300000e 	movweq	r0, #14
     e78:	0e030016 	mcreq	0, 0, r0, cr3, cr6, {0}
     e7c:	0b3b0b3a 	bleq	ec3b6c <__bss_end+0xec061c>
     e80:	00001349 	andeq	r1, r0, r9, asr #6
     e84:	0b002404 	bleq	9e9c <__bss_end+0x694c>
     e88:	030b3e0b 	movweq	r3, #48651	; 0xbe0b
     e8c:	05000008 	streq	r0, [r0, #-8]
     e90:	0c3f002e 	ldceq	0, cr0, [pc], #-184	; de0 <__turn_mmu_on>
     e94:	0b3a0e03 	bleq	e846a8 <__bss_end+0xe81158>
     e98:	0c270b3b 	stceq	11, cr0, [r7], #-236	; 0xffffff14
     e9c:	01120111 	tsteq	r2, r1, lsl r1
     ea0:	00000a40 	andeq	r0, r0, r0, asr #20
     ea4:	3f012e06 	svccc	0x00012e06
     ea8:	3a0e030c 	bcc	381ae0 <__bss_end+0x37e590>
     eac:	270b3b0b 	strcs	r3, [fp, -fp, lsl #22]
     eb0:	1113490c 	tstne	r3, ip, lsl #18
     eb4:	40011201 	andmi	r1, r1, r1, lsl #4
     eb8:	0700000a 	streq	r0, [r0, -sl]
     ebc:	0e030005 	cdpeq	0, 0, cr0, cr3, cr5, {0}
     ec0:	0b3b0b3a 	bleq	ec3bb0 <__bss_end+0xec0660>
     ec4:	06021349 	streq	r1, [r2], -r9, asr #6
     ec8:	34080000 	strcc	r0, [r8], #-0
     ecc:	3a0e0300 	bcc	381ad4 <__bss_end+0x37e584>
     ed0:	490b3b0b 	stmdbmi	fp, {r0, r1, r3, r8, r9, fp, ip, sp}
     ed4:	00060213 	andeq	r0, r6, r3, lsl r2
     ed8:	11010000 	mrsne	r0, (UNDEF: 1)
     edc:	130e2501 	movwne	r2, #58625	; 0xe501
     ee0:	1b0e030b 	blne	381b14 <__bss_end+0x37e5c4>
     ee4:	1201110e 	andne	r1, r1, #-2147483645	; 0x80000003
     ee8:	00061001 	andeq	r1, r6, r1
     eec:	00240200 	eoreq	r0, r4, r0, lsl #4
     ef0:	0b3e0b0b 	bleq	f83b24 <__bss_end+0xf805d4>
     ef4:	00000e03 	andeq	r0, r0, r3, lsl #28
     ef8:	03001603 	movweq	r1, #1539	; 0x603
     efc:	3b0b3a0e 	blcc	2cf73c <__bss_end+0x2cc1ec>
     f00:	0013490b 	andseq	r4, r3, fp, lsl #18
     f04:	00240400 	eoreq	r0, r4, r0, lsl #8
     f08:	0b3e0b0b 	bleq	f83b3c <__bss_end+0xf805ec>
     f0c:	00000803 	andeq	r0, r0, r3, lsl #16
     f10:	49003505 	stmdbmi	r0, {r0, r2, r8, sl, ip, sp}
     f14:	06000013 			; <UNDEFINED> instruction: 0x06000013
     f18:	0e030104 	adfeqs	f0, f3, f4
     f1c:	0b3a0b0b 	bleq	e83b50 <__bss_end+0xe80600>
     f20:	13010b3b 	movwne	r0, #6971	; 0x1b3b
     f24:	28070000 	stmdacs	r7, {}	; <UNPREDICTABLE>
     f28:	1c0e0300 	stcne	3, cr0, [lr], {-0}
     f2c:	0800000d 	stmdaeq	r0, {r0, r2, r3}
     f30:	0b0b000f 	bleq	2c0f74 <__bss_end+0x2bda24>
     f34:	2e090000 	cdpcs	0, 0, cr0, cr9, cr0, {0}
     f38:	030c3f01 	movweq	r3, #52993	; 0xcf01
     f3c:	3b0b3a0e 	blcc	2cf77c <__bss_end+0x2cc22c>
     f40:	490c270b 	stmdbmi	ip, {r0, r1, r3, r8, r9, sl, sp}
     f44:	12011113 	andne	r1, r1, #-1073741820	; 0xc0000004
     f48:	01064001 	tsteq	r6, r1
     f4c:	0a000013 	beq	fa0 <__save_processor_state+0xa0>
     f50:	08030034 	stmdaeq	r3, {r2, r4, r5}
     f54:	0b3b0b3a 	bleq	ec3c44 <__bss_end+0xec06f4>
     f58:	06021349 	streq	r1, [r2], -r9, asr #6
     f5c:	340b0000 	strcc	r0, [fp], #-0
     f60:	3a0e0300 	bcc	381b68 <__bss_end+0x37e618>
     f64:	490b3b0b 	stmdbmi	fp, {r0, r1, r3, r8, r9, fp, ip, sp}
     f68:	00060213 	andeq	r0, r6, r3, lsl r2
     f6c:	012e0c00 	teqeq	lr, r0, lsl #24
     f70:	0e030c3f 	mcreq	12, 0, r0, cr3, cr15, {1}
     f74:	0b3b0b3a 	bleq	ec3c64 <__bss_end+0xec0714>
     f78:	13490c27 	movtne	r0, #39975	; 0x9c27
     f7c:	01120111 	tsteq	r2, r1, lsl r1
     f80:	13010a40 	movwne	r0, #6720	; 0x1a40
     f84:	050d0000 	streq	r0, [sp, #-0]
     f88:	3a080300 	bcc	201b90 <__bss_end+0x1fe640>
     f8c:	490b3b0b 	stmdbmi	fp, {r0, r1, r3, r8, r9, fp, ip, sp}
     f90:	00060213 	andeq	r0, r6, r3, lsl r2
     f94:	00340e00 	eorseq	r0, r4, r0, lsl #28
     f98:	0b3a0e03 	bleq	e847ac <__bss_end+0xe8125c>
     f9c:	13490b3b 	movtne	r0, #39739	; 0x9b3b
     fa0:	00000a02 	andeq	r0, r0, r2, lsl #20
     fa4:	01110100 	tsteq	r1, r0, lsl #2
     fa8:	0b130e25 	bleq	4c4844 <__bss_end+0x4c12f4>
     fac:	0e1b0e03 	cdpeq	14, 1, cr0, cr11, cr3, {0}
     fb0:	01120111 	tsteq	r2, r1, lsl r1
     fb4:	00000610 	andeq	r0, r0, r0, lsl r6
     fb8:	0b002402 	bleq	9fc8 <__bss_end+0x6a78>
     fbc:	030b3e0b 	movweq	r3, #48651	; 0xbe0b
     fc0:	0300000e 	movweq	r0, #14
     fc4:	0e030016 	mcreq	0, 0, r0, cr3, cr6, {0}
     fc8:	0b3b0b3a 	bleq	ec3cb8 <__bss_end+0xec0768>
     fcc:	00001349 	andeq	r1, r0, r9, asr #6
     fd0:	0b002404 	bleq	9fe8 <__bss_end+0x6a98>
     fd4:	030b3e0b 	movweq	r3, #48651	; 0xbe0b
     fd8:	05000008 	streq	r0, [r0, #-8]
     fdc:	0e030113 	mcreq	1, 0, r0, cr3, cr3, {0}
     fe0:	0b3a050b 	bleq	e82414 <__bss_end+0xe7eec4>
     fe4:	13010b3b 	movwne	r0, #6971	; 0x1b3b
     fe8:	0d060000 	stceq	0, cr0, [r6, #-0]
     fec:	3a0e0300 	bcc	381bf4 <__bss_end+0x37e6a4>
     ff0:	490b3b0b 	stmdbmi	fp, {r0, r1, r3, r8, r9, fp, ip, sp}
     ff4:	000a3813 	andeq	r3, sl, r3, lsl r8
     ff8:	01010700 	tsteq	r1, r0, lsl #14
     ffc:	13011349 	movwne	r1, #4937	; 0x1349
    1000:	21080000 	mrscs	r0, (UNDEF: 8)
    1004:	2f134900 	svccs	0x00134900
    1008:	0900000b 	stmdbeq	r0, {r0, r1, r3}
    100c:	0c3f012e 	ldfeqs	f0, [pc], #-184	; f5c <__save_processor_state+0x5c>
    1010:	0b3a0e03 	bleq	e84824 <__bss_end+0xe812d4>
    1014:	0c270b3b 	stceq	11, cr0, [r7], #-236	; 0xffffff14
    1018:	01111349 	tsteq	r1, r9, asr #6
    101c:	0a400112 	beq	100146c <__bss_end+0xffdf1c>
    1020:	00001301 	andeq	r1, r0, r1, lsl #6
    1024:	0300050a 	movweq	r0, #1290	; 0x50a
    1028:	3b0b3a0e 	blcc	2cf868 <__bss_end+0x2cc318>
    102c:	0213490b 	andseq	r4, r3, #180224	; 0x2c000
    1030:	0b000006 	bleq	1050 <__save_processor_state+0x150>
    1034:	08030034 	stmdaeq	r3, {r2, r4, r5}
    1038:	0b3b0b3a 	bleq	ec3d28 <__bss_end+0xec07d8>
    103c:	06021349 	streq	r1, [r2], -r9, asr #6
    1040:	0f0c0000 	svceq	0x000c0000
    1044:	490b0b00 	stmdbmi	fp, {r8, r9, fp}
    1048:	0d000013 	stceq	0, cr0, [r0, #-76]	; 0xffffffb4
    104c:	0c3f012e 	ldfeqs	f0, [pc], #-184	; f9c <__save_processor_state+0x9c>
    1050:	0b3a0e03 	bleq	e84864 <__bss_end+0xe81314>
    1054:	0c270b3b 	stceq	11, cr0, [r7], #-236	; 0xffffff14
    1058:	01120111 	tsteq	r2, r1, lsl r1
    105c:	00000a40 	andeq	r0, r0, r0, asr #20
    1060:	0300340e 	movweq	r3, #1038	; 0x40e
    1064:	3b0b3a0e 	blcc	2cf8a4 <__bss_end+0x2cc354>
    1068:	0213490b 	andseq	r4, r3, #180224	; 0x2c000
    106c:	0f00000a 	svceq	0x0000000a
    1070:	0e030034 	mcreq	0, 0, r0, cr3, cr4, {1}
    1074:	0b3b0b3a 	bleq	ec3d64 <__bss_end+0xec0814>
    1078:	06021349 	streq	r1, [r2], -r9, asr #6
    107c:	01000000 	mrseq	r0, (UNDEF: 0)
    1080:	0e250111 	mcreq	1, 1, r0, cr5, cr1, {0}
    1084:	0e030b13 	vmoveq.32	d3[0], r0
    1088:	01110e1b 	tsteq	r1, fp, lsl lr
    108c:	06100112 			; <UNDEFINED> instruction: 0x06100112
    1090:	24020000 	strcs	r0, [r2], #-0
    1094:	3e0b0b00 	vmlacc.f64	d0, d11, d0
    1098:	000e030b 	andeq	r0, lr, fp, lsl #6
    109c:	00160300 	andseq	r0, r6, r0, lsl #6
    10a0:	0b3a0e03 	bleq	e848b4 <__bss_end+0xe81364>
    10a4:	13490b3b 	movtne	r0, #39739	; 0x9b3b
    10a8:	24040000 	strcs	r0, [r4], #-0
    10ac:	3e0b0b00 	vmlacc.f64	d0, d11, d0
    10b0:	0008030b 	andeq	r0, r8, fp, lsl #6
    10b4:	00350500 	eorseq	r0, r5, r0, lsl #10
    10b8:	00001349 	andeq	r1, r0, r9, asr #6
    10bc:	49010106 	stmdbmi	r1, {r1, r2, r8}
    10c0:	00130113 	andseq	r0, r3, r3, lsl r1
    10c4:	00210700 	eoreq	r0, r1, r0, lsl #14
    10c8:	0b2f1349 	bleq	bc5df4 <__bss_end+0xbc28a4>
    10cc:	13080000 	movwne	r0, #32768	; 0x8000
    10d0:	0b0e0301 	bleq	381cdc <__bss_end+0x37e78c>
    10d4:	3b0b3a0b 	blcc	2cf908 <__bss_end+0x2cc3b8>
    10d8:	0013010b 	andseq	r0, r3, fp, lsl #2
    10dc:	000d0900 	andeq	r0, sp, r0, lsl #18
    10e0:	0b3a0e03 	bleq	e848f4 <__bss_end+0xe813a4>
    10e4:	13490b3b 	movtne	r0, #39739	; 0x9b3b
    10e8:	00000a38 	andeq	r0, r0, r8, lsr sl
    10ec:	0301040a 	movweq	r0, #5130	; 0x140a
    10f0:	3a0b0b0e 	bcc	2c3d30 <__bss_end+0x2c07e0>
    10f4:	010b3b0b 	tsteq	fp, fp, lsl #22
    10f8:	0b000013 	bleq	114c <__save_processor_state+0x24c>
    10fc:	0e030028 	cdpeq	0, 0, cr0, cr3, cr8, {1}
    1100:	00000d1c 	andeq	r0, r0, ip, lsl sp
    1104:	3f012e0c 	svccc	0x00012e0c
    1108:	3a0e030c 	bcc	381d40 <__bss_end+0x37e7f0>
    110c:	270b3b0b 	strcs	r3, [fp, -fp, lsl #22]
    1110:	1113490c 	tstne	r3, ip, lsl #18
    1114:	40011201 	andmi	r1, r1, r1, lsl #4
    1118:	0013010a 	andseq	r0, r3, sl, lsl #2
    111c:	00050d00 	andeq	r0, r5, r0, lsl #26
    1120:	0b3a0e03 	bleq	e84934 <__bss_end+0xe813e4>
    1124:	13490b3b 	movtne	r0, #39739	; 0x9b3b
    1128:	00000602 	andeq	r0, r0, r2, lsl #12
    112c:	0b000f0e 	bleq	4d6c <__bss_end+0x181c>
    1130:	0013490b 	andseq	r4, r3, fp, lsl #18
    1134:	002e0f00 	eoreq	r0, lr, r0, lsl #30
    1138:	0e030c3f 	mcreq	12, 0, r0, cr3, cr15, {1}
    113c:	0b3b0b3a 	bleq	ec3e2c <__bss_end+0xec08dc>
    1140:	13490c27 	movtne	r0, #39975	; 0x9c27
    1144:	01120111 	tsteq	r2, r1, lsl r1
    1148:	00000a40 	andeq	r0, r0, r0, asr #20
    114c:	3f002e10 	svccc	0x00002e10
    1150:	3a0e030c 	bcc	381d88 <__bss_end+0x37e838>
    1154:	270b3b0b 	strcs	r3, [fp, -fp, lsl #22]
    1158:	1201110c 	andne	r1, r1, #3
    115c:	000a4001 	andeq	r4, sl, r1
    1160:	00341100 	eorseq	r1, r4, r0, lsl #2
    1164:	0b3a0e03 	bleq	e84978 <__bss_end+0xe81428>
    1168:	13490b3b 	movtne	r0, #39739	; 0x9b3b
    116c:	00000a02 	andeq	r0, r0, r2, lsl #20
    1170:	01110100 	tsteq	r1, r0, lsl #2
    1174:	0b130e25 	bleq	4c4a10 <__bss_end+0x4c14c0>
    1178:	0e1b0e03 	cdpeq	14, 1, cr0, cr11, cr3, {0}
    117c:	01120111 	tsteq	r2, r1, lsl r1
    1180:	00000610 	andeq	r0, r0, r0, lsl r6
    1184:	0b002402 	bleq	a194 <__bss_end+0x6c44>
    1188:	030b3e0b 	movweq	r3, #48651	; 0xbe0b
    118c:	0300000e 	movweq	r0, #14
    1190:	0e030016 	mcreq	0, 0, r0, cr3, cr6, {0}
    1194:	0b3b0b3a 	bleq	ec3e84 <__bss_end+0xec0934>
    1198:	00001349 	andeq	r1, r0, r9, asr #6
    119c:	0b002404 	bleq	a1b4 <__bss_end+0x6c64>
    11a0:	030b3e0b 	movweq	r3, #48651	; 0xbe0b
    11a4:	05000008 	streq	r0, [r0, #-8]
    11a8:	13490035 	movtne	r0, #36917	; 0x9035
    11ac:	01060000 	mrseq	r0, (UNDEF: 6)
    11b0:	01134901 	tsteq	r3, r1, lsl #18
    11b4:	07000013 	smladeq	r0, r3, r0, r0
    11b8:	13490021 	movtne	r0, #36897	; 0x9021
    11bc:	00000b2f 	andeq	r0, r0, pc, lsr #22
    11c0:	03011308 	movweq	r1, #4872	; 0x1308
    11c4:	3a0b0b0e 	bcc	2c3e04 <__bss_end+0x2c08b4>
    11c8:	010b3b0b 	tsteq	fp, fp, lsl #22
    11cc:	09000013 	stmdbeq	r0, {r0, r1, r4}
    11d0:	0803000d 	stmdaeq	r3, {r0, r2, r3}
    11d4:	0b3b0b3a 	bleq	ec3ec4 <__bss_end+0xec0974>
    11d8:	0a381349 	beq	e05f04 <__bss_end+0xe029b4>
    11dc:	0d0a0000 	stceq	0, cr0, [sl, #-0]
    11e0:	3a0e0300 	bcc	381de8 <__bss_end+0x37e898>
    11e4:	490b3b0b 	stmdbmi	fp, {r0, r1, r3, r8, r9, fp, ip, sp}
    11e8:	000a3813 	andeq	r3, sl, r3, lsl r8
    11ec:	01040b00 	tsteq	r4, r0, lsl #22
    11f0:	0b0b0e03 	bleq	2c4a04 <__bss_end+0x2c14b4>
    11f4:	0b3b0b3a 	bleq	ec3ee4 <__bss_end+0xec0994>
    11f8:	00001301 	andeq	r1, r0, r1, lsl #6
    11fc:	0300280c 	movweq	r2, #2060	; 0x80c
    1200:	000d1c0e 	andeq	r1, sp, lr, lsl #24
    1204:	012e0d00 	teqeq	lr, r0, lsl #26
    1208:	0e030c3f 	mcreq	12, 0, r0, cr3, cr15, {1}
    120c:	0b3b0b3a 	bleq	ec3efc <__bss_end+0xec09ac>
    1210:	13490c27 	movtne	r0, #39975	; 0x9c27
    1214:	01120111 	tsteq	r2, r1, lsl r1
    1218:	13010a40 	movwne	r0, #6720	; 0x1a40
    121c:	050e0000 	streq	r0, [lr, #-0]
    1220:	3a0e0300 	bcc	381e28 <__bss_end+0x37e8d8>
    1224:	490b3b0b 	stmdbmi	fp, {r0, r1, r3, r8, r9, fp, ip, sp}
    1228:	00060213 	andeq	r0, r6, r3, lsl r2
    122c:	000f0f00 	andeq	r0, pc, r0, lsl #30
    1230:	13490b0b 	movtne	r0, #39691	; 0x9b0b
    1234:	34100000 	ldrcc	r0, [r0], #-0
    1238:	3a0e0300 	bcc	381e40 <__bss_end+0x37e8f0>
    123c:	490b3b0b 	stmdbmi	fp, {r0, r1, r3, r8, r9, fp, ip, sp}
    1240:	000a0213 	andeq	r0, sl, r3, lsl r2
    1244:	11010000 	mrsne	r0, (UNDEF: 1)
    1248:	130e2501 	movwne	r2, #58625	; 0xe501
    124c:	1b0e030b 	blne	381e80 <__bss_end+0x37e930>
    1250:	1201110e 	andne	r1, r1, #-2147483645	; 0x80000003
    1254:	00061001 	andeq	r1, r6, r1
    1258:	00240200 	eoreq	r0, r4, r0, lsl #4
    125c:	0b3e0b0b 	bleq	f83e90 <__bss_end+0xf80940>
    1260:	00000e03 	andeq	r0, r0, r3, lsl #28
    1264:	03001603 	movweq	r1, #1539	; 0x603
    1268:	3b0b3a0e 	blcc	2cfaa8 <__bss_end+0x2cc558>
    126c:	0013490b 	andseq	r4, r3, fp, lsl #18
    1270:	00240400 	eoreq	r0, r4, r0, lsl #8
    1274:	0b3e0b0b 	bleq	f83ea8 <__bss_end+0xf80958>
    1278:	00000803 	andeq	r0, r0, r3, lsl #16
    127c:	03010405 	movweq	r0, #5125	; 0x1405
    1280:	3a0b0b0e 	bcc	2c3ec0 <__bss_end+0x2c0970>
    1284:	010b3b0b 	tsteq	fp, fp, lsl #22
    1288:	06000013 			; <UNDEFINED> instruction: 0x06000013
    128c:	0e030028 	cdpeq	0, 0, cr0, cr3, cr8, {1}
    1290:	00000d1c 	andeq	r0, r0, ip, lsl sp
    1294:	03012e07 	movweq	r2, #7687	; 0x1e07
    1298:	3b0b3a0e 	blcc	2cfad8 <__bss_end+0x2cc588>
    129c:	490c270b 	stmdbmi	ip, {r0, r1, r3, r8, r9, sl, sp}
    12a0:	010b2013 	tsteq	fp, r3, lsl r0
    12a4:	08000013 	stmdaeq	r0, {r0, r1, r4}
    12a8:	0e030034 	mcreq	0, 0, r0, cr3, cr4, {1}
    12ac:	0b3b0b3a 	bleq	ec3f9c <__bss_end+0xec0a4c>
    12b0:	00001349 	andeq	r1, r0, r9, asr #6
    12b4:	03012e09 	movweq	r2, #7689	; 0x1e09
    12b8:	3b0b3a0e 	blcc	2cfaf8 <__bss_end+0x2cc5a8>
    12bc:	200c270b 	andcs	r2, ip, fp, lsl #14
    12c0:	0013010b 	andseq	r0, r3, fp, lsl #2
    12c4:	00050a00 	andeq	r0, r5, r0, lsl #20
    12c8:	0b3a0e03 	bleq	e84adc <__bss_end+0xe8158c>
    12cc:	13490b3b 	movtne	r0, #39739	; 0x9b3b
    12d0:	2e0b0000 	cdpcs	0, 0, cr0, cr11, cr0, {0}
    12d4:	030c3f01 	movweq	r3, #52993	; 0xcf01
    12d8:	3b0b3a0e 	blcc	2cfb18 <__bss_end+0x2cc5c8>
    12dc:	490c270b 	stmdbmi	ip, {r0, r1, r3, r8, r9, sl, sp}
    12e0:	12011113 	andne	r1, r1, #-1073741820	; 0xc0000004
    12e4:	010a4001 	tsteq	sl, r1
    12e8:	0c000013 	stceq	0, cr0, [r0], {19}
    12ec:	0e030005 	cdpeq	0, 0, cr0, cr3, cr5, {0}
    12f0:	0b3b0b3a 	bleq	ec3fe0 <__bss_end+0xec0a90>
    12f4:	06021349 	streq	r1, [r2], -r9, asr #6
    12f8:	2e0d0000 	cdpcs	0, 0, cr0, cr13, cr0, {0}
    12fc:	030c3f01 	movweq	r3, #52993	; 0xcf01
    1300:	3b0b3a0e 	blcc	2cfb40 <__bss_end+0x2cc5f0>
    1304:	490c270b 	stmdbmi	ip, {r0, r1, r3, r8, r9, sl, sp}
    1308:	12011113 	andne	r1, r1, #-1073741820	; 0xc0000004
    130c:	01064001 	tsteq	r6, r1
    1310:	0e000013 	mcreq	0, 0, r0, cr0, cr3, {0}
    1314:	0e030034 	mcreq	0, 0, r0, cr3, cr4, {1}
    1318:	0b3b0b3a 	bleq	ec4008 <__bss_end+0xec0ab8>
    131c:	06021349 	streq	r1, [r2], -r9, asr #6
    1320:	1d0f0000 	stcne	0, cr0, [pc, #-0]	; 1328 <__restore_processor_state+0x24>
    1324:	11133101 	tstne	r3, r1, lsl #2
    1328:	58011201 	stmdapl	r1, {r0, r9, ip}
    132c:	010b590b 	tsteq	fp, fp, lsl #18
    1330:	10000013 	andne	r0, r0, r3, lsl r0
    1334:	0111010b 	tsteq	r1, fp, lsl #2
    1338:	00000112 	andeq	r0, r0, r2, lsl r1
    133c:	31003411 	tstcc	r0, r1, lsl r4
    1340:	00060213 	andeq	r0, r6, r3, lsl r2
    1344:	011d1200 	tsteq	sp, r0, lsl #4
    1348:	01111331 	tsteq	r1, r1, lsr r3
    134c:	0b580112 	bleq	160179c <__bss_end+0x15fe24c>
    1350:	00000b59 	andeq	r0, r0, r9, asr fp
    1354:	31000513 	tstcc	r0, r3, lsl r5
    1358:	00060213 	andeq	r0, r6, r3, lsl r2
    135c:	011d1400 	tsteq	sp, r0, lsl #8
    1360:	01521331 	cmpeq	r2, r1, lsr r3
    1364:	0b580655 	bleq	1602cc0 <__bss_end+0x15ff770>
    1368:	00000b59 	andeq	r0, r0, r9, asr fp
    136c:	31000515 	tstcc	r0, r5, lsl r5
    1370:	000a0213 	andeq	r0, sl, r3, lsl r2
    1374:	00341600 	eorseq	r1, r4, r0, lsl #12
    1378:	0a021331 	beq	86044 <__bss_end+0x82af4>
    137c:	34170000 	ldrcc	r0, [r7], #-0
    1380:	3a0e0300 	bcc	381f88 <__bss_end+0x37ea38>
    1384:	490b3b0b 	stmdbmi	fp, {r0, r1, r3, r8, r9, fp, ip, sp}
    1388:	000a0213 	andeq	r0, sl, r3, lsl r2
    138c:	11010000 	mrsne	r0, (UNDEF: 1)
    1390:	130e2501 	movwne	r2, #58625	; 0xe501
    1394:	1b0e030b 	blne	381fc8 <__bss_end+0x37ea78>
    1398:	1201110e 	andne	r1, r1, #-2147483645	; 0x80000003
    139c:	00061001 	andeq	r1, r6, r1
    13a0:	00240200 	eoreq	r0, r4, r0, lsl #4
    13a4:	0b3e0b0b 	bleq	f83fd8 <__bss_end+0xf80a88>
    13a8:	00000e03 	andeq	r0, r0, r3, lsl #28
    13ac:	03001603 	movweq	r1, #1539	; 0x603
    13b0:	3b0b3a0e 	blcc	2cfbf0 <__bss_end+0x2cc6a0>
    13b4:	0013490b 	andseq	r4, r3, fp, lsl #18
    13b8:	00240400 	eoreq	r0, r4, r0, lsl #8
    13bc:	0b3e0b0b 	bleq	f83ff0 <__bss_end+0xf80aa0>
    13c0:	00000803 	andeq	r0, r0, r3, lsl #16
    13c4:	0b011305 	bleq	45fe0 <__bss_end+0x42a90>
    13c8:	3b0b3a0b 	blcc	2cfbfc <__bss_end+0x2cc6ac>
    13cc:	0013010b 	andseq	r0, r3, fp, lsl #2
    13d0:	000d0600 	andeq	r0, sp, r0, lsl #12
    13d4:	0b3a0e03 	bleq	e84be8 <__bss_end+0xe81698>
    13d8:	13490b3b 	movtne	r0, #39739	; 0x9b3b
    13dc:	0b0d0b0b 	bleq	344010 <__bss_end+0x340ac0>
    13e0:	0a380b0c 	beq	e04018 <__bss_end+0xe00ac8>
    13e4:	17070000 	strne	r0, [r7, -r0]
    13e8:	3a0b0b01 	bcc	2c3ff4 <__bss_end+0x2c0aa4>
    13ec:	010b3b0b 	tsteq	fp, fp, lsl #22
    13f0:	08000013 	stmdaeq	r0, {r0, r1, r4}
    13f4:	0e03000d 	cdpeq	0, 0, cr0, cr3, cr13, {0}
    13f8:	0b3b0b3a 	bleq	ec40e8 <__bss_end+0xec0b98>
    13fc:	00001349 	andeq	r1, r0, r9, asr #6
    1400:	03011309 	movweq	r1, #4873	; 0x1309
    1404:	3a0b0b0e 	bcc	2c4044 <__bss_end+0x2c0af4>
    1408:	010b3b0b 	tsteq	fp, fp, lsl #22
    140c:	0a000013 	beq	1460 <__restore_processor_state+0x15c>
    1410:	0e030113 	mcreq	1, 0, r0, cr3, cr3, {0}
    1414:	0b3a050b 	bleq	e82848 <__bss_end+0xe7f2f8>
    1418:	13010b3b 	movwne	r0, #6971	; 0x1b3b
    141c:	0d0b0000 	stceq	0, cr0, [fp, #-0]
    1420:	3a0e0300 	bcc	382028 <__bss_end+0x37ead8>
    1424:	490b3b0b 	stmdbmi	fp, {r0, r1, r3, r8, r9, fp, ip, sp}
    1428:	000a3813 	andeq	r3, sl, r3, lsl r8
    142c:	000d0c00 	andeq	r0, sp, r0, lsl #24
    1430:	0b3a0803 	bleq	e83444 <__bss_end+0xe7fef4>
    1434:	13490b3b 	movtne	r0, #39739	; 0x9b3b
    1438:	00000a38 	andeq	r0, r0, r8, lsr sl
    143c:	4900350d 	stmdbmi	r0, {r0, r2, r3, r8, sl, ip, sp}
    1440:	0e000013 	mcreq	0, 0, r0, cr0, cr3, {0}
    1444:	13490101 	movtne	r0, #37121	; 0x9101
    1448:	00001301 	andeq	r1, r0, r1, lsl #6
    144c:	4900210f 	stmdbmi	r0, {r0, r1, r2, r3, r8, sp}
    1450:	000b2f13 	andeq	r2, fp, r3, lsl pc
    1454:	000f1000 	andeq	r1, pc, r0
    1458:	13490b0b 	movtne	r0, #39691	; 0x9b0b
    145c:	04110000 	ldreq	r0, [r1], #-0
    1460:	0b0e0301 	bleq	38206c <__bss_end+0x37eb1c>
    1464:	3b0b3a0b 	blcc	2cfc98 <__bss_end+0x2cc748>
    1468:	0013010b 	andseq	r0, r3, fp, lsl #2
    146c:	00281200 	eoreq	r1, r8, r0, lsl #4
    1470:	0d1c0e03 	ldceq	14, cr0, [ip, #-12]
    1474:	2e130000 	cdpcs	0, 1, cr0, cr3, cr0, {0}
    1478:	030c3f01 	movweq	r3, #52993	; 0xcf01
    147c:	3b0b3a0e 	blcc	2cfcbc <__bss_end+0x2cc76c>
    1480:	490c270b 	stmdbmi	ip, {r0, r1, r3, r8, r9, sl, sp}
    1484:	12011113 	andne	r1, r1, #-1073741820	; 0xc0000004
    1488:	010a4001 	tsteq	sl, r1
    148c:	14000013 	strne	r0, [r0], #-19
    1490:	0e030005 	cdpeq	0, 0, cr0, cr3, cr5, {0}
    1494:	0b3b0b3a 	bleq	ec4184 <__bss_end+0xec0c34>
    1498:	06021349 	streq	r1, [r2], -r9, asr #6
    149c:	2e150000 	cdpcs	0, 1, cr0, cr5, cr0, {0}
    14a0:	030c3f00 	movweq	r3, #52992	; 0xcf00
    14a4:	3b0b3a0e 	blcc	2cfce4 <__bss_end+0x2cc794>
    14a8:	490c270b 	stmdbmi	ip, {r0, r1, r3, r8, r9, sl, sp}
    14ac:	12011113 	andne	r1, r1, #-1073741820	; 0xc0000004
    14b0:	000a4001 	andeq	r4, sl, r1
    14b4:	012e1600 	teqeq	lr, r0, lsl #12
    14b8:	0e030c3f 	mcreq	12, 0, r0, cr3, cr15, {1}
    14bc:	0b3b0b3a 	bleq	ec41ac <__bss_end+0xec0c5c>
    14c0:	13490c27 	movtne	r0, #39975	; 0x9c27
    14c4:	01120111 	tsteq	r2, r1, lsl r1
    14c8:	13010640 	movwne	r0, #5696	; 0x1640
    14cc:	2e170000 	cdpcs	0, 1, cr0, cr7, cr0, {0}
    14d0:	030c3f01 	movweq	r3, #52993	; 0xcf01
    14d4:	3b0b3a0e 	blcc	2cfd14 <__bss_end+0x2cc7c4>
    14d8:	490c2705 	stmdbmi	ip, {r0, r2, r8, r9, sl, sp}
    14dc:	12011113 	andne	r1, r1, #-1073741820	; 0xc0000004
    14e0:	010a4001 	tsteq	sl, r1
    14e4:	18000013 	stmdane	r0, {r0, r1, r4}
    14e8:	0e030005 	cdpeq	0, 0, cr0, cr3, cr5, {0}
    14ec:	053b0b3a 	ldreq	r0, [fp, #-2874]!	; 0xb3a
    14f0:	06021349 	streq	r1, [r2], -r9, asr #6
    14f4:	2e190000 	cdpcs	0, 1, cr0, cr9, cr0, {0}
    14f8:	030c3f01 	movweq	r3, #52993	; 0xcf01
    14fc:	3b0b3a0e 	blcc	2cfd3c <__bss_end+0x2cc7ec>
    1500:	490c2705 	stmdbmi	ip, {r0, r2, r8, r9, sl, sp}
    1504:	12011113 	andne	r1, r1, #-1073741820	; 0xc0000004
    1508:	01064001 	tsteq	r6, r1
    150c:	1a000013 	bne	1560 <__restore_processor_state+0x25c>
    1510:	0e030034 	mcreq	0, 0, r0, cr3, cr4, {1}
    1514:	053b0b3a 	ldreq	r0, [fp, #-2874]!	; 0xb3a
    1518:	06021349 	streq	r1, [r2], -r9, asr #6
    151c:	341b0000 	ldrcc	r0, [fp], #-0
    1520:	3a0e0300 	bcc	382128 <__bss_end+0x37ebd8>
    1524:	49053b0b 	stmdbmi	r5, {r0, r1, r3, r8, r9, fp, ip, sp}
    1528:	000b1c13 	andeq	r1, fp, r3, lsl ip
    152c:	00341c00 	eorseq	r1, r4, r0, lsl #24
    1530:	0b3a0e03 	bleq	e84d44 <__bss_end+0xe817f4>
    1534:	13490b3b 	movtne	r0, #39739	; 0x9b3b
    1538:	00000a02 	andeq	r0, r0, r2, lsl #20
	...

Disassembly of section .debug_line:

00000000 <.debug_line>:
       0:	000000b8 	strheq	r0, [r0], -r8
       4:	00b20002 	adcseq	r0, r2, r2
       8:	01020000 	mrseq	r0, (UNDEF: 2)
       c:	000d0efb 	strdeq	r0, [sp], -fp
      10:	01010101 	tsteq	r1, r1, lsl #2
      14:	01000000 	mrseq	r0, (UNDEF: 0)
      18:	61010000 	mrsvs	r0, (UNDEF: 1)
      1c:	2f686372 	svccs	0x00686372
      20:	2f6d7261 	svccs	0x006d7261
      24:	6863616d 	stmdavs	r3!, {r0, r2, r3, r5, r6, r8, sp, lr}^
      28:	6e75732d 	cdpvs	3, 7, cr7, cr5, cr13, {1}
      2c:	702f6978 	eorvc	r6, pc, r8, ror r9	; <UNPREDICTABLE>
      30:	74732f6d 	ldrbtvc	r2, [r3], #-3949	; 0xf6d
      34:	62646e61 	rsbvs	r6, r4, #1552	; 0x610
      38:	75732f79 	ldrbvc	r2, [r3, #-3961]!	; 0xf79
      3c:	2f726570 	svccs	0x00726570
      40:	75736572 	ldrbvc	r6, [r3, #-1394]!	; 0x572
      44:	2e2f656d 	cfsh64cs	mvdx6, mvdx15, #61
      48:	002e2e2f 	eoreq	r2, lr, pc, lsr #28
      4c:	6c636e69 	stclvs	14, cr6, [r3], #-420	; 0xfffffe5c
      50:	2f656475 	svccs	0x00656475
      54:	756e696c 	strbvc	r6, [lr, #-2412]!	; 0x96c
      58:	6f702f78 	svcvs	0x00702f78
      5c:	00726577 	rsbseq	r6, r2, r7, ror r5
      60:	68637261 	stmdavs	r3!, {r0, r5, r6, r9, ip, sp, lr}^
      64:	6d72612f 	ldfvse	f6, [r2, #-188]!	; 0xffffff44
      68:	63616d2f 	cmnvs	r1, #3008	; 0xbc0
      6c:	75732d68 	ldrbvc	r2, [r3, #-3432]!	; 0xd68
      70:	2f69786e 	svccs	0x0069786e
      74:	732f6d70 	teqvc	pc, #7168	; 0x1c00
      78:	646e6174 	strbtvs	r6, [lr], #-372	; 0x174
      7c:	732f7962 	teqvc	pc, #1605632	; 0x188000
      80:	72657075 	rsbvc	r7, r5, #117	; 0x75
      84:	7365722f 	cmnvc	r5, #-268435454	; 0xf0000002
      88:	00656d75 	rsbeq	r6, r5, r5, ror sp
      8c:	70757300 	rsbsvc	r7, r5, r0, lsl #6
      90:	695f7265 	ldmdbvs	pc, {r0, r2, r5, r6, r9, ip, sp, lr}^	; <UNPREDICTABLE>
      94:	0100682e 	tsteq	r0, lr, lsr #16
      98:	78610000 	stmdavc	r1!, {}^	; <UNPREDICTABLE>
      9c:	65645f70 	strbvs	r5, [r4, #-3952]!	; 0xf70
      a0:	646e6570 	strbtvs	r6, [lr], #-1392	; 0x570
      a4:	0200682e 	andeq	r6, r0, #3014656	; 0x2e0000
      a8:	65720000 	ldrbvs	r0, [r2, #-0]!
      ac:	656d7573 	strbvs	r7, [sp, #-1395]!	; 0x573
      b0:	6165685f 	cmnvs	r5, pc, asr r8
      b4:	00632e64 	rsbeq	r2, r3, r4, ror #28
      b8:	00000003 	andeq	r0, r0, r3
      bc:	0000007b 	andeq	r0, r0, fp, ror r0
      c0:	004c0002 	subeq	r0, ip, r2
      c4:	01020000 	mrseq	r0, (UNDEF: 2)
      c8:	000d0efb 	strdeq	r0, [sp], -fp
      cc:	01010101 	tsteq	r1, r1, lsl #2
      d0:	01000000 	mrseq	r0, (UNDEF: 0)
      d4:	61010000 	mrsvs	r0, (UNDEF: 1)
      d8:	2f686372 	svccs	0x00686372
      dc:	2f6d7261 	svccs	0x006d7261
      e0:	6863616d 	stmdavs	r3!, {r0, r2, r3, r5, r6, r8, sp, lr}^
      e4:	6e75732d 	cdpvs	3, 7, cr7, cr5, cr13, {1}
      e8:	702f6978 	eorvc	r6, pc, r8, ror r9	; <UNPREDICTABLE>
      ec:	74732f6d 	ldrbtvc	r2, [r3], #-3949	; 0xf6d
      f0:	62646e61 	rsbvs	r6, r4, #1552	; 0x610
      f4:	75732f79 	ldrbvc	r2, [r3, #-3961]!	; 0xf79
      f8:	2f726570 	svccs	0x00726570
      fc:	75736572 	ldrbvc	r6, [r3, #-1394]!	; 0x572
     100:	0000656d 	andeq	r6, r0, sp, ror #10
     104:	75736572 	ldrbvc	r6, [r3, #-1394]!	; 0x572
     108:	2e31656d 	cdpcs	5, 3, cr6, cr1, cr13, {3}
     10c:	00010053 	andeq	r0, r1, r3, asr r0
     110:	05000000 	streq	r0, [r0, #-0]
     114:	00003002 	andeq	r3, r0, r2
     118:	00c30300 	sbceq	r0, r3, r0, lsl #6
     11c:	2f2f2f01 	svccs	0x002f2f01
     120:	2f332f2f 	svccs	0x00332f2f
     124:	302f2f2f 	eorcc	r2, pc, pc, lsr #30
     128:	00c0032f 	sbceq	r0, r0, pc, lsr #6
     12c:	2f302f2e 	svccs	0x00302f2e
     130:	312f2f2f 	teqcc	pc, pc, lsr #30
     134:	0202302f 	andeq	r3, r2, #47	; 0x2f
     138:	72010100 	andvc	r0, r1, #0
     13c:	02000000 	andeq	r0, r0, #0
     140:	00004400 	andeq	r4, r0, r0, lsl #8
     144:	fb010200 	blx	4094e <__bss_end+0x3d3fe>
     148:	01000d0e 	tsteq	r0, lr, lsl #26
     14c:	00010101 	andeq	r0, r1, r1, lsl #2
     150:	00010000 	andeq	r0, r1, r0
     154:	72610100 	rsbvc	r0, r1, #0
     158:	612f6863 	teqvs	pc, r3, ror #16
     15c:	6d2f6d72 	stcvs	13, cr6, [pc, #-456]!	; ffffff9c <__bss_end+0xffffca4c>
     160:	2d686361 	stclcs	3, cr6, [r8, #-388]!	; 0xfffffe7c
     164:	786e7573 	stmdavc	lr!, {r0, r1, r4, r5, r6, r8, sl, ip, sp, lr}^
     168:	6d702f69 	ldclvs	15, cr2, [r0, #-420]!	; 0xfffffe5c
     16c:	6174732f 	cmnvs	r4, pc, lsr #6
     170:	7962646e 	stmdbvc	r2!, {r1, r2, r3, r5, r6, sl, sp, lr}^
     174:	7075732f 	rsbsvc	r7, r5, pc, lsr #6
     178:	00007265 	andeq	r7, r0, r5, ror #4
     17c:	6d6d6f63 	stclvs	15, cr6, [sp, #-396]!	; 0xfffffe74
     180:	632e6e6f 	teqvs	lr, #1776	; 0x6f0
     184:	00000100 	andeq	r0, r0, r0, lsl #2
     188:	02050000 	andeq	r0, r5, #0
     18c:	0000008c 	andeq	r0, r0, ip, lsl #1
     190:	15012303 	strne	r2, [r1, #-771]	; 0x303
     194:	4a7a034c 	bmi	1e80ecc <__bss_end+0x1e7d97c>
     198:	02040200 	andeq	r0, r4, #0
     19c:	04020035 	streq	r0, [r2], #-53	; 0x35
     1a0:	02002d02 	andeq	r2, r0, #128	; 0x80
     1a4:	002f0204 	eoreq	r0, pc, r4, lsl #4
     1a8:	2d020402 	cfstrscs	mvf0, [r2, #-8]
     1ac:	01000402 	tsteq	r0, r2, lsl #8
     1b0:	00001901 	andeq	r1, r0, r1, lsl #18
     1b4:	13000200 	movwne	r0, #512	; 0x200
     1b8:	02000000 	andeq	r0, r0, #0
     1bc:	0d0efb01 	vstreq	d15, [lr, #-4]
     1c0:	01010100 	mrseq	r0, (UNDEF: 17)
     1c4:	00000001 	andeq	r0, r0, r1
     1c8:	01000001 	tsteq	r0, r1
     1cc:	00670000 	rsbeq	r0, r7, r0
     1d0:	00020000 	andeq	r0, r2, r0
     1d4:	00000049 	andeq	r0, r0, r9, asr #32
     1d8:	0efb0102 	cdpeq	1, 15, cr0, cr11, cr2, {0}
     1dc:	0101000d 	tsteq	r1, sp
     1e0:	00000101 	andeq	r0, r0, r1, lsl #2
     1e4:	00000100 	andeq	r0, r0, r0, lsl #2
     1e8:	63726101 	cmnvs	r2, #1073741824	; 0x40000000
     1ec:	72612f68 	rsbvc	r2, r1, #416	; 0x1a0
     1f0:	616d2f6d 	cmnvs	sp, sp, ror #30
     1f4:	732d6863 	teqvc	sp, #6488064	; 0x630000
     1f8:	69786e75 	ldmdbvs	r8!, {r0, r2, r4, r5, r6, r9, sl, fp, sp, lr}^
     1fc:	2f6d702f 	svccs	0x006d702f
     200:	6e617473 	mcrvs	4, 3, r7, cr1, cr3, {3}
     204:	2f796264 	svccs	0x00796264
     208:	65707573 	ldrbvs	r7, [r0, #-1395]!	; 0x573
     20c:	73000072 	movwvc	r0, #114	; 0x72
     210:	72657075 	rsbvc	r7, r5, #117	; 0x75
     214:	6c65645f 	cfstrdvs	mvd6, [r5], #-380	; 0xfffffe84
     218:	532e7961 	teqpl	lr, #1589248	; 0x184000
     21c:	00000100 	andeq	r0, r0, r0, lsl #2
     220:	02050000 	andeq	r0, r5, #0
     224:	000000b4 	strheq	r0, [r0], -r4
     228:	2f010d03 	svccs	0x00010d03
     22c:	2f2f302f 	svccs	0x002f302f
     230:	2f302f2f 	svccs	0x00302f2f
     234:	01000202 	tsteq	r0, r2, lsl #4
     238:	00001901 	andeq	r1, r0, r1, lsl #18
     23c:	13000200 	movwne	r0, #512	; 0x200
     240:	02000000 	andeq	r0, r0, #0
     244:	0d0efb01 	vstreq	d15, [lr, #-4]
     248:	01010100 	mrseq	r0, (UNDEF: 17)
     24c:	00000001 	andeq	r0, r0, r1
     250:	01000001 	tsteq	r0, r1
     254:	00190000 	andseq	r0, r9, r0
     258:	00020000 	andeq	r0, r2, r0
     25c:	00000013 	andeq	r0, r0, r3, lsl r0
     260:	0efb0102 	cdpeq	1, 15, cr0, cr11, cr2, {0}
     264:	0101000d 	tsteq	r1, sp
     268:	00000101 	andeq	r0, r0, r1, lsl #2
     26c:	00000100 	andeq	r0, r0, r0, lsl #2
     270:	19000001 	stmdbne	r0, {r0}
     274:	02000000 	andeq	r0, r0, #0
     278:	00001300 	andeq	r1, r0, r0, lsl #6
     27c:	fb010200 	blx	40a86 <__bss_end+0x3d536>
     280:	01000d0e 	tsteq	r0, lr, lsl #26
     284:	00010101 	andeq	r0, r1, r1, lsl #2
     288:	00010000 	andeq	r0, r1, r0
     28c:	00000100 	andeq	r0, r0, r0, lsl #2
     290:	00000182 	andeq	r0, r0, r2, lsl #3
     294:	00e90002 	rsceq	r0, r9, r2
     298:	01020000 	mrseq	r0, (UNDEF: 2)
     29c:	000d0efb 	strdeq	r0, [sp], -fp
     2a0:	01010101 	tsteq	r1, r1, lsl #2
     2a4:	01000000 	mrseq	r0, (UNDEF: 0)
     2a8:	61010000 	mrsvs	r0, (UNDEF: 1)
     2ac:	2f686372 	svccs	0x00686372
     2b0:	2f6d7261 	svccs	0x006d7261
     2b4:	6863616d 	stmdavs	r3!, {r0, r2, r3, r5, r6, r8, sp, lr}^
     2b8:	6e75732d 	cdpvs	3, 7, cr7, cr5, cr13, {1}
     2bc:	702f6978 	eorvc	r6, pc, r8, ror r9	; <UNPREDICTABLE>
     2c0:	74732f6d 	ldrbtvc	r2, [r3], #-3949	; 0xf6d
     2c4:	62646e61 	rsbvs	r6, r4, #1552	; 0x610
     2c8:	75732f79 	ldrbvc	r2, [r3, #-3961]!	; 0xf79
     2cc:	2f726570 	svccs	0x00726570
     2d0:	75736572 	ldrbvc	r6, [r3, #-1394]!	; 0x572
     2d4:	6100656d 	tstvs	r0, sp, ror #10
     2d8:	2f686372 	svccs	0x00686372
     2dc:	2f6d7261 	svccs	0x006d7261
     2e0:	6863616d 	stmdavs	r3!, {r0, r2, r3, r5, r6, r8, sp, lr}^
     2e4:	6e75732d 	cdpvs	3, 7, cr7, cr5, cr13, {1}
     2e8:	702f6978 	eorvc	r6, pc, r8, ror r9	; <UNPREDICTABLE>
     2ec:	74732f6d 	ldrbtvc	r2, [r3], #-3949	; 0xf6d
     2f0:	62646e61 	rsbvs	r6, r4, #1552	; 0x610
     2f4:	75732f79 	ldrbvc	r2, [r3, #-3961]!	; 0xf79
     2f8:	2f726570 	svccs	0x00726570
     2fc:	75736572 	ldrbvc	r6, [r3, #-1394]!	; 0x572
     300:	2e2f656d 	cfsh64cs	mvdx6, mvdx15, #61
     304:	2f2e2e2f 	svccs	0x002e2e2f
     308:	2e2f2e2e 	cdpcs	14, 2, cr2, cr15, cr14, {1}
     30c:	6e69002e 	cdpvs	0, 6, cr0, cr9, cr14, {1}
     310:	64756c63 	ldrbtvs	r6, [r5], #-3171	; 0xc63
     314:	696c2f65 	stmdbvs	ip!, {r0, r2, r5, r6, r8, r9, sl, fp, sp}^
     318:	2f78756e 	svccs	0x0078756e
     31c:	65776f70 	ldrbvs	r6, [r7, #-3952]!	; 0xf70
     320:	72000072 	andvc	r0, r0, #114	; 0x72
     324:	6d757365 	ldclvs	3, cr7, [r5, #-404]!	; 0xfffffe6c
     328:	635f3165 	cmpvs	pc, #1073741849	; 0x40000019
     32c:	7261705f 	rsbvc	r7, r1, #95	; 0x5f
     330:	00632e74 	rsbeq	r2, r3, r4, ror lr
     334:	70000001 	andvc	r0, r0, r1
     338:	79745f6d 	ldmdbvc	r4!, {r0, r2, r3, r5, r6, r8, r9, sl, fp, ip, lr}^
     33c:	2e736570 	mrccs	5, 3, r6, cr3, cr0, {3}
     340:	00020068 	andeq	r0, r2, r8, rrx
     344:	6d656d00 	stclvs	13, cr6, [r5, #-0]
     348:	6d63635f 	stclvs	3, cr6, [r3, #-380]!	; 0xfffffe84
     34c:	75732d75 	ldrbvc	r2, [r3, #-3445]!	; 0xd75
     350:	7769386e 	strbvc	r3, [r9, -lr, ror #16]!
     354:	2e317036 	mrccs	0, 1, r7, cr1, cr6, {1}
     358:	00020068 	andeq	r0, r2, r8, rrx
     35c:	6d656d00 	stclvs	13, cr6, [r5, #-0]
     360:	6b6c635f 	blvs	1b190e4 <__bss_end+0x1b15b94>
     364:	0200682e 	andeq	r6, r0, #3014656	; 0x2e0000
     368:	6d700000 	ldclvs	0, cr0, [r0, #-0]
     36c:	0200682e 	andeq	r6, r0, #3014656	; 0x2e0000
     370:	78610000 	stmdavc	r1!, {}^	; <UNPREDICTABLE>
     374:	65645f70 	strbvs	r5, [r4, #-3952]!	; 0xf70
     378:	646e6570 	strbtvs	r6, [lr], #-1392	; 0x570
     37c:	0300682e 	movweq	r6, #2094	; 0x82e
     380:	00000000 	andeq	r0, r0, r0
     384:	00dc0205 	sbcseq	r0, ip, r5, lsl #4
     388:	33030000 	movwcc	r0, #12288	; 0x3000
     38c:	10033001 	andne	r3, r3, r1
     390:	2e70032e 	cdpcs	3, 7, cr0, cr0, cr14, {1}
     394:	2e09032f 	cdpcs	3, 0, cr0, cr9, cr15, {1}
     398:	2f4b4b4d 	svccs	0x004b4b4d
     39c:	661a034c 	ldrvs	r0, [sl], -ip, asr #6
     3a0:	4e2e6b03 	vmulmi.f64	d6, d14, d3
     3a4:	364b504b 	strbcc	r5, [fp], -fp, asr #32
     3a8:	660c034b 	strvs	r0, [ip], -fp, asr #6
     3ac:	5703694b 	strpl	r6, [r3, -fp, asr #18]
     3b0:	661a034a 	ldrvs	r0, [sl], -sl, asr #6
     3b4:	6767834b 	strbvs	r8, [r7, -fp, asr #6]!
     3b8:	6848684b 	stmdavs	r8, {r0, r1, r3, r6, fp, sp, lr}^
     3bc:	ac081403 	cfstrsge	mvf1, [r8], {3}
     3c0:	302e1203 	eorcc	r1, lr, r3, lsl #4
     3c4:	01040200 	mrseq	r0, R12_usr
     3c8:	066606a0 	strbteq	r0, [r6], -r0, lsr #13
     3cc:	2e0b0335 	mcrcs	3, 0, r0, cr11, cr5, {1}
     3d0:	4c2e7503 	cfstr32mi	mvfx7, [lr], #-12
     3d4:	2a324d30 	bcs	c9389c <__bss_end+0xc9034c>
     3d8:	034e8432 	movteq	r8, #58418	; 0xe432
     3dc:	034b660a 	movteq	r6, #46602	; 0xb60a
     3e0:	2b314a0a 	blcs	c52c10 <__bss_end+0xc4f6c0>
     3e4:	2e2a034d 	cdpcs	3, 2, cr0, cr10, cr13, {2}
     3e8:	034d2f67 	movteq	r2, #57191	; 0xdf67
     3ec:	4f6600f9 	svcmi	0x006600f9
     3f0:	034f2933 	movteq	r2, #63795	; 0xf933
     3f4:	032f2e09 	teqeq	pc, #144	; 0x90
     3f8:	57032e29 	strpl	r2, [r3, -r9, lsr #28]
     3fc:	7efa032e 	cdpvc	3, 15, cr0, cr10, cr14, {1}
     400:	bc314b2e 	ldclt	11, cr4, [r1], #-184	; 0xffffff48
     404:	4a74032f 	bmi	1d010c8 <__bss_end+0x1cfdb78>
     408:	7fb8034b 	svcvc	0x00b8034b
     40c:	48842f66 	stmmi	r4, {r1, r2, r5, r6, r8, r9, sl, fp, sp}
     410:	000e0230 	andeq	r0, lr, r0, lsr r2
     414:	01490101 	cmpeq	r9, r1, lsl #2
     418:	00020000 	andeq	r0, r2, r0
     41c:	00000083 	andeq	r0, r0, r3, lsl #1
     420:	0efb0102 	cdpeq	1, 15, cr0, cr11, cr2, {0}
     424:	0101000d 	tsteq	r1, sp
     428:	00000101 	andeq	r0, r0, r1, lsl #2
     42c:	00000100 	andeq	r0, r0, r0, lsl #2
     430:	63726101 	cmnvs	r2, #1073741824	; 0x40000000
     434:	72612f68 	rsbvc	r2, r1, #416	; 0x1a0
     438:	616d2f6d 	cmnvs	sp, sp, ror #30
     43c:	732d6863 	teqvc	sp, #6488064	; 0x630000
     440:	69786e75 	ldmdbvs	r8!, {r0, r2, r4, r5, r6, r9, sl, fp, sp, lr}^
     444:	2f6d702f 	svccs	0x006d702f
     448:	6e617473 	mcrvs	4, 3, r7, cr1, cr3, {3}
     44c:	2f796264 	svccs	0x00796264
     450:	69002e2e 	stmdbvs	r0, {r1, r2, r3, r5, r9, sl, fp, sp}
     454:	756c636e 	strbvc	r6, [ip, #-878]!	; 0x36e
     458:	6c2f6564 	cfstr32vs	mvfx6, [pc], #-400	; 2d0 <set_pll+0xbc>
     45c:	78756e69 	ldmdavc	r5!, {r0, r3, r5, r6, r9, sl, fp, sp, lr}^
     460:	776f702f 	strbvc	r7, [pc, -pc, lsr #32]!
     464:	00007265 	andeq	r7, r0, r5, ror #4
     468:	645f6d70 	ldrbvs	r6, [pc], #-3440	; 470 <mem_status_clear+0x80>
     46c:	67756265 	ldrbvs	r6, [r5, -r5, ror #4]!
     470:	0100632e 	tsteq	r0, lr, lsr #6
     474:	6d700000 	ldclvs	0, cr0, [r0, #-0]
     478:	6265645f 	rsbvs	r6, r5, #1593835520	; 0x5f000000
     47c:	682e6775 	stmdavs	lr!, {r0, r2, r4, r5, r6, r8, r9, sl, sp, lr}
     480:	00000100 	andeq	r0, r0, r0, lsl #2
     484:	745f6d70 	ldrbvc	r6, [pc], #-3440	; 48c <save_mem_status+0x4>
     488:	73657079 	cmnvc	r5, #121	; 0x79
     48c:	0100682e 	tsteq	r0, lr, lsr #16
     490:	78610000 	stmdavc	r1!, {}^	; <UNPREDICTABLE>
     494:	65645f70 	strbvs	r5, [r4, #-3952]!	; 0xf70
     498:	646e6570 	strbtvs	r6, [lr], #-1392	; 0x570
     49c:	0200682e 	andeq	r6, r0, #3014656	; 0x2e0000
     4a0:	00000000 	andeq	r0, r0, r0
     4a4:	03800205 	orreq	r0, r0, #1342177280	; 0x50000000
     4a8:	0b030000 	bleq	c04b0 <__bss_end+0xbcf60>
     4ac:	02003001 	andeq	r3, r0, #1
     4b0:	6a4b0104 	bvs	12c08c8 <__bss_end+0x12bd378>
     4b4:	19361a51 	ldmdbne	r6!, {r0, r4, r6, r9, fp, ip}
     4b8:	2d4b1336 	stclcs	3, cr1, [fp, #-216]	; 0xffffff28
     4bc:	322b314b 	eorcc	r3, fp, #-1073741806	; 0xc0000012
     4c0:	4b133211 	blmi	4ccd0c <__bss_end+0x4c97bc>
     4c4:	2b314b2d 	blcs	c53180 <__bss_end+0xc4fc30>
     4c8:	32321132 	eorscc	r1, r2, #-2147483636	; 0x8000000c
     4cc:	672d2f2d 	strvs	r2, [sp, -sp, lsr #30]!
     4d0:	780336a0 	stmdavc	r3, {r5, r7, r9, sl, ip, sp}
     4d4:	2f2f2d2e 	svccs	0x002f2d2e
     4d8:	2f2d2f2f 	svccs	0x002d2f2f
     4dc:	2f672f4b 	svccs	0x00672f4b
     4e0:	2e770367 	cdpcs	3, 7, cr0, cr7, cr7, {3}
     4e4:	302e0c03 	eorcc	r0, lr, r3, lsl #24
     4e8:	31144f2c 	tstcc	r4, ip, lsr #30
     4ec:	4b9f2f4a 	blmi	fe7cc21c <__bss_end+0xfe7c8ccc>
     4f0:	2e770336 	mrccs	3, 3, r0, cr7, cr6, {1}
     4f4:	2f4b2c30 	svccs	0x004b2c30
     4f8:	4b2f2d2f 	blmi	bcb9bc <__bss_end+0xbc846c>
     4fc:	672f672f 	strvs	r6, [pc, -pc, lsr #14]!
     500:	302f312f 	eorcc	r3, pc, pc, lsr #2
     504:	484c3069 	stmdami	ip, {r0, r3, r5, r6, ip, sp}^
     508:	2b316768 	blcs	c5a2b0 <__bss_end+0xc56d60>
     50c:	69334b4c 	ldmdbvs	r3!, {r2, r3, r6, r8, r9, fp, lr}
     510:	474d4d2f 	strbmi	r4, [sp, -pc, lsr #26]
     514:	2c686e4d 	stclcs	14, cr6, [r8], #-308	; 0xfffffecc
     518:	032e7403 	teqeq	lr, #50331648	; 0x3000000
     51c:	75034a10 	strvc	r4, [r3, #-2576]	; 0xa10
     520:	4c2b312e 	stfmis	f3, [fp], #-184	; 0xffffff48
     524:	820b034b 	andhi	r0, fp, #738197505	; 0x2c000001
     528:	0e032f4a 	cdpeq	15, 0, cr2, cr3, cr10, {2}
     52c:	4a73039e 	bmi	1cc13ac <__bss_end+0x1cbde5c>
     530:	7703364b 	strvc	r3, [r3, -fp, asr #12]
     534:	4b2c302e 	blmi	b0c5f4 <__bss_end+0xb090a4>
     538:	2f2d2f2f 	svccs	0x002d2f2f
     53c:	2f672f4b 	svccs	0x00672f4b
     540:	03463367 	movteq	r3, #25447	; 0x6367
     544:	144a00cd 	strbne	r0, [sl], #-205	; 0xcd
     548:	671631a1 	ldrvs	r3, [r6, -r1, lsr #3]
     54c:	1531312f 	ldrne	r3, [r1, #-303]!	; 0x12f
     550:	34312f68 	ldrtcc	r2, [r1], #-3944	; 0xf68
     554:	2a4c4c30 	bcs	131361c <__bss_end+0x13100cc>
     558:	2c312f30 	ldccs	15, cr2, [r1], #-192	; 0xffffff40
     55c:	02023131 	andeq	r3, r2, #1073741836	; 0x4000000c
     560:	2f010100 	svccs	0x00010100
     564:	02000001 	andeq	r0, r0, #1
     568:	0000a900 	andeq	sl, r0, r0, lsl #18
     56c:	fb010200 	blx	40d76 <__bss_end+0x3d826>
     570:	01000d0e 	tsteq	r0, lr, lsl #26
     574:	00010101 	andeq	r0, r1, r1, lsl #2
     578:	00010000 	andeq	r0, r1, r0
     57c:	72610100 	rsbvc	r0, r1, #0
     580:	612f6863 	teqvs	pc, r3, ror #16
     584:	6d2f6d72 	stcvs	13, cr6, [pc, #-456]!	; 3c4 <mem_status_init+0x1c>
     588:	2d686361 	stclcs	3, cr6, [r8, #-388]!	; 0xfffffe7c
     58c:	786e7573 	stmdavc	lr!, {r0, r1, r4, r5, r6, r8, sl, ip, sp, lr}^
     590:	6d702f69 	ldclvs	15, cr2, [r0, #-420]!	; 0xfffffe5c
     594:	6174732f 	cmnvs	r4, pc, lsr #6
     598:	7962646e 	stmdbvc	r2!, {r1, r2, r3, r5, r6, sl, sp, lr}^
     59c:	002e2e2f 	eoreq	r2, lr, pc, lsr #28
     5a0:	68637261 	stmdavs	r3!, {r0, r5, r6, r9, ip, sp, lr}^
     5a4:	6d72612f 	ldfvse	f6, [r2, #-188]!	; 0xffffff44
     5a8:	63616d2f 	cmnvs	r1, #3008	; 0xbc0
     5ac:	75732d68 	ldrbvc	r2, [r3, #-3432]!	; 0xd68
     5b0:	2f69786e 	svccs	0x0069786e
     5b4:	732f6d70 	teqvc	pc, #7168	; 0x1c00
     5b8:	646e6174 	strbtvs	r6, [lr], #-372	; 0x174
     5bc:	2e2f7962 	cdpcs	9, 2, cr7, cr15, cr2, {3}
     5c0:	002e2f2e 	eoreq	r2, lr, lr, lsr #30
     5c4:	6c636e69 	stclvs	14, cr6, [r3], #-420	; 0xfffffe5c
     5c8:	2f656475 	svccs	0x00656475
     5cc:	756e696c 	strbvc	r6, [lr, #-2412]!	; 0x96c
     5d0:	6f702f78 	svcvs	0x00702f78
     5d4:	00726577 	rsbseq	r6, r2, r7, ror r5
     5d8:	6d656d00 	stclvs	13, cr6, [r5, #-0]
     5dc:	6d69745f 	cfstrdvs	mvd7, [r9, #-380]!	; 0xfffffe84
     5e0:	2e676e69 	cdpcs	14, 6, cr6, cr7, cr9, {3}
     5e4:	00010063 	andeq	r0, r1, r3, rrx
     5e8:	5f6d7000 	svcpl	0x006d7000
     5ec:	65707974 	ldrbvs	r7, [r0, #-2420]!	; 0x974
     5f0:	00682e73 	rsbeq	r2, r8, r3, ror lr
     5f4:	70000001 	andvc	r0, r0, r1
     5f8:	65645f6d 	strbvs	r5, [r4, #-3949]!	; 0xf6d
     5fc:	2e677562 	cdpcs	5, 6, cr7, cr7, cr2, {3}
     600:	00020068 	andeq	r0, r2, r8, rrx
     604:	70786100 	rsbsvc	r6, r8, r0, lsl #2
     608:	7065645f 	rsbvc	r6, r5, pc, asr r4
     60c:	2e646e65 	cdpcs	14, 6, cr6, cr4, cr5, {3}
     610:	00030068 	andeq	r0, r3, r8, rrx
     614:	05000000 	streq	r0, [r0, #-0]
     618:	0006f802 	andeq	pc, r6, r2, lsl #16
     61c:	010c0300 	mrseq	r0, LR_mon
     620:	66090314 			; <UNDEFINED> instruction: 0x66090314
     624:	3231302f 	eorscc	r3, r1, #47	; 0x2f
     628:	312f2f4d 	teqcc	pc, sp, asr #30
     62c:	4c851431 	cfstrsmi	mvf1, [r5], {49}	; 0x31
     630:	84851531 	strhi	r1, [r5], #1329	; 0x531
     634:	31301531 	teqcc	r0, r1, lsr r5
     638:	2f312f15 	svccs	0x00312f15
     63c:	2e700331 	mrccs	3, 3, r0, cr0, cr1, {1}
     640:	bc4a1903 	mcrrlt	9, 0, r1, sl, cr3
     644:	362e504b 	strtcc	r5, [lr], -fp, asr #32
     648:	2f823203 	svccs	0x00823203
     64c:	2e4c0330 	mcrcs	3, 2, r0, cr12, cr0, {1}
     650:	034a5503 	movteq	r5, #42243	; 0xa503
     654:	79032e32 	stmdbvc	r3, {r1, r4, r5, r9, sl, fp, sp}
     658:	2f4d352e 	svccs	0x004d352e
     65c:	667fa303 	ldrbtvs	sl, [pc], -r3, lsl #6
     660:	2f2f4d4e 	svccs	0x002f4d4e
     664:	034a1e03 	movteq	r1, #44547	; 0xae03
     668:	2b032e3a 	blcs	cbf58 <__bss_end+0xc8a08>
     66c:	2e2d139e 	mcrcs	3, 1, r1, cr13, cr14, {4}
     670:	2d2f2f2f 	stccs	15, cr2, [pc, #-188]!	; 5bc <show_mem_status+0x4c>
     674:	2c4c4f2d 	mcrrcs	15, 2, r4, ip, cr13
     678:	142e2003 	strtne	r2, [lr], #-3
     67c:	2f660903 	svccs	0x00660903
     680:	4d323130 	ldfmis	f3, [r2, #-192]!	; 0xffffff40
     684:	31a43131 			; <UNDEFINED> instruction: 0x31a43131
     688:	4e312f30 	mrcmi	15, 1, r2, cr1, cr0, {1}
     68c:	2f3031a4 	svccs	0x003031a4
     690:	00040231 	andeq	r0, r4, r1, lsr r2
     694:	00ac0101 	adceq	r0, ip, r1, lsl #2
     698:	00020000 	andeq	r0, r2, r0
     69c:	0000007f 	andeq	r0, r0, pc, ror r0
     6a0:	0efb0102 	cdpeq	1, 15, cr0, cr11, cr2, {0}
     6a4:	0101000d 	tsteq	r1, sp
     6a8:	00000101 	andeq	r0, r0, r1, lsl #2
     6ac:	00000100 	andeq	r0, r0, r0, lsl #2
     6b0:	63726101 	cmnvs	r2, #1073741824	; 0x40000000
     6b4:	72612f68 	rsbvc	r2, r1, #416	; 0x1a0
     6b8:	616d2f6d 	cmnvs	sp, sp, ror #30
     6bc:	732d6863 	teqvc	sp, #6488064	; 0x630000
     6c0:	69786e75 	ldmdbvs	r8!, {r0, r2, r4, r5, r6, r9, sl, fp, sp, lr}^
     6c4:	2f6d702f 	svccs	0x006d702f
     6c8:	6e617473 	mcrvs	4, 3, r7, cr1, cr3, {3}
     6cc:	2f796264 	svccs	0x00796264
     6d0:	61002e2e 	tstvs	r0, lr, lsr #28
     6d4:	2f686372 	svccs	0x00686372
     6d8:	2f6d7261 	svccs	0x006d7261
     6dc:	6863616d 	stmdavs	r3!, {r0, r2, r3, r5, r6, r8, sp, lr}^
     6e0:	6e75732d 	cdpvs	3, 7, cr7, cr5, cr13, {1}
     6e4:	702f6978 	eorvc	r6, pc, r8, ror r9	; <UNPREDICTABLE>
     6e8:	74732f6d 	ldrbtvc	r2, [r3], #-3949	; 0xf6d
     6ec:	62646e61 	rsbvs	r6, r4, #1552	; 0x610
     6f0:	2e2e2f79 	mcrcs	15, 1, r2, cr14, cr9, {3}
     6f4:	00002e2f 	andeq	r2, r0, pc, lsr #28
     6f8:	5f6d656d 	svcpl	0x006d656d
     6fc:	5f756d6d 	svcpl	0x00756d6d
     700:	632e6370 	teqvs	lr, #-1073741823	; 0xc0000001
     704:	00000100 	andeq	r0, r0, r0, lsl #2
     708:	682e6d70 	stmdavs	lr!, {r4, r5, r6, r8, sl, fp, sp, lr}
     70c:	00000200 	andeq	r0, r0, r0, lsl #4
     710:	745f6d70 	ldrbvc	r6, [pc], #-3440	; 718 <init_perfcounters+0x20>
     714:	73657079 	cmnvc	r5, #121	; 0x79
     718:	0100682e 	tsteq	r0, lr, lsr #16
     71c:	00000000 	andeq	r0, r0, r0
     720:	09000205 	stmdbeq	r0, {r0, r2, r9}
     724:	14190000 	ldrne	r0, [r9], #-0
     728:	4b4f4d4c 	blmi	13d3c60 <__bss_end+0x13d0710>
     72c:	314d4d4b 	cmpcc	sp, fp, asr #26
     730:	4e4c4c16 	mcrmi	12, 2, r4, cr12, cr6, {0}
     734:	bb4b2f4b 	bllt	12cc468 <__bss_end+0x12c8f18>
     738:	32131313 	andscc	r1, r3, #1275068416	; 0x4c000000
     73c:	2f2f2f4c 	svccs	0x002f2f4c
     740:	00020231 	andeq	r0, r2, r1, lsr r2
     744:	01af0101 			; <UNDEFINED> instruction: 0x01af0101
     748:	00020000 	andeq	r0, r2, r0
     74c:	00000049 	andeq	r0, r0, r9, asr #32
     750:	0efb0102 	cdpeq	1, 15, cr0, cr11, cr2, {0}
     754:	0101000d 	tsteq	r1, sp
     758:	00000101 	andeq	r0, r0, r1, lsl #2
     75c:	00000100 	andeq	r0, r0, r0, lsl #2
     760:	63726101 	cmnvs	r2, #1073741824	; 0x40000000
     764:	72612f68 	rsbvc	r2, r1, #416	; 0x1a0
     768:	616d2f6d 	cmnvs	sp, sp, ror #30
     76c:	732d6863 	teqvc	sp, #6488064	; 0x630000
     770:	69786e75 	ldmdbvs	r8!, {r0, r2, r4, r5, r6, r9, sl, fp, sp, lr}^
     774:	2f6d702f 	svccs	0x006d702f
     778:	6e617473 	mcrvs	4, 3, r7, cr1, cr3, {3}
     77c:	2f796264 	svccs	0x00796264
     780:	00002e2e 	andeq	r2, r0, lr, lsr #28
     784:	5f6d656d 	svcpl	0x006d656d
     788:	5f756d6d 	svcpl	0x00756d6d
     78c:	615f6370 	cmpvs	pc, r0, ror r3	; <UNPREDICTABLE>
     790:	532e6d73 	teqpl	lr, #7360	; 0x1cc0
     794:	00000100 	andeq	r0, r0, r0, lsl #2
     798:	02050000 	andeq	r0, r5, #0
     79c:	000009a0 	andeq	r0, r0, r0, lsr #19
     7a0:	2f010a03 	svccs	0x00010a03
     7a4:	2f2f332f 	svccs	0x002f332f
     7a8:	2f332f33 	svccs	0x00332f33
     7ac:	03302f6b 	teqeq	r0, #428	; 0x1ac
     7b0:	2f2f4a13 	svccs	0x002f4a13
     7b4:	302f2f2f 	eorcc	r2, pc, pc, lsr #30
     7b8:	2f2f2f2f 	svccs	0x002f2f2f
     7bc:	2f2f2f2f 	svccs	0x002f2f2f
     7c0:	2f2f2f2f 	svccs	0x002f2f2f
     7c4:	30302f2f 	eorscc	r2, r0, pc, lsr #30
     7c8:	2f2f2f2f 	svccs	0x002f2f2f
     7cc:	2f302f2f 	svccs	0x00302f2f
     7d0:	2f30302f 	svccs	0x0030302f
     7d4:	2f33302f 	svccs	0x0033302f
     7d8:	2f2f2f2f 	svccs	0x002f2f2f
     7dc:	2f2f2f33 	svccs	0x002f2f33
     7e0:	302f2f2f 	eorcc	r2, pc, pc, lsr #30
     7e4:	2f2f2f2f 	svccs	0x002f2f2f
     7e8:	2f2f2f2f 	svccs	0x002f2f2f
     7ec:	2f2f2f2f 	svccs	0x002f2f2f
     7f0:	30302f2f 	eorscc	r2, r0, pc, lsr #30
     7f4:	2f2f2f2f 	svccs	0x002f2f2f
     7f8:	2f302f2f 	svccs	0x00302f2f
     7fc:	2f30302f 	svccs	0x0030302f
     800:	342f2f2f 	strtcc	r2, [pc], #-3887	; 808 <delay_us+0x50>
     804:	2f2f2f2f 	svccs	0x002f2f2f
     808:	2f2f2f2f 	svccs	0x002f2f2f
     80c:	2f2f2f33 	svccs	0x002f2f33
     810:	2f2f2f2f 	svccs	0x002f2f2f
     814:	2f2f2f33 	svccs	0x002f2f33
     818:	332f2f2f 	teqcc	pc, #188	; 0xbc
     81c:	2f2f2f2f 	svccs	0x002f2f2f
     820:	2f342f2f 	svccs	0x00342f2f
     824:	2f2f2f2f 	svccs	0x002f2f2f
     828:	2f2f332f 	svccs	0x002f332f
     82c:	2f2f2f2f 	svccs	0x002f2f2f
     830:	2f2f332f 	svccs	0x002f332f
     834:	2f2f2f2f 	svccs	0x002f2f2f
     838:	2f2e0a03 	svccs	0x002e0a03
     83c:	2f2f2f2f 	svccs	0x002f2f2f
     840:	2f2f2f34 	svccs	0x002f2f34
     844:	332f2f2f 	teqcc	pc, #188	; 0xbc
     848:	2f2f2f2f 	svccs	0x002f2f2f
     84c:	09032f2f 	stmdbeq	r3, {r0, r1, r2, r3, r5, r8, r9, sl, fp, sp}
     850:	30302f2e 	eorscc	r2, r0, lr, lsr #30
     854:	2f2f2f30 	svccs	0x002f2f30
     858:	2f30332f 	svccs	0x0030332f
     85c:	2f2f2f2f 	svccs	0x002f2f2f
     860:	2f312f2f 	svccs	0x00312f2f
     864:	2f2f2f2f 	svccs	0x002f2f2f
     868:	2f2f2f2f 	svccs	0x002f2f2f
     86c:	2f2f2f2f 	svccs	0x002f2f2f
     870:	2f2f2f2f 	svccs	0x002f2f2f
     874:	2f2f2f2f 	svccs	0x002f2f2f
     878:	2f2f2f2f 	svccs	0x002f2f2f
     87c:	2f2f2f2f 	svccs	0x002f2f2f
     880:	2f2f2f2f 	svccs	0x002f2f2f
     884:	2f2f2f2f 	svccs	0x002f2f2f
     888:	2f302f2f 	svccs	0x00302f2f
     88c:	2f2f2f2f 	svccs	0x002f2f2f
     890:	2f2f2f2f 	svccs	0x002f2f2f
     894:	2f2f2f2f 	svccs	0x002f2f2f
     898:	2f302f31 	svccs	0x00302f31
     89c:	2f2e0a03 	svccs	0x002e0a03
     8a0:	30c02f2f 	sbccc	r2, r0, pc, lsr #30
     8a4:	34302f2f 	ldrtcc	r2, [r0], #-3887	; 0xf2f
     8a8:	f82f2f2f 			; <UNDEFINED> instruction: 0xf82f2f2f
     8ac:	302f2f30 	eorcc	r2, pc, r0, lsr pc	; <UNPREDICTABLE>
     8b0:	2f2e0d03 	svccs	0x002e0d03
     8b4:	0c03302f 	stceq	0, cr3, [r3], {47}	; 0x2f
     8b8:	2f2f2f82 	svccs	0x002f2f82
     8bc:	502f2f2f 	eorpl	r2, pc, pc, lsr #30
     8c0:	2f2f6d2f 	svccs	0x002f6d2f
     8c4:	2f2f3030 	svccs	0x002f3030
     8c8:	03302f30 	teqeq	r0, #192	; 0xc0
     8cc:	352e7ca4 	strcc	r7, [lr, #-3236]!	; 0xca4
     8d0:	312e3903 	teqcc	lr, r3, lsl #18
     8d4:	2e01e803 	cdpcs	8, 0, cr14, cr1, cr3, {0}
     8d8:	30323030 	eorscc	r3, r2, r0, lsr r0
     8dc:	30303030 	eorscc	r3, r0, r0, lsr r0
     8e0:	30303030 	eorscc	r3, r0, r0, lsr r0
     8e4:	30303030 	eorscc	r3, r0, r0, lsr r0
     8e8:	30303030 	eorscc	r3, r0, r0, lsr r0
     8ec:	30313030 	eorscc	r3, r1, r0, lsr r0
     8f0:	32303030 	eorscc	r3, r0, #48	; 0x30
     8f4:	01000202 	tsteq	r0, r2, lsl #4
     8f8:	00014001 	andeq	r4, r1, r1
     8fc:	a5000200 	strge	r0, [r0, #-512]	; 0x200
     900:	02000000 	andeq	r0, r0, #0
     904:	0d0efb01 	vstreq	d15, [lr, #-4]
     908:	01010100 	mrseq	r0, (UNDEF: 17)
     90c:	00000001 	andeq	r0, r0, r1
     910:	01000001 	tsteq	r0, r1
     914:	68637261 	stmdavs	r3!, {r0, r5, r6, r9, ip, sp, lr}^
     918:	6d72612f 	ldfvse	f6, [r2, #-188]!	; 0xffffff44
     91c:	63616d2f 	cmnvs	r1, #3008	; 0xbc0
     920:	75732d68 	ldrbvc	r2, [r3, #-3432]!	; 0xd68
     924:	2f69786e 	svccs	0x0069786e
     928:	732f6d70 	teqvc	pc, #7168	; 0x1c00
     92c:	646e6174 	strbtvs	r6, [lr], #-372	; 0x174
     930:	2e2f7962 	cdpcs	9, 2, cr7, cr15, cr2, {3}
     934:	7261002e 	rsbvc	r0, r1, #46	; 0x2e
     938:	612f6863 	teqvs	pc, r3, ror #16
     93c:	6d2f6d72 	stcvs	13, cr6, [pc, #-456]!	; 77c <reset_counter+0x8>
     940:	2d686361 	stclcs	3, cr6, [r8, #-388]!	; 0xfffffe7c
     944:	786e7573 	stmdavc	lr!, {r0, r1, r4, r5, r6, r8, sl, ip, sp, lr}^
     948:	6d702f69 	ldclvs	15, cr2, [r0, #-420]!	; 0xfffffe5c
     94c:	6174732f 	cmnvs	r4, pc, lsr #6
     950:	7962646e 	stmdbvc	r2!, {r1, r2, r3, r5, r6, sl, sp, lr}^
     954:	2f2e2e2f 	svccs	0x002e2e2f
     958:	6e69002e 	cdpvs	0, 6, cr0, cr9, cr14, {1}
     95c:	64756c63 	ldrbtvs	r6, [r5], #-3171	; 0xc63
     960:	696c2f65 	stmdbvs	ip!, {r0, r2, r5, r6, r8, r9, sl, fp, sp}^
     964:	2f78756e 	svccs	0x0078756e
     968:	65776f70 	ldrbvs	r6, [r7, #-3952]!	; 0xf70
     96c:	6d000072 	stcvs	0, cr0, [r0, #-456]	; 0xfffffe38
     970:	635f6d65 	cmpvs	pc, #6464	; 0x1940
     974:	632e7570 	teqvs	lr, #469762048	; 0x1c000000
     978:	00000100 	andeq	r0, r0, r0, lsl #2
     97c:	5f6d656d 	svcpl	0x006d656d
     980:	2e757063 	cdpcs	0, 7, cr7, cr5, cr3, {3}
     984:	00020068 	andeq	r0, r2, r8, rrx
     988:	5f6d7000 	svcpl	0x006d7000
     98c:	65707974 	ldrbvs	r7, [r0, #-2420]!	; 0x974
     990:	00682e73 	rsbeq	r2, r8, r3, ror lr
     994:	61000001 	tstvs	r0, r1
     998:	645f7078 	ldrbvs	r7, [pc], #-120	; 9a0 <save_sp>
     99c:	6e657065 	cdpvs	0, 6, cr7, cr5, cr5, {3}
     9a0:	00682e64 	rsbeq	r2, r8, r4, ror #28
     9a4:	00000003 	andeq	r0, r0, r3
     9a8:	00020500 	andeq	r0, r2, r0, lsl #10
     9ac:	0300000f 	movweq	r0, #15
     9b0:	1601018a 	strne	r0, [r1], -sl, lsl #3
     9b4:	f3f21003 	vswp	d17, d3
     9b8:	f6f3f3f8 			; <UNDEFINED> instruction: 0xf6f3f3f8
     9bc:	f3f3f3f6 	vrsra.u64	<illegal reg q15.5>, q11, #13
     9c0:	f6f6f3f6 			; <UNDEFINED> instruction: 0xf6f6f3f6
     9c4:	03f3f3f3 	mvnseq	pc, #-872415229	; 0xcc000003
     9c8:	f3f3f20b 	vsubl.u<illegal width 64>	<illegal reg q15.5>, d3, d11
     9cc:	f3f3f3f3 	vrsra.u64	<illegal reg q15.5>, <illegal reg q9.5>, #13
     9d0:	f3f21403 	vraddhn.i<illegal width 128>	d17, q1, <illegal reg q1.5>
     9d4:	03f21703 	mvnseq	r1, #786432	; 0xc0000
     9d8:	f3f3f209 	vsubl.u<illegal width 64>	<illegal reg q15.5>, d3, d9
     9dc:	1434f9f3 	ldrtne	pc, [r4], #-2547	; 0x9f3	; <UNPREDICTABLE>
     9e0:	f6f20e03 			; <UNDEFINED> instruction: 0xf6f20e03
     9e4:	f32f2ff3 			; <UNDEFINED> instruction: 0xf32f2ff3
     9e8:	2ff32f2f 	svccs	0x00f32f2f
     9ec:	f3f5f432 	vsri.32	d31, d18, #11
     9f0:	f3f3f3f3 	vrsra.u64	<illegal reg q15.5>, <illegal reg q9.5>, #13
     9f4:	03f3faf3 	mvnseq	pc, #995328	; 0xf3000
     9f8:	f3f9f217 	vrshr.u32	d31, d7, #7
     9fc:	2ff9f3f3 	svccs	0x00f9f3f3
     a00:	6814332f 	ldmdavs	r4, {r0, r1, r2, r3, r5, r8, r9, ip, sp}
     a04:	1534312f 	ldrne	r3, [r4, #-303]!	; 0x12f
     a08:	674a0b03 	strbvs	r0, [sl, -r3, lsl #22]
     a0c:	2f304e4b 	svccs	0x00304e4b
     a10:	2f2f3030 	svccs	0x002f3030
     a14:	302f302f 	eorcc	r3, pc, pc, lsr #32
     a18:	032f2f31 	teqeq	pc, #196	; 0xc4
     a1c:	03672e0d 	cmneq	r7, #208	; 0xd0
     a20:	2f4b6617 	svccs	0x004b6617
     a24:	312f302f 	teqcc	pc, pc, lsr #32
     a28:	114b1332 	cmpne	fp, r2, lsr r3
     a2c:	114b1333 	cmpne	fp, r3, lsr r3
     a30:	31841332 	orrcc	r1, r4, r2, lsr r3
     a34:	302f3015 	eorcc	r3, pc, r5, lsl r0	; <UNPREDICTABLE>
     a38:	01000202 	tsteq	r0, r2, lsl #4
     a3c:	00020701 	andeq	r0, r2, r1, lsl #14
     a40:	8f000200 	svchi	0x00000200
     a44:	02000000 	andeq	r0, r0, #0
     a48:	0d0efb01 	vstreq	d15, [lr, #-4]
     a4c:	01010100 	mrseq	r0, (UNDEF: 17)
     a50:	00000001 	andeq	r0, r0, r1
     a54:	01000001 	tsteq	r0, r1
     a58:	68637261 	stmdavs	r3!, {r0, r5, r6, r9, ip, sp, lr}^
     a5c:	6d72612f 	ldfvse	f6, [r2, #-188]!	; 0xffffff44
     a60:	63616d2f 	cmnvs	r1, #3008	; 0xbc0
     a64:	75732d68 	ldrbvc	r2, [r3, #-3432]!	; 0xd68
     a68:	2f69786e 	svccs	0x0069786e
     a6c:	732f6d70 	teqvc	pc, #7168	; 0x1c00
     a70:	646e6174 	strbtvs	r6, [lr], #-372	; 0x174
     a74:	2e2f7962 	cdpcs	9, 2, cr7, cr15, cr2, {3}
     a78:	6e69002e 	cdpvs	0, 6, cr0, cr9, cr14, {1}
     a7c:	64756c63 	ldrbtvs	r6, [r5], #-3171	; 0xc63
     a80:	696c2f65 	stmdbvs	ip!, {r0, r2, r5, r6, r8, r9, sl, fp, sp}^
     a84:	2f78756e 	svccs	0x0078756e
     a88:	65776f70 	ldrbvs	r6, [r7, #-3952]!	; 0xf70
     a8c:	6d000072 	stcvs	0, cr0, [r0, #-456]	; 0xfffffe38
     a90:	735f6d65 	cmpvc	pc, #6464	; 0x1940
     a94:	61697265 	cmnvs	r9, r5, ror #4
     a98:	00632e6c 	rsbeq	r2, r3, ip, ror #28
     a9c:	70000001 	andvc	r0, r0, r1
     aa0:	79745f6d 	ldmdbvc	r4!, {r0, r2, r3, r5, r6, r8, r9, sl, fp, ip, lr}^
     aa4:	2e736570 	mrccs	5, 3, r6, cr3, cr0, {3}
     aa8:	00010068 	andeq	r0, r1, r8, rrx
     aac:	6d656d00 	stclvs	13, cr6, [r5, #-0]
     ab0:	6d63635f 	stclvs	3, cr6, [r3, #-380]!	; 0xfffffe84
     ab4:	75732d75 	ldrbvc	r2, [r3, #-3445]!	; 0xd75
     ab8:	7769386e 	strbvc	r3, [r9, -lr, ror #16]!
     abc:	2e317036 	mrccs	0, 1, r7, cr1, cr6, {1}
     ac0:	00010068 	andeq	r0, r1, r8, rrx
     ac4:	70786100 	rsbsvc	r6, r8, r0, lsl #2
     ac8:	7065645f 	rsbvc	r6, r5, pc, asr r4
     acc:	2e646e65 	cdpcs	14, 6, cr6, cr4, cr5, {3}
     ad0:	00020068 	andeq	r0, r2, r8, rrx
     ad4:	05000000 	streq	r0, [r0, #-0]
     ad8:	0016b002 	andseq	fp, r6, r2
     adc:	01d90300 	bicseq	r0, r9, r0, lsl #6
     ae0:	34512e01 	ldrbcc	r2, [r1], #-3585	; 0xe01
     ae4:	080c034f 	stmdaeq	ip, {r0, r1, r2, r3, r6, r8, r9}
     ae8:	312f6774 	teqcc	pc, r4, ror r7	; <UNPREDICTABLE>
     aec:	2f67302f 	svccs	0x0067302f
     af0:	2e640331 	mcrcs	3, 3, r0, cr4, cr1, {1}
     af4:	75032d67 	strvc	r2, [r3, #-3431]	; 0xd67
     af8:	2e0c034a 	cdpcs	3, 0, cr0, cr12, cr10, {2}
     afc:	7ea9032d 	cdpvc	3, 10, cr0, cr9, cr13, {1}
     b00:	0b032e66 	bleq	cc4a0 <__bss_end+0xc8f50>
     b04:	2a322f2e 	bcs	c8c7c4 <__bss_end+0xc89274>
     b08:	17032a4e 	strne	r2, [r3, -lr, asr #20]
     b0c:	0330a52e 	teqeq	r0, #192937984	; 0xb800000
     b10:	63038214 	movwvs	r8, #12820	; 0x3214
     b14:	2e09032e 	cdpcs	3, 0, cr0, cr9, cr14, {1}
     b18:	4a120330 	bmi	4817e0 <__bss_end+0x47e290>
     b1c:	4d2f6768 	stcmi	7, cr6, [pc, #-416]!	; 984 <__turn_mmu_on+0x4>
     b20:	2e780336 	mrccs	3, 3, r0, cr8, cr6, {1}
     b24:	a7036c4c 	strge	r6, [r3, -ip, asr #24]
     b28:	a0146601 	andsge	r6, r4, r1, lsl #12
     b2c:	034c4b4c 	movteq	r4, #52044	; 0xcb4c
     b30:	032e0191 	teqeq	lr, #1073741860	; 0x40000024
     b34:	034a7ef4 	movteq	r7, #44788	; 0xaef4
     b38:	332e4a2a 	teqcc	lr, #172032	; 0x2a000
     b3c:	2d674d4b 	stclcs	13, cr4, [r7, #-300]!	; 0xfffffed4
     b40:	d0034b2f 	andle	r4, r3, pc, lsr #22
     b44:	b1034a00 	tstlt	r3, r0, lsl #20
     b48:	2c314a7f 	ldccs	10, cr4, [r1], #-508	; 0xfffffe04
     b4c:	2f2f2c2f 	svccs	0x002f2c2f
     b50:	312f2d30 	teqcc	pc, r0, lsr sp	; <UNPREDICTABLE>
     b54:	00c6034c 	sbceq	r0, r6, ip, asr #6
     b58:	7fbe034a 	svcvc	0x00be034a
     b5c:	2e18032e 	cdpcs	3, 1, cr0, cr8, cr14, {1}
     b60:	4b312b15 	blmi	c4b7bc <__bss_end+0xc4826c>
     b64:	0402002d 	streq	r0, [r2], #-45	; 0x2d
     b68:	65033201 	strvs	r3, [r3, #-513]	; 0x201
     b6c:	2e130366 	cdpcs	3, 1, cr0, cr3, cr6, {3}
     b70:	312e6d03 	teqcc	lr, r3, lsl #26
     b74:	502e1a03 	eorpl	r1, lr, r3, lsl #20
     b78:	9f2e5d03 	svcls	0x002e5d03
     b7c:	2f2f2f2f 	svccs	0x002f2f2f
     b80:	032e1603 	teqeq	lr, #3145728	; 0x300000
     b84:	032f660b 	teqeq	pc, #11534336	; 0xb00000
     b88:	2f9f4a59 	svccs	0x009f4a59
     b8c:	032f2f2f 	teqeq	pc, #188	; 0xbc
     b90:	2a166625 	bcs	59a42c <__bss_end+0x596edc>
     b94:	032d4b32 	teqeq	sp, #51200	; 0xc800
     b98:	02002e0b 	andeq	r2, r0, #176	; 0xb0
     b9c:	79030104 	stmdbvc	r3, {r2, r8}
     ba0:	665b034a 	ldrbvs	r0, [fp], -sl, asr #6
     ba4:	032e2503 	teqeq	lr, #12582912	; 0xc00000
     ba8:	25032e5b 	strcs	r2, [r3, #-3675]	; 0xe5b
     bac:	4a5b032e 	bmi	16c186c <__bss_end+0x16be31c>
     bb0:	4a24039f 	bmi	901a34 <__bss_end+0x8fe4e4>
     bb4:	034a5e03 	movteq	r5, #44547	; 0xae03
     bb8:	2a4c4a24 	bcs	1313450 <__bss_end+0x130ff00>
     bbc:	149e0a03 	ldrne	r0, [lr], #2563	; 0xa03
     bc0:	84143184 	ldrhi	r3, [r4], #-388	; 0x184
     bc4:	30332e30 	eorscc	r2, r3, r0, lsr lr
     bc8:	302c302c 	eorcc	r3, ip, ip, lsr #32
     bcc:	2d674d2f 	stclcs	13, cr4, [r7, #-188]!	; 0xffffff44
     bd0:	314b4b2f 	cmpcc	fp, pc, lsr #22
     bd4:	2f2c2f2c 	svccs	0x002c2f2c
     bd8:	2f2d302f 	svccs	0x002d302f
     bdc:	5e034c31 	mcrpl	12, 0, r4, cr3, cr1, {1}
     be0:	2e26034a 	cdpcs	3, 2, cr0, cr6, cr10, {2}
     be4:	152e2603 	strne	r2, [lr, #-1539]!	; 0x603
     be8:	2d4b312b 	stfcse	f3, [fp, #-172]	; 0xffffff54
     bec:	01040200 	mrseq	r0, R12_usr
     bf0:	66590332 			; <UNDEFINED> instruction: 0x66590332
     bf4:	032e1f03 	teqeq	lr, #12
     bf8:	03312e61 	teqeq	r1, #1552	; 0x610
     bfc:	03502e26 	cmpeq	r0, #608	; 0x260
     c00:	2f9f2e51 	svccs	0x009f2e51
     c04:	032f2f2f 	teqeq	pc, #188	; 0xbc
     c08:	0b032e22 	bleq	cc498 <__bss_end+0xc8f48>
     c0c:	4d032f66 	stcmi	15, cr2, [r3, #-408]	; 0xfffffe68
     c10:	2f2f9f4a 	svccs	0x002f9f4a
     c14:	32032f2f 	andcc	r2, r3, #188	; 0xbc
     c18:	322a1666 	eorcc	r1, sl, #106954752	; 0x6600000
     c1c:	0b032d4b 	bleq	cc150 <__bss_end+0xc8c00>
     c20:	0402002e 	streq	r0, [r2], #-46	; 0x2e
     c24:	4a790301 	bmi	1e41830 <__bss_end+0x1e3e2e0>
     c28:	03664e03 	cmneq	r6, #48	; 0x30
     c2c:	4e032e32 	mcrmi	14, 0, r2, cr3, cr2, {1}
     c30:	2e32032e 	cdpcs	3, 3, cr0, cr2, cr14, {1}
     c34:	9f4a4e03 	svcls	0x004a4e03
     c38:	034a3103 	movteq	r3, #41219	; 0xa103
     c3c:	31034a51 	tstcc	r3, r1, asr sl
     c40:	022a4c4a 	eoreq	r4, sl, #18944	; 0x4a00
     c44:	0101000a 	tsteq	r1, sl
     c48:	0000036a 	andeq	r0, r0, sl, ror #6
     c4c:	01360002 	teqeq	r6, r2
     c50:	01020000 	mrseq	r0, (UNDEF: 2)
     c54:	000d0efb 	strdeq	r0, [sp], -fp
     c58:	01010101 	tsteq	r1, r1, lsl #2
     c5c:	01000000 	mrseq	r0, (UNDEF: 0)
     c60:	61010000 	mrsvs	r0, (UNDEF: 1)
     c64:	2f686372 	svccs	0x00686372
     c68:	2f6d7261 	svccs	0x006d7261
     c6c:	6863616d 	stmdavs	r3!, {r0, r2, r3, r5, r6, r8, sp, lr}^
     c70:	6e75732d 	cdpvs	3, 7, cr7, cr5, cr13, {1}
     c74:	702f6978 	eorvc	r6, pc, r8, ror r9	; <UNPREDICTABLE>
     c78:	74732f6d 	ldrbtvc	r2, [r3], #-3949	; 0xf6d
     c7c:	62646e61 	rsbvs	r6, r4, #1552	; 0x610
     c80:	2e2e2f79 	mcrcs	15, 1, r2, cr14, cr9, {3}
     c84:	6f682f00 	svcvs	0x00682f00
     c88:	612f656d 	teqvs	pc, sp, ror #10
     c8c:	412f7767 	teqmi	pc, r7, ror #14
     c90:	5f543338 	svcpl	0x00543338
     c94:	2e312e35 	mrccs	14, 1, r2, cr1, cr5, {1}
     c98:	38412f31 	stmdacc	r1, {r0, r4, r5, r8, r9, sl, fp, sp}^
     c9c:	355f5433 	ldrbcc	r5, [pc, #-1075]	; 871 <delay_ms+0x31>
     ca0:	312e312e 	teqcc	lr, lr, lsr #2
     ca4:	6965575f 	stmdbvs	r5!, {r0, r1, r2, r3, r4, r6, r8, r9, sl, ip, lr}^
     ca8:	502f7564 	eorpl	r7, pc, r4, ror #10
     cac:	415f5445 	cmpmi	pc, r5, asr #8
     cb0:	5f543338 	svcpl	0x00543338
     cb4:	2e312e35 	mrccs	14, 1, r2, cr1, cr5, {1}
     cb8:	696c2f31 	stmdbvs	ip!, {r0, r4, r5, r8, r9, sl, fp, sp}^
     cbc:	65656863 	strbvs	r6, [r5, #-2147]!	; 0x863
     cc0:	74756f2f 	ldrbtvc	r6, [r5], #-3887	; 0xf2f
     cc4:	6e75732f 	cdpvs	3, 7, cr7, cr5, cr15, {1}
     cc8:	36776938 			; <UNDEFINED> instruction: 0x36776938
     ccc:	612f3170 	teqvs	pc, r0, ror r1	; <UNPREDICTABLE>
     cd0:	6f72646e 	svcvs	0x0072646e
     cd4:	632f6469 	teqvs	pc, #1761607680	; 0x69000000
     cd8:	6f6d6d6f 	svcvs	0x006d6d6f
     cdc:	75622f6e 	strbvc	r2, [r2, #-3950]!	; 0xf6e
     ce0:	72646c69 	rsbvc	r6, r4, #26880	; 0x6900
     ce4:	2f746f6f 	svccs	0x00746f6f
     ce8:	65747865 	ldrbvs	r7, [r4, #-2149]!	; 0x865
     cec:	6c616e72 	stclvs	14, cr6, [r1], #-456	; 0xfffffe38
     cf0:	6f6f742d 	svcvs	0x006f742d
     cf4:	6168636c 	cmnvs	r8, ip, ror #6
     cf8:	622f6e69 	eorvs	r6, pc, #1680	; 0x690
     cfc:	2e2f6e69 	cdpcs	14, 2, cr6, cr15, cr9, {3}
     d00:	696c2f2e 	stmdbvs	ip!, {r1, r2, r3, r5, r8, r9, sl, fp, sp}^
     d04:	63672f62 	cmnvs	r7, #392	; 0x188
     d08:	72612f63 	rsbvc	r2, r1, #396	; 0x18c
     d0c:	696c2d6d 	stmdbvs	ip!, {r0, r2, r3, r5, r6, r8, sl, fp, sp}^
     d10:	2d78756e 	cfldr64cs	mvdx7, [r8, #-440]!	; 0xfffffe48
     d14:	65756e67 	ldrbvs	r6, [r5, #-3687]!	; 0xe67
     d18:	2f696261 	svccs	0x00696261
     d1c:	2e362e34 	mrccs	14, 1, r2, cr6, cr4, {1}
     d20:	6e692f33 	mcrvs	15, 3, r2, cr9, cr3, {1}
     d24:	64756c63 	ldrbtvs	r6, [r5], #-3171	; 0xc63
     d28:	6e690065 	cdpvs	0, 6, cr0, cr9, cr5, {3}
     d2c:	64756c63 	ldrbtvs	r6, [r5], #-3171	; 0xc63
     d30:	696c2f65 	stmdbvs	ip!, {r0, r2, r5, r6, r8, r9, sl, fp, sp}^
     d34:	2f78756e 	svccs	0x0078756e
     d38:	65776f70 	ldrbvs	r6, [r7, #-3952]!	; 0xf70
     d3c:	6d000072 	stcvs	0, cr0, [r0, #-456]	; 0xfffffe38
     d40:	705f6d65 	subsvc	r6, pc, r5, ror #26
     d44:	746e6972 	strbtvc	r6, [lr], #-2418	; 0x972
     d48:	00632e6b 	rsbeq	r2, r3, fp, ror #28
     d4c:	70000001 	andvc	r0, r0, r1
     d50:	79745f6d 	ldmdbvc	r4!, {r0, r2, r3, r5, r6, r8, r9, sl, fp, ip, lr}^
     d54:	2e736570 	mrccs	5, 3, r6, cr3, cr0, {3}
     d58:	00010068 	andeq	r0, r1, r8, rrx
     d5c:	64747300 	ldrbtvs	r7, [r4], #-768	; 0x300
     d60:	2e677261 	cdpcs	2, 6, cr7, cr7, cr1, {3}
     d64:	00020068 	andeq	r0, r2, r8, rrx
     d68:	70786100 	rsbsvc	r6, r8, r0, lsl #2
     d6c:	7065645f 	rsbvc	r6, r5, pc, asr r4
     d70:	2e646e65 	cdpcs	14, 6, cr6, cr4, cr5, {3}
     d74:	00030068 	andeq	r0, r3, r8, rrx
     d78:	75623c00 	strbvc	r3, [r2, #-3072]!	; 0xc00
     d7c:	2d746c69 	ldclcs	12, cr6, [r4, #-420]!	; 0xfffffe5c
     d80:	003e6e69 	eorseq	r6, lr, r9, ror #28
     d84:	00000000 	andeq	r0, r0, r0
     d88:	f4020500 	vst3.8	{d0,d2,d4}, [r2], r0
     d8c:	0300001b 	movweq	r0, #27
     d90:	340101ce 	strcc	r0, [r1], #-462	; 0x1ce
     d94:	2c882a2c 	vstmiacs	r8, {s4-s47}
     d98:	7a032fa3 	bvc	ccc2c <__bss_end+0xc96dc>
     d9c:	522b332e 	eorpl	r3, fp, #-1207959552	; 0xb8000000
     da0:	02040200 	andeq	r0, r4, #0
     da4:	04020031 	streq	r0, [r2], #-49	; 0x31
     da8:	02008302 	andeq	r8, r0, #134217728	; 0x8000000
     dac:	002d0204 	eoreq	r0, sp, r4, lsl #4
     db0:	4b020402 	blmi	81dc0 <__bss_end+0x7e870>
     db4:	02040200 	andeq	r0, r4, #0
     db8:	0402002d 	streq	r0, [r2], #-45	; 0x2d
     dbc:	02002f02 	andeq	r2, r0, #8
     dc0:	032a0204 	teqeq	sl, #1073741824	; 0x40000000
     dc4:	17036671 	smlsdxne	r3, r1, r6, r6
     dc8:	04020066 	streq	r0, [r2], #-102	; 0x66
     dcc:	002e0602 	eoreq	r0, lr, r2, lsl #12
     dd0:	06020402 	streq	r0, [r2], -r2, lsl #8
     dd4:	04020030 	streq	r0, [r2], #-48	; 0x30
     dd8:	69332c02 	ldmdbvs	r3!, {r1, sl, fp, sp}
     ddc:	8200fe03 	andhi	pc, r0, #48	; 0x30
     de0:	852b2d32 	strhi	r2, [fp, #-3378]!	; 0xd32
     de4:	2e78038a 	cdpcs	3, 7, cr0, cr8, cr10, {4}
     de8:	ed03312f 	stfs	f3, [r3, #-188]	; 0xffffff44
     dec:	93032e7d 	movwls	r2, #15997	; 0x3e7d
     df0:	ed032e02 	stc	14, cr2, [r3, #-8]
     df4:	03302e7d 	teqeq	r0, #2000	; 0x7d0
     df8:	03820289 	orreq	r0, r2, #-1879048184	; 0x90000008
     dfc:	032e7df7 	teqeq	lr, #15808	; 0x3dc0
     e00:	032e0289 	teqeq	lr, #-1879048184	; 0x90000008
     e04:	522e7df7 	eorpl	r7, lr, #15808	; 0x3dc0
     e08:	034cbc46 	movteq	fp, #52294	; 0xcc46
     e0c:	032e028e 	teqeq	lr, #-536870904	; 0xe0000008
     e10:	36827ea8 	strcc	r7, [r2], r8, lsr #29
     e14:	2e7a032c 	cdpcs	3, 7, cr0, cr10, cr12, {1}
     e18:	032f876c 	teqeq	pc, #28311552	; 0x1b00000
     e1c:	2b332e7a 	blcs	ccc80c <__bss_end+0xcc92bc>
     e20:	032e1203 	teqeq	lr, #805306368	; 0x30000000
     e24:	032d2e7a 	teqeq	sp, #1952	; 0x7a0
     e28:	14032e70 	strne	r2, [r3], #-3696	; 0xe70
     e2c:	31474d2e 	cmpcc	r7, lr, lsr #26
     e30:	31633163 	cmncc	r3, r3, ror #2
     e34:	2e090363 	cdpcs	3, 0, cr0, cr9, cr3, {3}
     e38:	032e7703 	teqeq	lr, #786432	; 0xc0000
     e3c:	5d032e0c 	stcpl	14, cr2, [r3, #-48]	; 0xffffffd0
     e40:	66250366 	strtvs	r0, [r5], -r6, ror #6
     e44:	5b032c4c 	blpl	cbf7c <__bss_end+0xc8a2c>
     e48:	2e2a034a 	cdpcs	3, 2, cr0, cr10, cr10, {2}
     e4c:	9e390369 	cdpls	3, 3, cr0, cr9, cr9, {3}
     e50:	03660c03 	cmneq	r6, #768	; 0x300
     e54:	0c032e74 	stceq	14, cr2, [r3], {116}	; 0x74
     e58:	48302d2e 	ldmdami	r0!, {r1, r2, r3, r5, r8, sl, fp, sp}
     e5c:	00c10330 	sbceq	r0, r1, r0, lsr r3
     e60:	2e68032e 	cdpcs	3, 6, cr0, cr8, cr14, {1}
     e64:	4c2e5503 	cfstr32mi	mvfx5, [lr], #-12
     e68:	2e00cb03 	vmlacs.f64	d12, d0, d3
     e6c:	2e7fb503 	cdpcs	5, 7, cr11, cr15, cr3, {0}
     e70:	00c6034c 	sbceq	r0, r6, ip, asr #6
     e74:	7fba032e 	svcvc	0x00ba032e
     e78:	2f69312e 	svccs	0x0069312e
     e7c:	2e090329 	cdpcs	3, 0, cr0, cr9, cr9, {1}
     e80:	c103342a 	tstgt	r3, sl, lsr #8
     e84:	01340200 	teqeq	r4, r0, lsl #4
     e88:	31302c30 	teqcc	r0, r0, lsr ip
     e8c:	039e5403 	orrseq	r5, lr, #50331648	; 0x3000000
     e90:	03d67de6 	bicseq	r7, r6, #14720	; 0x3980
     e94:	0366029b 	cmneq	r6, #-1342177271	; 0xb0000009
     e98:	032e7de5 	teqeq	lr, #14656	; 0x3940
     e9c:	0382029c 	orreq	r0, r2, #-1073741815	; 0xc0000009
     ea0:	03d67df5 	bicseq	r7, r6, #15680	; 0x3d40
     ea4:	2f82028d 	svccs	0x0082028d
     ea8:	032e0b03 	teqeq	lr, #3072	; 0xc00
     eac:	032e7fb9 	teqeq	lr, #740	; 0x2e4
     eb0:	032e00c7 	teqeq	lr, #199	; 0xc7
     eb4:	03667fb9 	cmneq	r6, #740	; 0x2e4
     eb8:	032e7eae 	teqeq	lr, #2784	; 0xae0
     ebc:	ac03826f 	sfmge	f0, 1, [r3], {111}	; 0x6f
     ec0:	032ff202 	msreq	CPSR_fsxc, #536870912	; 0x20000000
     ec4:	f0032e63 			; <UNDEFINED> instruction: 0xf0032e63
     ec8:	9103d67d 	tstls	r3, sp, ror r6
     ecc:	ef036602 	svc	0x00036602
     ed0:	92032e7d 	andls	r2, r3, #2000	; 0x7d0
     ed4:	ff038202 			; <UNDEFINED> instruction: 0xff038202
     ed8:	8d03d67d 	stchi	6, cr13, [r3, #-500]	; 0xfffffe0c
     edc:	9f508202 	svcls	0x00508202
     ee0:	2f2e0d03 	svccs	0x002e0d03
     ee4:	03825203 	orreq	r5, r2, #805306368	; 0x30000000
     ee8:	03ba7dfb 			; <UNDEFINED> instruction: 0x03ba7dfb
     eec:	03660286 	cmneq	r6, #1610612744	; 0x60000008
     ef0:	032e7dfa 	teqeq	lr, #16000	; 0x3e80
     ef4:	03820287 	orreq	r0, r2, #1879048200	; 0x70000008
     ef8:	03d67e8a 	bicseq	r7, r6, #2208	; 0x8a0
     efc:	0382028d 	orreq	r0, r2, #-805306360	; 0xd0000008
     f00:	0c03663b 	stceq	6, cr6, [r3], {59}	; 0x3b
     f04:	2e740366 	cdpcs	3, 7, cr0, cr4, cr6, {3}
     f08:	2d2e0c03 	stccs	12, cr0, [lr, #-12]!
     f0c:	03304830 	teqeq	r0, #3145728	; 0x300000
     f10:	032e00c1 	teqeq	lr, #193	; 0xc1
     f14:	55032e68 	strpl	r2, [r3, #-3688]	; 0xe68
     f18:	cb034c2e 	blgt	d3fd8 <__bss_end+0xd0a88>
     f1c:	b5032e00 	strlt	r2, [r3, #-3584]	; 0xe00
     f20:	034c2e7f 	movteq	r2, #52863	; 0xce7f
     f24:	032e00c6 	teqeq	lr, #198	; 0xc6
     f28:	312e7fba 			; <UNDEFINED> instruction: 0x312e7fba
     f2c:	03292f69 	teqeq	r9, #420	; 0x1a4
     f30:	342a2e09 	strtcc	r2, [sl], #-3593	; 0xe09
     f34:	0200c103 	andeq	ip, r0, #-1073741824	; 0xc0000000
     f38:	2c300134 	ldfcss	f0, [r0], #-208	; 0xffffff30
     f3c:	54033130 	strpl	r3, [r3], #-304	; 0x130
     f40:	7cf1039e 	ldclvc	3, cr0, [r1], #632	; 0x278
     f44:	039003d6 	orrseq	r0, r0, #1476395011	; 0x58000003
     f48:	7cf00366 	ldclvc	3, cr0, [r0], #408	; 0x198
     f4c:	0391032e 	orrseq	r0, r1, #-1207959552	; 0xb8000000
     f50:	7d800382 	stcvc	3, cr0, [r0, #520]	; 0x208
     f54:	038203d6 	orreq	r0, r2, #1476395011	; 0x58000003
     f58:	0b032f82 	bleq	ccd68 <__bss_end+0xc9818>
     f5c:	7fb9032e 	svcvc	0x00b9032e
     f60:	00c7032e 	sbceq	r0, r7, lr, lsr #6
     f64:	7fb9032e 	svcvc	0x00b9032e
     f68:	7db90366 	ldcvc	3, cr0, [r9, #408]!	; 0x198
     f6c:	826f032e 	rsbhi	r0, pc, #-1207959552	; 0xb8000000
     f70:	f203a103 	vrhadd.s8	d10, d3, d3
     f74:	2e63032f 	cdpcs	3, 6, cr0, cr3, cr15, {1}
     f78:	d67cfb03 	ldrbtle	pc, [ip], -r3, lsl #22	; <UNPREDICTABLE>
     f7c:	66038603 	strvs	r8, [r3], -r3, lsl #12
     f80:	2e7cfa03 	vaddcs.f32	s31, s24, s6
     f84:	82038703 	andhi	r8, r3, #786432	; 0xc0000
     f88:	d67d8a03 	ldrbtle	r8, [sp], -r3, lsl #20
     f8c:	82038203 	andhi	r8, r3, #805306368	; 0x30000000
     f90:	0d039f50 	stceq	15, cr9, [r3, #-320]	; 0xfffffec0
     f94:	52032f2e 	andpl	r2, r3, #184	; 0xb8
     f98:	7d860382 	stcvc	3, cr0, [r6, #520]	; 0x208
     f9c:	02fb03ba 	rscseq	r0, fp, #-402653182	; 0xe8000002
     fa0:	7d850366 	stcvc	3, cr0, [r5, #408]	; 0x198
     fa4:	02fc032e 	rscseq	r0, ip, #-1207959552	; 0xb8000000
     fa8:	7d950382 	ldcvc	3, cr0, [r5, #520]	; 0x208
     fac:	038203d6 	orreq	r0, r2, #1476395011	; 0x58000003
     fb0:	00060282 	andeq	r0, r6, r2, lsl #5
     fb4:	00a90101 	adceq	r0, r9, r1, lsl #2
     fb8:	00020000 	andeq	r0, r2, r0
     fbc:	00000045 	andeq	r0, r0, r5, asr #32
     fc0:	0efb0102 	cdpeq	1, 15, cr0, cr11, cr2, {0}
     fc4:	0101000d 	tsteq	r1, sp
     fc8:	00000101 	andeq	r0, r0, r1, lsl #2
     fcc:	00000100 	andeq	r0, r0, r0, lsl #2
     fd0:	63726101 	cmnvs	r2, #1073741824	; 0x40000000
     fd4:	72612f68 	rsbvc	r2, r1, #416	; 0x1a0
     fd8:	616d2f6d 	cmnvs	sp, sp, ror #30
     fdc:	732d6863 	teqvc	sp, #6488064	; 0x630000
     fe0:	69786e75 	ldmdbvs	r8!, {r0, r2, r4, r5, r6, r9, sl, fp, sp, lr}^
     fe4:	2f6d702f 	svccs	0x006d702f
     fe8:	6e617473 	mcrvs	4, 3, r7, cr1, cr3, {3}
     fec:	2f796264 	svccs	0x00796264
     ff0:	00002e2e 	andeq	r2, r0, lr, lsr #28
     ff4:	5f6d656d 	svcpl	0x006d656d
     ff8:	6c766964 	ldclvs	9, cr6, [r6], #-400	; 0xfffffe70
     ffc:	532e6269 	teqpl	lr, #-1879048186	; 0x90000006
    1000:	00000100 	andeq	r0, r0, r0, lsl #2
    1004:	02050000 	andeq	r0, r5, #0
    1008:	000023e0 	andeq	r2, r0, r0, ror #7
    100c:	2f010e03 	svccs	0x00010e03
    1010:	2f2f302f 	svccs	0x002f302f
    1014:	2f302f2f 	svccs	0x00302f2f
    1018:	032f2f34 	teqeq	pc, #208	; 0xd0
    101c:	2f2e00d5 	svccs	0x002e00d5
    1020:	2f332f2f 	svccs	0x00332f2f
    1024:	2f2f2f2f 	svccs	0x002f2f2f
    1028:	2e02302f 	cdpcs	0, 0, cr3, cr2, cr15, {1}
    102c:	2f302f14 	svccs	0x00302f14
    1030:	2f4c302f 	svccs	0x004c302f
    1034:	2f2f2f34 	svccs	0x002f2f34
    1038:	2f2f2f2f 	svccs	0x002f2f2f
    103c:	2f2f2f2f 	svccs	0x002f2f2f
    1040:	142e0230 	strtne	r0, [lr], #-560	; 0x230
    1044:	2f302f2f 	svccs	0x00302f2f
    1048:	2f2f302f 	svccs	0x002f302f
    104c:	2f4c302f 	svccs	0x004c302f
    1050:	2f332f2f 	svccs	0x00332f2f
    1054:	2f2f2f2f 	svccs	0x002f2f2f
    1058:	2f2f2f33 	svccs	0x002f2f33
    105c:	02022f2f 	andeq	r2, r2, #188	; 0xbc
    1060:	82010100 	andhi	r0, r1, #0
    1064:	02000000 	andeq	r0, r0, #0
    1068:	00005400 	andeq	r5, r0, r0, lsl #8
    106c:	fb010200 	blx	41876 <__bss_end+0x3e326>
    1070:	01000d0e 	tsteq	r0, lr, lsl #26
    1074:	00010101 	andeq	r0, r1, r1, lsl #2
    1078:	00010000 	andeq	r0, r1, r0
    107c:	72610100 	rsbvc	r0, r1, #0
    1080:	612f6863 	teqvs	pc, r3, ror #16
    1084:	6d2f6d72 	stcvs	13, cr6, [pc, #-456]!	; ec4 <jump_to_resume0_nommu+0x84>
    1088:	2d686361 	stclcs	3, cr6, [r8, #-388]!	; 0xfffffe7c
    108c:	786e7573 	stmdavc	lr!, {r0, r1, r4, r5, r6, r8, sl, ip, sp, lr}^
    1090:	6d702f69 	ldclvs	15, cr2, [r0, #-420]!	; 0xfffffe5c
    1094:	6174732f 	cmnvs	r4, pc, lsr #6
    1098:	7962646e 	stmdbvc	r2!, {r1, r2, r3, r5, r6, sl, sp, lr}^
    109c:	002e2e2f 	eoreq	r2, lr, pc, lsr #28
    10a0:	6d656d00 	stclvs	13, cr6, [r5, #-0]
    10a4:	7669645f 			; <UNDEFINED> instruction: 0x7669645f
    10a8:	6362696c 	cmnvs	r2, #1769472	; 0x1b0000
    10ac:	0100632e 	tsteq	r0, lr, lsr #6
    10b0:	6d700000 	ldclvs	0, cr0, [r0, #-0]
    10b4:	7079745f 	rsbsvc	r7, r9, pc, asr r4
    10b8:	682e7365 	stmdavs	lr!, {r0, r2, r5, r6, r8, r9, ip, sp, lr}
    10bc:	00000100 	andeq	r0, r0, r0, lsl #2
    10c0:	02050000 	andeq	r0, r5, #0
    10c4:	000025bc 			; <UNDEFINED> instruction: 0x000025bc
    10c8:	114b1315 	cmpne	fp, r5, lsl r3
    10cc:	2b311732 	blcs	c46d9c <__bss_end+0xc4384c>
    10d0:	01040200 	mrseq	r0, R12_usr
    10d4:	064a0634 			; <UNDEFINED> instruction: 0x064a0634
    10d8:	0b032b31 	bleq	cbda4 <__bss_end+0xc8854>
    10dc:	33302b4a 	teqcc	r0, #75776	; 0x12800
    10e0:	4d30342a 	cfldrsmi	mvf3, [r0, #-168]!	; 0xffffff58
    10e4:	01000402 	tsteq	r0, r2, lsl #8
    10e8:	00012101 	andeq	r2, r1, r1, lsl #2
    10ec:	81000200 	mrshi	r0, R8_usr
    10f0:	02000000 	andeq	r0, r0, #0
    10f4:	0d0efb01 	vstreq	d15, [lr, #-4]
    10f8:	01010100 	mrseq	r0, (UNDEF: 17)
    10fc:	00000001 	andeq	r0, r0, r1
    1100:	01000001 	tsteq	r0, r1
    1104:	68637261 	stmdavs	r3!, {r0, r5, r6, r9, ip, sp, lr}^
    1108:	6d72612f 	ldfvse	f6, [r2, #-188]!	; 0xffffff44
    110c:	63616d2f 	cmnvs	r1, #3008	; 0xbc0
    1110:	75732d68 	ldrbvc	r2, [r3, #-3432]!	; 0xd68
    1114:	2f69786e 	svccs	0x0069786e
    1118:	732f6d70 	teqvc	pc, #7168	; 0x1c00
    111c:	646e6174 	strbtvs	r6, [lr], #-372	; 0x174
    1120:	2e2f7962 	cdpcs	9, 2, cr7, cr15, cr2, {3}
    1124:	6e69002e 	cdpvs	0, 6, cr0, cr9, cr14, {1}
    1128:	64756c63 	ldrbtvs	r6, [r5], #-3171	; 0xc63
    112c:	696c2f65 	stmdbvs	ip!, {r0, r2, r5, r6, r8, r9, sl, fp, sp}^
    1130:	2f78756e 	svccs	0x0078756e
    1134:	65776f70 	ldrbvs	r6, [r7, #-3952]!	; 0xf70
    1138:	6d000072 	stcvs	0, cr0, [r0, #-456]	; 0xfffffe38
    113c:	695f6d65 	ldmdbvs	pc, {r0, r2, r5, r6, r8, sl, fp, sp, lr}^	; <UNPREDICTABLE>
    1140:	632e746e 	teqvs	lr, #1845493760	; 0x6e000000
    1144:	00000100 	andeq	r0, r0, r0, lsl #2
    1148:	745f6d70 	ldrbvc	r6, [pc], #-3440	; 1150 <__save_processor_state+0x250>
    114c:	73657079 	cmnvc	r5, #121	; 0x79
    1150:	0100682e 	tsteq	r0, lr, lsr #16
    1154:	656d0000 	strbvs	r0, [sp, #-0]!
    1158:	6e695f6d 	cdpvs	15, 6, cr5, cr9, cr13, {3}
    115c:	00682e74 	rsbeq	r2, r8, r4, ror lr
    1160:	61000001 	tstvs	r0, r1
    1164:	645f7078 	ldrbvs	r7, [pc], #-120	; 116c <__save_processor_state+0x26c>
    1168:	6e657065 	cdpvs	0, 6, cr7, cr5, cr5, {3}
    116c:	00682e64 	rsbeq	r2, r8, r4, ror #28
    1170:	00000002 	andeq	r0, r0, r2
    1174:	14020500 	strne	r0, [r2], #-1280	; 0x500
    1178:	03000026 	movweq	r0, #38	; 0x26
    117c:	2f140122 	svccs	0x00140122
    1180:	032e0a03 	teqeq	lr, #12288	; 0x3000
    1184:	2d312e73 	ldccs	14, cr2, [r1, #-460]!	; 0xfffffe34
    1188:	2e0b032f 	cdpcs	3, 0, cr0, cr11, cr15, {1}
    118c:	2e75032d 	cdpcs	3, 7, cr0, cr5, cr13, {1}
    1190:	0402002f 	streq	r0, [r2], #-47	; 0x2f
    1194:	4a0b0302 	bmi	2c1da4 <__bss_end+0x2be854>
    1198:	02040200 	andeq	r0, r4, #0
    119c:	064a062d 	strbeq	r0, [sl], -sp, lsr #12
    11a0:	032e0b03 	teqeq	lr, #3072	; 0xc00
    11a4:	0c032e75 	stceq	14, cr2, [r3], {117}	; 0x75
    11a8:	02002d2e 	andeq	r2, r0, #2944	; 0xb80
    11ac:	002f0204 	eoreq	r0, pc, r4, lsl #4
    11b0:	2d020402 	cfstrscs	mvf0, [r2, #-8]
    11b4:	4c2c304e 	stcmi	0, cr3, [ip], #-312	; 0xfffffec8
    11b8:	034f2f4c 	movteq	r2, #65356	; 0xff4c
    11bc:	2c14820f 	lfmcs	f0, 1, [r4], {15}
    11c0:	02002b33 	andeq	r2, r0, #52224	; 0xcc00
    11c4:	00a20204 	adceq	r0, r2, r4, lsl #4
    11c8:	4b020402 	blmi	821d8 <__bss_end+0x7ec88>
    11cc:	02040200 	andeq	r0, r4, #0
    11d0:	0f036c80 	svceq	0x00036c80
    11d4:	304b1682 	subcc	r1, fp, r2, lsl #13
    11d8:	034c2f2b 	movteq	r2, #53035	; 0xcf2b
    11dc:	032f2e7a 	teqeq	pc, #1952	; 0x7a0
    11e0:	03502e0a 	cmpeq	r0, #160	; 0xa0
    11e4:	03c02e7a 	biceq	r2, r0, #1952	; 0x7a0
    11e8:	0b032e76 	bleq	ccbc8 <__bss_end+0xc9678>
    11ec:	4a0f032e 	bmi	3c1eac <__bss_end+0x3be95c>
    11f0:	2b304b17 	blcs	c13e54 <__bss_end+0xc10904>
    11f4:	7a034c2f 	bvc	d42b8 <__bss_end+0xd0d68>
    11f8:	2e0f032e 	cdpcs	3, 0, cr0, cr15, cr14, {1}
    11fc:	032e7203 	teqeq	lr, #805306368	; 0x30000000
    1200:	03a32e09 			; <UNDEFINED> instruction: 0x03a32e09
    1204:	09038278 	stmdbeq	r3, {r3, r4, r5, r6, r9, pc}
    1208:	0004022e 	andeq	r0, r4, lr, lsr #4
    120c:	00a80101 	adceq	r0, r8, r1, lsl #2
    1210:	00020000 	andeq	r0, r2, r0
    1214:	0000005f 	andeq	r0, r0, pc, asr r0
    1218:	0efb0102 	cdpeq	1, 15, cr0, cr11, cr2, {0}
    121c:	0101000d 	tsteq	r1, sp
    1220:	00000101 	andeq	r0, r0, r1, lsl #2
    1224:	00000100 	andeq	r0, r0, r0, lsl #2
    1228:	63726101 	cmnvs	r2, #1073741824	; 0x40000000
    122c:	72612f68 	rsbvc	r2, r1, #416	; 0x1a0
    1230:	616d2f6d 	cmnvs	sp, sp, ror #30
    1234:	732d6863 	teqvc	sp, #6488064	; 0x630000
    1238:	69786e75 	ldmdbvs	r8!, {r0, r2, r4, r5, r6, r9, sl, fp, sp, lr}^
    123c:	2f6d702f 	svccs	0x006d702f
    1240:	6e617473 	mcrvs	4, 3, r7, cr1, cr3, {3}
    1244:	2f796264 	svccs	0x00796264
    1248:	00002e2e 	andeq	r2, r0, lr, lsr #28
    124c:	5f6d656d 	svcpl	0x006d656d
    1250:	6f697067 	svcvs	0x00697067
    1254:	0100632e 	tsteq	r0, lr, lsr #6
    1258:	6d700000 	ldclvs	0, cr0, [r0, #-0]
    125c:	7079745f 	rsbsvc	r7, r9, pc, asr r4
    1260:	682e7365 	stmdavs	lr!, {r0, r2, r5, r6, r8, r9, ip, sp, lr}
    1264:	00000100 	andeq	r0, r0, r0, lsl #2
    1268:	5f6d656d 	svcpl	0x006d656d
    126c:	6f697067 	svcvs	0x00697067
    1270:	0100682e 	tsteq	r0, lr, lsr #16
    1274:	00000000 	andeq	r0, r0, r0
    1278:	27b00205 	ldrcs	r0, [r0, r5, lsl #4]!
    127c:	0f030000 	svceq	0x00030000
    1280:	29331101 	ldmdbcs	r3!, {r0, r8, ip}
    1284:	0402004f 	streq	r0, [r2], #-79	; 0x4f
    1288:	02002f02 	andeq	r2, r0, #8
    128c:	002d0204 	eoreq	r0, sp, r4, lsl #4
    1290:	2f020402 	svccs	0x00020402
    1294:	02040200 	andeq	r0, r4, #0
    1298:	0e03322d 	cdpeq	2, 0, cr3, cr3, cr13, {1}
    129c:	2933114a 	ldmdbcs	r3!, {r1, r3, r6, r8, ip}
    12a0:	0402004f 	streq	r0, [r2], #-79	; 0x4f
    12a4:	02002f02 	andeq	r2, r0, #8
    12a8:	03490204 	movteq	r0, #37380	; 0x9204
    12ac:	154e4a0c 	strbne	r4, [lr, #-2572]	; 0xa0c
    12b0:	2f2dde83 	svccs	0x002dde83
    12b4:	0008022d 	andeq	r0, r8, sp, lsr #4
    12b8:	00fc0101 	rscseq	r0, ip, r1, lsl #2
    12bc:	00020000 	andeq	r0, r2, r0
    12c0:	00000081 	andeq	r0, r0, r1, lsl #1
    12c4:	0efb0102 	cdpeq	1, 15, cr0, cr11, cr2, {0}
    12c8:	0101000d 	tsteq	r1, sp
    12cc:	00000101 	andeq	r0, r0, r1, lsl #2
    12d0:	00000100 	andeq	r0, r0, r0, lsl #2
    12d4:	63726101 	cmnvs	r2, #1073741824	; 0x40000000
    12d8:	72612f68 	rsbvc	r2, r1, #416	; 0x1a0
    12dc:	616d2f6d 	cmnvs	sp, sp, ror #30
    12e0:	732d6863 	teqvc	sp, #6488064	; 0x630000
    12e4:	69786e75 	ldmdbvs	r8!, {r0, r2, r4, r5, r6, r9, sl, fp, sp, lr}^
    12e8:	2f6d702f 	svccs	0x006d702f
    12ec:	6e617473 	mcrvs	4, 3, r7, cr1, cr3, {3}
    12f0:	2f796264 	svccs	0x00796264
    12f4:	69002e2e 	stmdbvs	r0, {r1, r2, r3, r5, r9, sl, fp, sp}
    12f8:	756c636e 	strbvc	r6, [ip, #-878]!	; 0x36e
    12fc:	6c2f6564 	cfstr32vs	mvfx6, [pc], #-400	; 1174 <__save_processor_state+0x274>
    1300:	78756e69 	ldmdavc	r5!, {r0, r3, r5, r6, r9, sl, fp, sp, lr}^
    1304:	776f702f 	strbvc	r7, [pc, -pc, lsr #32]!
    1308:	00007265 	andeq	r7, r0, r5, ror #4
    130c:	5f6d656d 	svcpl	0x006d656d
    1310:	2e726d74 	mrccs	13, 3, r6, cr2, cr4, {3}
    1314:	00010063 	andeq	r0, r1, r3, rrx
    1318:	5f6d7000 	svcpl	0x006d7000
    131c:	65707974 	ldrbvs	r7, [r0, #-2420]!	; 0x974
    1320:	00682e73 	rsbeq	r2, r8, r3, ror lr
    1324:	6d000001 	stcvs	0, cr0, [r0, #-4]
    1328:	745f6d65 	ldrbvc	r6, [pc], #-3429	; 1330 <__restore_processor_state+0x2c>
    132c:	682e726d 	stmdavs	lr!, {r0, r2, r3, r5, r6, r9, ip, sp, lr}
    1330:	00000100 	andeq	r0, r0, r0, lsl #2
    1334:	5f707861 	svcpl	0x00707861
    1338:	65706564 	ldrbvs	r6, [r0, #-1380]!	; 0x564
    133c:	682e646e 	stmdavs	lr!, {r1, r2, r3, r5, r6, sl, sp, lr}
    1340:	00000200 	andeq	r0, r0, r0, lsl #4
    1344:	02050000 	andeq	r0, r5, #0
    1348:	00002850 	andeq	r2, r0, r0, asr r8
    134c:	18011103 	stmdane	r1, {r0, r1, r8, ip}
    1350:	342e7a03 	strtcc	r7, [lr], #-2563	; 0xa03
    1354:	032b312b 	teqeq	fp, #-1073741814	; 0xc000000a
    1358:	7703820c 	strvc	r8, [r3, -ip, lsl #4]
    135c:	4b4b2f2e 	blmi	12cd01c <__bss_end+0x12c9acc>
    1360:	4d4b4b4b 	vstrmi	d20, [fp, #-300]	; 0xfffffed4
    1364:	142e0f03 	strtne	r0, [lr], #-3843	; 0xf03
    1368:	09033064 	stmdbeq	r3, {r2, r5, r6, ip, sp}
    136c:	2e77032e 	cdpcs	3, 7, cr0, cr7, cr14, {1}
    1370:	4b4b4b2f 	blmi	12d4034 <__bss_end+0x12d0ae4>
    1374:	034d4b4b 	movteq	r4, #56139	; 0xdb4b
    1378:	2c162e0f 	ldccs	14, cr2, [r6], {15}
    137c:	2c302c30 	ldccs	12, cr2, [r0], #-192	; 0xffffff40
    1380:	4b2f2951 	blmi	bcb8cc <__bss_end+0xbc837c>
    1384:	2e0f034d 	cdpcs	3, 0, cr0, cr15, cr13, {2}
    1388:	4b293313 	blmi	a4dfdc <__bss_end+0xa4aa8c>
    138c:	2f2f2c2f 	svccs	0x002f2c2f
    1390:	2e120331 	mrccs	3, 0, r0, cr2, cr1, {1}
    1394:	4d68bb15 	fstmdbxmi	r8!, {d27-d36}	;@ Deprecated
    1398:	12036969 	andne	r6, r3, #1720320	; 0x1a4000
    139c:	69bb142e 	ldmibvs	fp!, {r1, r2, r3, r5, sl, ip}
    13a0:	11036769 	tstne	r3, r9, ror #14
    13a4:	296b142e 	stmdbcs	fp!, {r1, r2, r3, r5, sl, ip}^
    13a8:	75033532 	strvc	r3, [r3, #-1330]	; 0x532
    13ac:	30312f2e 	eorscc	r2, r1, lr, lsr #30
    13b0:	672f2f2d 	strvs	r2, [pc, -sp, lsr #30]!
    13b4:	00020269 	andeq	r0, r2, r9, ror #4
    13b8:	00af0101 	adceq	r0, pc, r1, lsl #2
    13bc:	00020000 	andeq	r0, r2, r0
    13c0:	00000087 	andeq	r0, r0, r7, lsl #1
    13c4:	0efb0102 	cdpeq	1, 15, cr0, cr11, cr2, {0}
    13c8:	0101000d 	tsteq	r1, sp
    13cc:	00000101 	andeq	r0, r0, r1, lsl #2
    13d0:	00000100 	andeq	r0, r0, r0, lsl #2
    13d4:	63726101 	cmnvs	r2, #1073741824	; 0x40000000
    13d8:	72612f68 	rsbvc	r2, r1, #416	; 0x1a0
    13dc:	616d2f6d 	cmnvs	sp, sp, ror #30
    13e0:	732d6863 	teqvc	sp, #6488064	; 0x630000
    13e4:	69786e75 	ldmdbvs	r8!, {r0, r2, r4, r5, r6, r9, sl, fp, sp, lr}^
    13e8:	2f6d702f 	svccs	0x006d702f
    13ec:	6e617473 	mcrvs	4, 3, r7, cr1, cr3, {3}
    13f0:	2f796264 	svccs	0x00796264
    13f4:	69002e2e 	stmdbvs	r0, {r1, r2, r3, r5, r9, sl, fp, sp}
    13f8:	756c636e 	strbvc	r6, [ip, #-878]!	; 0x36e
    13fc:	6c2f6564 	cfstr32vs	mvfx6, [pc], #-400	; 1274 <__save_processor_state+0x374>
    1400:	78756e69 	ldmdavc	r5!, {r0, r3, r5, r6, r9, sl, fp, sp, lr}^
    1404:	776f702f 	strbvc	r7, [pc, -pc, lsr #32]!
    1408:	00007265 	andeq	r7, r0, r5, ror #4
    140c:	5f6d656d 	svcpl	0x006d656d
    1410:	74736d74 	ldrbtvc	r6, [r3], #-3444	; 0xd74
    1414:	632e706d 	teqvs	lr, #109	; 0x6d
    1418:	00000100 	andeq	r0, r0, r0, lsl #2
    141c:	745f6d70 	ldrbvc	r6, [pc], #-3440	; 1424 <__restore_processor_state+0x120>
    1420:	73657079 	cmnvc	r5, #121	; 0x79
    1424:	0100682e 	tsteq	r0, lr, lsr #16
    1428:	656d0000 	strbvs	r0, [sp, #-0]!
    142c:	6d745f6d 	ldclvs	15, cr5, [r4, #-436]!	; 0xfffffe4c
    1430:	706d7473 	rsbvc	r7, sp, r3, ror r4
    1434:	0100682e 	tsteq	r0, lr, lsr #16
    1438:	78610000 	stmdavc	r1!, {}^	; <UNPREDICTABLE>
    143c:	65645f70 	strbvs	r5, [r4, #-3952]!	; 0xf70
    1440:	646e6570 	strbtvs	r6, [lr], #-1392	; 0x570
    1444:	0200682e 	andeq	r6, r0, #3014656	; 0x2e0000
    1448:	00000000 	andeq	r0, r0, r0
    144c:	2a380205 	bcs	e01c68 <__bss_end+0xdfe718>
    1450:	11030000 	mrsne	r0, (UNDEF: 3)
    1454:	312b1501 	teqcc	fp, r1, lsl #10
    1458:	2a512b4d 	bcs	144c194 <__bss_end+0x1448c44>
    145c:	0f034d2f 	svceq	0x00034d2f
    1460:	3064142e 	rsbcc	r1, r4, lr, lsr #8
    1464:	4d2f2a32 	vstmdbmi	pc!, {s4-s53}
    1468:	01000202 	tsteq	r0, r2, lsl #4
    146c:	00011d01 	andeq	r1, r1, r1, lsl #26
    1470:	7b000200 	blvc	1c78 <utoa+0x84>
    1474:	02000000 	andeq	r0, r0, #0
    1478:	0d0efb01 	vstreq	d15, [lr, #-4]
    147c:	01010100 	mrseq	r0, (UNDEF: 17)
    1480:	00000001 	andeq	r0, r0, r1
    1484:	01000001 	tsteq	r0, r1
    1488:	68637261 	stmdavs	r3!, {r0, r5, r6, r9, ip, sp, lr}^
    148c:	6d72612f 	ldfvse	f6, [r2, #-188]!	; 0xffffff44
    1490:	63616d2f 	cmnvs	r1, #3008	; 0xbc0
    1494:	75732d68 	ldrbvc	r2, [r3, #-3432]!	; 0xd68
    1498:	2f69786e 	svccs	0x0069786e
    149c:	732f6d70 	teqvc	pc, #7168	; 0x1c00
    14a0:	646e6174 	strbtvs	r6, [lr], #-372	; 0x174
    14a4:	2e2f7962 	cdpcs	9, 2, cr7, cr15, cr2, {3}
    14a8:	6e69002e 	cdpvs	0, 6, cr0, cr9, cr14, {1}
    14ac:	64756c63 	ldrbtvs	r6, [r5], #-3171	; 0xc63
    14b0:	696c2f65 	stmdbvs	ip!, {r0, r2, r5, r6, r8, r9, sl, fp, sp}^
    14b4:	2f78756e 	svccs	0x0078756e
    14b8:	65776f70 	ldrbvs	r6, [r7, #-3952]!	; 0xf70
    14bc:	6d000072 	stcvs	0, cr0, [r0, #-456]	; 0xfffffe38
    14c0:	685f6d65 	ldmdavs	pc, {r0, r2, r5, r6, r8, sl, fp, sp, lr}^	; <UNPREDICTABLE>
    14c4:	69707377 	ldmdbvs	r0!, {r0, r1, r2, r4, r5, r6, r8, r9, ip, sp, lr}^
    14c8:	636f6c6e 	cmnvs	pc, #28160	; 0x6e00
    14cc:	00632e6b 	rsbeq	r2, r3, fp, ror #28
    14d0:	70000001 	andvc	r0, r0, r1
    14d4:	79745f6d 	ldmdbvc	r4!, {r0, r2, r3, r5, r6, r8, r9, sl, fp, ip, lr}^
    14d8:	2e736570 	mrccs	5, 3, r6, cr3, cr0, {3}
    14dc:	00010068 	andeq	r0, r1, r8, rrx
    14e0:	70786100 	rsbsvc	r6, r8, r0, lsl #2
    14e4:	7065645f 	rsbvc	r6, r5, pc, asr r4
    14e8:	2e646e65 	cdpcs	14, 6, cr6, cr4, cr5, {3}
    14ec:	00020068 	andeq	r0, r2, r8, rrx
    14f0:	05000000 	streq	r0, [r0, #-0]
    14f4:	002a9002 	eoreq	r9, sl, r2
    14f8:	00c70300 	sbceq	r0, r7, r0, lsl #6
    14fc:	302c1501 	eorcc	r1, ip, r1, lsl #10
    1500:	4b2a4e33 	blmi	a94dd4 <__bss_end+0xa91884>
    1504:	2e0e0369 	cdpcs	3, 0, cr0, cr14, cr9, {3}
    1508:	2e7fb503 	cdpcs	5, 7, cr11, cr15, cr3, {0}
    150c:	4a00d303 	bmi	36120 <__bss_end+0x32bd0>
    1510:	31473147 	cmpcc	r7, r7, asr #2
    1514:	0c039b69 	stceq	11, cr9, [r3], {105}	; 0x69
    1518:	7fbf0366 	svcvc	0x00bf0366
    151c:	2e3b034a 	cdpcs	3, 3, cr0, cr11, cr10, {2}
    1520:	032f4f4b 	teqeq	pc, #300	; 0x12c
    1524:	0314660e 	tsteq	r4, #14680064	; 0xe00000
    1528:	032e7fae 	teqeq	lr, #696	; 0x2b8
    152c:	032e00d2 	teqeq	lr, #210	; 0xd2
    1530:	03667fae 	cmneq	r6, #696	; 0x2b8
    1534:	032e00d2 	teqeq	lr, #210	; 0xd2
    1538:	032e7fae 	teqeq	lr, #696	; 0x2b8
    153c:	032e00d2 	teqeq	lr, #210	; 0xd2
    1540:	032e7fae 	teqeq	lr, #696	; 0x2b8
    1544:	032e00d8 	teqeq	lr, #216	; 0xd8
    1548:	fc034a0e 	stc2	10, cr4, [r3], {14}
    154c:	8c03017e 	stfhis	f0, [r3], {126}	; 0x7e
    1550:	312b4a01 	teqcc	fp, r1, lsl #20
    1554:	9b693163 	blls	1a4dae8 <__bss_end+0x1a4a598>
    1558:	03660c03 	cmneq	r6, #768	; 0x300
    155c:	034a7f86 	movteq	r7, #44934	; 0xaf86
    1560:	4f2e00f5 	svcmi	0x002e00f5
    1564:	4a0e032f 	bmi	382228 <__bss_end+0x37ecd8>
    1568:	7ef50314 	mrcvc	3, 7, r0, cr5, cr4, {0}
    156c:	018b032e 	orreq	r0, fp, lr, lsr #6
    1570:	7ef5032e 	cdpvc	3, 15, cr0, cr5, cr14, {1}
    1574:	018b0366 	orreq	r0, fp, r6, ror #6
    1578:	7ef5032e 	cdpvc	3, 15, cr0, cr5, cr14, {1}
    157c:	018b032e 	orreq	r0, fp, lr, lsr #6
    1580:	7ef5032e 	cdpvc	3, 15, cr0, cr5, cr14, {1}
    1584:	0191032e 	orrseq	r0, r1, lr, lsr #6
    1588:	0004022e 	andeq	r0, r4, lr, lsr #4
    158c:	018e0101 	orreq	r0, lr, r1, lsl #2
    1590:	00020000 	andeq	r0, r2, r0
    1594:	00000099 	muleq	r0, r9, r0
    1598:	0efb0102 	cdpeq	1, 15, cr0, cr11, cr2, {0}
    159c:	0101000d 	tsteq	r1, sp
    15a0:	00000101 	andeq	r0, r0, r1, lsl #2
    15a4:	00000100 	andeq	r0, r0, r0, lsl #2
    15a8:	63726101 	cmnvs	r2, #1073741824	; 0x40000000
    15ac:	72612f68 	rsbvc	r2, r1, #416	; 0x1a0
    15b0:	616d2f6d 	cmnvs	sp, sp, ror #30
    15b4:	732d6863 	teqvc	sp, #6488064	; 0x630000
    15b8:	69786e75 	ldmdbvs	r8!, {r0, r2, r4, r5, r6, r9, sl, fp, sp, lr}^
    15bc:	2f6d702f 	svccs	0x006d702f
    15c0:	6e617473 	mcrvs	4, 3, r7, cr1, cr3, {3}
    15c4:	2f796264 	svccs	0x00796264
    15c8:	69002e2e 	stmdbvs	r0, {r1, r2, r3, r5, r9, sl, fp, sp}
    15cc:	756c636e 	strbvc	r6, [ip, #-878]!	; 0x36e
    15d0:	6c2f6564 	cfstr32vs	mvfx6, [pc], #-400	; 1448 <__restore_processor_state+0x144>
    15d4:	78756e69 	ldmdavc	r5!, {r0, r3, r5, r6, r9, sl, fp, sp, lr}^
    15d8:	776f702f 	strbvc	r7, [pc, -pc, lsr #32]!
    15dc:	00007265 	andeq	r7, r0, r5, ror #4
    15e0:	5f6d656d 	svcpl	0x006d656d
    15e4:	2e6b6c63 	cdpcs	12, 6, cr6, cr11, cr3, {3}
    15e8:	00010063 	andeq	r0, r1, r3, rrx
    15ec:	5f6d7000 	svcpl	0x006d7000
    15f0:	65707974 	ldrbvs	r7, [r0, #-2420]!	; 0x974
    15f4:	00682e73 	rsbeq	r2, r8, r3, ror lr
    15f8:	6d000001 	stcvs	0, cr0, [r0, #-4]
    15fc:	635f6d65 	cmpvs	pc, #6464	; 0x1940
    1600:	2d756d63 	ldclcs	13, cr6, [r5, #-396]!	; 0xfffffe74
    1604:	386e7573 	stmdacc	lr!, {r0, r1, r4, r5, r6, r8, sl, ip, sp, lr}^
    1608:	70367769 	eorsvc	r7, r6, r9, ror #14
    160c:	00682e31 	rsbeq	r2, r8, r1, lsr lr
    1610:	6d000001 	stcvs	0, cr0, [r0, #-4]
    1614:	635f6d65 	cmpvs	pc, #6464	; 0x1940
    1618:	682e6b6c 	stmdavs	lr!, {r2, r3, r5, r6, r8, r9, fp, sp, lr}
    161c:	00000100 	andeq	r0, r0, r0, lsl #2
    1620:	5f707861 	svcpl	0x00707861
    1624:	65706564 	ldrbvs	r6, [r0, #-1380]!	; 0x564
    1628:	682e646e 	stmdavs	lr!, {r1, r2, r3, r5, r6, sl, sp, lr}
    162c:	00000200 	andeq	r0, r0, r0, lsl #4
    1630:	02050000 	andeq	r0, r5, #0
    1634:	00002c08 	andeq	r2, r0, r8, lsl #24
    1638:	13011503 	movwne	r1, #5379	; 0x1503
    163c:	3048682f 	subcc	r6, r8, pc, lsr #16
    1640:	0332302c 	teqeq	r2, #44	; 0x2c
    1644:	4b144a11 	blmi	513e90 <__bss_end+0x510940>
    1648:	134a2403 	movtne	r2, #41987	; 0xa403
    164c:	2b4d2f2d 	blcs	134d308 <__bss_end+0x1349db8>
    1650:	2e780352 	mrccs	3, 3, r0, cr8, cr2, {2}
    1654:	4d4b2f31 	stclmi	15, cr2, [fp, #-196]	; 0xffffff3c
    1658:	142e1203 	strtne	r1, [lr], #-515	; 0x203
    165c:	2e760352 	mrccs	3, 3, r0, cr6, cr2, {2}
    1660:	2e0d0330 	mcrcs	3, 0, r0, cr13, cr0, {1}
    1664:	362e7303 	strtcc	r7, [lr], -r3, lsl #6
    1668:	034d4b2f 	movteq	r4, #56111	; 0xdb2f
    166c:	4e2f2e0f 	cdpmi	14, 2, cr2, cr15, cr15, {0}
    1670:	7603346a 	strvc	r3, [r3], -sl, ror #8
    1674:	4b2f312e 	blmi	bcdb34 <__bss_end+0xbca5e4>
    1678:	2f308332 	svccs	0x00308332
    167c:	03324b2d 	teqeq	r2, #46080	; 0xb400
    1680:	15034a6c 	strne	r4, [r3, #-2668]	; 0xa6c
    1684:	4a0e032e 	bmi	382344 <__bss_end+0x37edf4>
    1688:	2d302d13 	ldccs	13, cr2, [r0, #-76]!	; 0xffffffb4
    168c:	2f296b31 	svccs	0x00296b31
    1690:	2f2f2d2f 	svccs	0x002f2d2f
    1694:	6610034d 	ldrvs	r0, [r0], -sp, asr #6
    1698:	034b8113 	movteq	r8, #45331	; 0xb113
    169c:	74032e10 	strvc	r2, [r3], #-3600	; 0xe10
    16a0:	4c312b2e 	ldcmi	11, cr2, [r1], #-184	; 0xffffff48
    16a4:	034f4b6a 	movteq	r4, #64362	; 0xfb6a
    16a8:	81134a0f 	tsthi	r3, pc, lsl #20
    16ac:	0e032f2e 	cdpeq	15, 0, cr2, cr3, cr14, {1}
    16b0:	2e73032e 	cdpcs	3, 7, cr0, cr3, cr14, {1}
    16b4:	0330332f 	teqeq	r0, #-1140850688	; 0xbc000000
    16b8:	332f2e78 	teqcc	pc, #1920	; 0x780
    16bc:	0e033330 	mcreq	3, 0, r3, cr3, cr0, {1}
    16c0:	2c31014a 	ldfcss	f0, [r1], #-296	; 0xfffffed8
    16c4:	2e2603a0 	cdpcs	3, 2, cr0, cr6, cr0, {5}
    16c8:	032e5d03 	teqeq	lr, #192	; 0xc0
    16cc:	4b4b4a0c 	blmi	12d3f04 <__bss_end+0x12d09b4>
    16d0:	4b4b4b4b 	blmi	12d4404 <__bss_end+0x12d0eb4>
    16d4:	4b4b4b4b 	blmi	12d4408 <__bss_end+0x12d0eb8>
    16d8:	2f2d504b 	svccs	0x002d504b
    16dc:	3083302f 	addcc	r3, r3, pc, lsr #32
    16e0:	132e0f03 	teqne	lr, #12
    16e4:	2d4b2f2d 	stclcs	15, cr2, [fp, #-180]	; 0xffffff4c
    16e8:	034a1e03 	movteq	r1, #44547	; 0xae03
    16ec:	4d2f2e63 	stcmi	14, cr2, [pc, #-396]!	; 1568 <__restore_processor_state+0x264>
    16f0:	4b4b4b4b 	blmi	12d4424 <__bss_end+0x12d0ed4>
    16f4:	4b4b4b4b 	blmi	12d4428 <__bss_end+0x12d0ed8>
    16f8:	034b4b4b 	movteq	r4, #47947	; 0xbb4b
    16fc:	0f034a0e 	svceq	0x00034a0e
    1700:	78031a2e 	stmdavc	r3, {r1, r2, r3, r5, r9, fp, ip}
    1704:	2a4e362e 	bcs	138efc4 <__bss_end+0x138ba74>
    1708:	2e0f0332 	mcrcs	3, 0, r0, cr15, cr2, {1}
    170c:	32667603 	rsbcc	r7, r6, #3145728	; 0x300000
    1710:	2f2f2c2d 	svccs	0x002f2c2d
    1714:	34322a4b 	ldrtcc	r2, [r2], #-2635	; 0xa4b
    1718:	022e7a03 	eoreq	r7, lr, #12288	; 0x3000
    171c:	01010004 	tsteq	r1, r4

Disassembly of section .debug_str:

00000000 <.debug_str>:
       0:	7365525f 	cmnvc	r5, #-268435451	; 0xf0000005
       4:	5f656d75 	svcpl	0x00656d75
       8:	656c6966 	strbvs	r6, [ip, #-2406]!	; 0x966
       c:	6165685f 	cmnvs	r5, pc, asr r8
      10:	43560064 	cmpmi	r6, #100	; 0x64
      14:	44415f43 	strbmi	r5, [r1], #-3907	; 0xf43
      18:	49425f43 	stmdbmi	r2, {r0, r1, r6, r8, r9, sl, fp, ip, lr}^
      1c:	44560054 	ldrbmi	r0, [r6], #-84	; 0x54
      20:	50435f44 	subpl	r5, r3, r4, asr #30
      24:	425f4155 	subsmi	r4, pc, #1073741845	; 0x40000015
      28:	56005449 	strpl	r5, [r0], -r9, asr #8
      2c:	435f4343 	cmpmi	pc, #201326593	; 0xc000001
      30:	44445650 	strbmi	r5, [r4], #-1616	; 0x650
      34:	5449425f 	strbpl	r4, [r9], #-607	; 0x25f
      38:	43435600 	movtmi	r5, #13824	; 0x3600
      3c:	58414d5f 	stmdapl	r1, {r0, r1, r2, r3, r4, r6, r8, sl, fp, lr}^
      40:	444e495f 	strbmi	r4, [lr], #-2399	; 0x95f
      44:	56005845 	strpl	r5, [r0], -r5, asr #16
      48:	445f4343 	ldrbmi	r4, [pc], #-835	; 50 <_start+0x20>
      4c:	5f4d4152 	svcpl	0x004d4152
      50:	00544942 	subseq	r4, r4, r2, asr #18
      54:	20554e47 	subscs	r4, r5, r7, asr #28
      58:	2e342043 	cdpcs	0, 3, cr2, cr4, cr3, {2}
      5c:	20332e36 	eorscs	r2, r3, r6, lsr lr
      60:	32313032 	eorscc	r3, r1, #50	; 0x32
      64:	31303230 	teqcc	r0, r0, lsr r2
      68:	72702820 	rsbsvc	r2, r0, #2097152	; 0x200000
      6c:	6c657265 	sfmvs	f7, 2, [r5], #-404	; 0xfffffe6c
      70:	65736165 	ldrbvs	r6, [r3, #-357]!	; 0x165
      74:	43560029 	cmpmi	r6, #41	; 0x29
      78:	4c505f43 	mrrcmi	15, 4, r5, r0, cr3
      7c:	5449425f 	strbpl	r4, [r9], #-607	; 0x25f
      80:	44445600 	strbmi	r5, [r4], #-1536	; 0x600
      84:	5550475f 	ldrbpl	r4, [r0, #-1887]	; 0x75f
      88:	5449425f 	strbpl	r4, [r9], #-607	; 0x25f
      8c:	736e7500 	cmnvc	lr, #0
      90:	656e6769 	strbvs	r6, [lr, #-1897]!	; 0x769
      94:	68632064 	stmdavs	r3!, {r2, r5, r6, sp}^
      98:	65007261 	strvs	r7, [r0, #-609]	; 0x261
      9c:	5f4e4f47 	svcpl	0x004e4f47
      a0:	006e7376 	rsbeq	r7, lr, r6, ror r3
      a4:	5f444456 	svcpl	0x00444456
      a8:	42555043 	subsmi	r5, r5, #67	; 0x43
      ac:	5449425f 	strbpl	r4, [r9], #-607	; 0x25f
      b0:	6f687300 	svcvs	0x00687300
      b4:	75207472 	strvc	r7, [r0, #-1138]!	; 0x472
      b8:	6769736e 	strbvs	r7, [r9, -lr, ror #6]!
      bc:	2064656e 	rsbcs	r6, r4, lr, ror #10
      c0:	00746e69 	rsbseq	r6, r4, r9, ror #28
      c4:	75736552 	ldrbvc	r6, [r3, #-1362]!	; 0x552
      c8:	765f656d 	ldrbvc	r6, [pc], -sp, ror #10
      cc:	63006e73 	movwvs	r6, #3699	; 0xe73
      d0:	6b636568 	blvs	18d9678 <__bss_end+0x18d6128>
      d4:	6d75735f 	ldclvs	3, cr7, [r5, #-380]!	; 0xfffffe84
      d8:	62757000 	rsbsvs	r7, r5, #0
      dc:	6165685f 	cmnvs	r5, pc, asr r8
      e0:	69735f64 	ldmdbvs	r3!, {r2, r5, r6, r8, r9, sl, fp, ip, lr}^
      e4:	7200657a 	andvc	r6, r0, #511705088	; 0x1e800000
      e8:	6d757365 	ldclvs	3, cr7, [r5, #-404]!	; 0xfffffe6c
      ec:	65685f65 	strbvs	r5, [r8, #-3941]!	; 0xf65
      f0:	6a006461 	bvs	1927c <__bss_end+0x15d2c>
      f4:	5f706d75 	svcpl	0x00706d75
      f8:	74736e69 	ldrbtvc	r6, [r3], #-3689	; 0xe69
      fc:	74637572 	strbtvc	r7, [r3], #-1394	; 0x572
     100:	006e6f69 	rsbeq	r6, lr, r9, ror #30
     104:	5f444456 	svcpl	0x00444456
     108:	53555043 	cmppl	r5, #67	; 0x43
     10c:	5449425f 	strbpl	r4, [r9], #-607	; 0x25f
     110:	43435600 	movtmi	r5, #13824	; 0x3600
     114:	5f4d505f 	svcpl	0x004d505f
     118:	00544942 	subseq	r4, r4, r2, asr #18
     11c:	5f444456 	svcpl	0x00444456
     120:	5f555056 	svcpl	0x00555056
     124:	00544942 	subseq	r4, r4, r2, asr #18
     128:	676e6f6c 	strbvs	r6, [lr, -ip, ror #30]!
     12c:	6e6f6c20 	cdpvs	12, 6, cr6, cr15, cr0, {1}
     130:	6e752067 	cdpvs	0, 7, cr2, cr5, cr7, {3}
     134:	6e676973 	mcrvs	9, 3, r6, cr7, cr3, {3}
     138:	69206465 	stmdbvs	r0!, {r0, r2, r5, r6, sl, sp, lr}
     13c:	5600746e 	strpl	r7, [r0], -lr, ror #8
     140:	445f4444 	ldrbmi	r4, [pc], #-1092	; 148 <resume1_c_part+0x6c>
     144:	504d4152 	subpl	r4, sp, r2, asr r1
     148:	425f4c4c 	subsmi	r4, pc, #19456	; 0x4c00
     14c:	2f005449 	svccs	0x00005449
     150:	656d6f68 	strbvs	r6, [sp, #-3944]!	; 0xf68
     154:	7767612f 	strbvc	r6, [r7, -pc, lsr #2]!
     158:	3338412f 	teqcc	r8, #-1073741813	; 0xc000000b
     15c:	2e355f54 	mrccs	15, 1, r5, cr5, cr4, {2}
     160:	2f312e31 	svccs	0x00312e31
     164:	54333841 	ldrtpl	r3, [r3], #-2113	; 0x841
     168:	312e355f 	teqcc	lr, pc, asr r5
     16c:	575f312e 	ldrbpl	r3, [pc, -lr, lsr #2]
     170:	75646965 	strbvc	r6, [r4, #-2405]!	; 0x965
     174:	5445502f 	strbpl	r5, [r5], #-47	; 0x2f
     178:	3338415f 	teqcc	r8, #-1073741801	; 0xc0000017
     17c:	2e355f54 	mrccs	15, 1, r5, cr5, cr4, {2}
     180:	2f312e31 	svccs	0x00312e31
     184:	6863696c 	stmdavs	r3!, {r2, r3, r5, r6, r8, fp, sp, lr}^
     188:	6c2f6565 	cfstr32vs	mvfx6, [pc], #-404	; fffffffc <__bss_end+0xffffcaac>
     18c:	78756e69 	ldmdavc	r5!, {r0, r3, r5, r6, r9, sl, fp, sp, lr}^
     190:	342e332d 	strtcc	r3, [lr], #-813	; 0x32d
     194:	6c696600 	stclvs	6, cr6, [r9], #-0
     198:	65685f65 	strbvs	r5, [r8, #-3941]!	; 0xf65
     19c:	765f6461 	ldrbvc	r6, [pc], -r1, ror #8
     1a0:	56006e73 			; <UNDEFINED> instruction: 0x56006e73
     1a4:	4c5f4343 	mrrcmi	3, 4, r4, pc, cr3	; <UNPREDICTABLE>
     1a8:	4e494f44 	cdpmi	15, 4, cr4, cr9, cr4, {2}
     1ac:	5449425f 	strbpl	r4, [r9], #-607	; 0x25f
     1b0:	6e6f6c00 	cdpvs	12, 6, cr6, cr15, cr0, {0}
     1b4:	6f6c2067 	svcvs	0x006c2067
     1b8:	6920676e 	stmdbvs	r0!, {r1, r2, r3, r5, r6, r8, r9, sl, sp, lr}
     1bc:	5600746e 	strpl	r7, [r0], -lr, ror #8
     1c0:	535f4444 	cmppl	pc, #1140850688	; 0x44000000
     1c4:	425f5359 	subsmi	r5, pc, #1677721601	; 0x64000001
     1c8:	56005449 	strpl	r5, [r0], -r9, asr #8
     1cc:	495f4343 	ldmdbmi	pc, {r0, r1, r6, r8, r9, lr}^	; <UNPREDICTABLE>
     1d0:	49425f4f 	stmdbmi	r2, {r0, r1, r2, r3, r6, r8, r9, sl, fp, ip, lr}^
     1d4:	68730054 	ldmdavs	r3!, {r2, r4, r6}^
     1d8:	2074726f 	rsbscs	r7, r4, pc, ror #4
     1dc:	00746e69 	rsbseq	r6, r4, r9, ror #28
     1e0:	75736572 	ldrbvc	r6, [r3, #-1394]!	; 0x572
     1e4:	665f656d 	ldrbvs	r6, [pc], -sp, ror #10
     1e8:	5f656c69 	svcpl	0x00656c69
     1ec:	64616568 	strbtvs	r6, [r1], #-1384	; 0x568
     1f0:	6100745f 	tstvs	r0, pc, asr r4
     1f4:	2f686372 	svccs	0x00686372
     1f8:	2f6d7261 	svccs	0x006d7261
     1fc:	6863616d 	stmdavs	r3!, {r0, r2, r3, r5, r6, r8, sp, lr}^
     200:	6e75732d 	cdpvs	3, 7, cr7, cr5, cr13, {1}
     204:	702f6978 	eorvc	r6, pc, r8, ror r9	; <UNPREDICTABLE>
     208:	74732f6d 	ldrbtvc	r2, [r3], #-3949	; 0xf6d
     20c:	62646e61 	rsbvs	r6, r4, #1552	; 0x610
     210:	75732f79 	ldrbvc	r2, [r3, #-3961]!	; 0xf79
     214:	2f726570 	svccs	0x00726570
     218:	75736572 	ldrbvc	r6, [r3, #-1394]!	; 0x572
     21c:	722f656d 	eorvc	r6, pc, #457179136	; 0x1b400000
     220:	6d757365 	ldclvs	3, cr7, [r5, #-404]!	; 0xfffffe6c
     224:	65685f65 	strbvs	r5, [r8, #-3941]!	; 0xf65
     228:	632e6461 	teqvs	lr, #1627389952	; 0x61000000
     22c:	62757000 	rsbsvs	r7, r5, #0
     230:	6165685f 	cmnvs	r5, pc, asr r8
     234:	73765f64 	cmnvc	r6, #400	; 0x190
     238:	616d006e 	cmnvs	sp, lr, rrx
     23c:	00636967 	rsbeq	r6, r3, r7, ror #18
     240:	676e656c 	strbvs	r6, [lr, -ip, ror #10]!
     244:	70006874 	andvc	r6, r0, r4, ror r8
     248:	6674616c 	ldrbtvs	r6, [r4], -ip, ror #2
     24c:	006d726f 	rsbeq	r7, sp, pc, ror #4
     250:	5f434356 	svcpl	0x00434356
     254:	5f4c4c50 	svcpl	0x004c4c50
     258:	00544942 	subseq	r4, r4, r2, asr #18
     25c:	68637261 	stmdavs	r3!, {r0, r5, r6, r9, ip, sp, lr}^
     260:	6d72612f 	ldfvse	f6, [r2, #-188]!	; 0xffffff44
     264:	63616d2f 	cmnvs	r1, #3008	; 0xbc0
     268:	75732d68 	ldrbvc	r2, [r3, #-3432]!	; 0xd68
     26c:	2f69786e 	svccs	0x0069786e
     270:	732f6d70 	teqvc	pc, #7168	; 0x1c00
     274:	646e6174 	strbtvs	r6, [lr], #-372	; 0x174
     278:	732f7962 	teqvc	pc, #1605632	; 0x188000
     27c:	72657075 	rsbvc	r7, r5, #117	; 0x75
     280:	6d6f632f 	stclvs	3, cr6, [pc, #-188]!	; 1cc <resume1_c_part+0xf0>
     284:	2e6e6f6d 	cdpcs	15, 6, cr6, cr14, cr13, {3}
     288:	6d740063 	ldclvs	0, cr0, [r4, #-396]!	; 0xfffffe74
     28c:	73645f70 	cmnvc	r4, #448	; 0x1c0
     290:	6d740074 	ldclvs	0, cr0, [r4, #-464]!	; 0xfffffe30
     294:	72735f70 	rsbsvc	r5, r3, #448	; 0x1c0
     298:	656d0063 	strbvs	r0, [sp, #-99]!	; 0x63
     29c:	656d5f6d 	strbvs	r5, [sp, #-3949]!	; 0xf6d
     2a0:	7970636d 	ldmdbvc	r0!, {r0, r2, r3, r5, r6, r8, r9, sp, lr}^
     2a4:	63726100 	cmnvs	r2, #0
     2a8:	72612f68 	rsbvc	r2, r1, #416	; 0x1a0
     2ac:	616d2f6d 	cmnvs	sp, sp, ror #30
     2b0:	732d6863 	teqvc	sp, #6488064	; 0x630000
     2b4:	69786e75 	ldmdbvs	r8!, {r0, r2, r4, r5, r6, r9, sl, fp, sp, lr}^
     2b8:	2f6d702f 	svccs	0x006d702f
     2bc:	6e617473 	mcrvs	4, 3, r7, cr1, cr3, {3}
     2c0:	2f796264 	svccs	0x00796264
     2c4:	65707573 	ldrbvs	r7, [r0, #-1395]!	; 0x573
     2c8:	75732f72 	ldrbvc	r2, [r3, #-3954]!	; 0xf72
     2cc:	5f726570 	svcpl	0x00726570
     2d0:	2e697774 	mcrcs	7, 3, r7, cr9, cr4, {3}
     2d4:	72610063 	rsbvc	r0, r1, #99	; 0x63
     2d8:	612f6863 	teqvs	pc, r3, ror #16
     2dc:	6d2f6d72 	stcvs	13, cr6, [pc, #-456]!	; 11c <resume1_c_part+0x40>
     2e0:	2d686361 	stclcs	3, cr6, [r8, #-388]!	; 0xfffffe7c
     2e4:	786e7573 	stmdavc	lr!, {r0, r1, r4, r5, r6, r8, sl, ip, sp, lr}^
     2e8:	6d702f69 	ldclvs	15, cr2, [r0, #-420]!	; 0xfffffe5c
     2ec:	6174732f 	cmnvs	r4, pc, lsr #6
     2f0:	7962646e 	stmdbvc	r2!, {r1, r2, r3, r5, r6, sl, sp, lr}^
     2f4:	7075732f 	rsbsvc	r7, r5, pc, lsr #6
     2f8:	732f7265 	teqvc	pc, #1342177286	; 0x50000006
     2fc:	72657075 	rsbvc	r7, r5, #117	; 0x75
     300:	6f6c635f 	svcvs	0x006c635f
     304:	632e6b63 	teqvs	lr, #101376	; 0x18c00
     308:	63726100 	cmnvs	r2, #0
     30c:	72612f68 	rsbvc	r2, r1, #416	; 0x1a0
     310:	616d2f6d 	cmnvs	sp, sp, ror #30
     314:	732d6863 	teqvc	sp, #6488064	; 0x630000
     318:	69786e75 	ldmdbvs	r8!, {r0, r2, r4, r5, r6, r9, sl, fp, sp, lr}^
     31c:	2f6d702f 	svccs	0x006d702f
     320:	6e617473 	mcrvs	4, 3, r7, cr1, cr3, {3}
     324:	2f796264 	svccs	0x00796264
     328:	65707573 	ldrbvs	r7, [r0, #-1395]!	; 0x573
     32c:	75732f72 	ldrbvc	r2, [r3, #-3954]!	; 0xf72
     330:	5f726570 	svcpl	0x00726570
     334:	65776f70 	ldrbvs	r6, [r7, #-3952]!	; 0xf70
     338:	00632e72 	rsbeq	r2, r3, r2, ror lr
     33c:	68637261 	stmdavs	r3!, {r0, r5, r6, r9, ip, sp, lr}^
     340:	6d72612f 	ldfvse	f6, [r2, #-188]!	; 0xffffff44
     344:	63616d2f 	cmnvs	r1, #3008	; 0xbc0
     348:	75732d68 	ldrbvc	r2, [r3, #-3432]!	; 0xd68
     34c:	2f69786e 	svccs	0x0069786e
     350:	732f6d70 	teqvc	pc, #7168	; 0x1c00
     354:	646e6174 	strbtvs	r6, [lr], #-372	; 0x174
     358:	732f7962 	teqvc	pc, #1605632	; 0x188000
     35c:	72657075 	rsbvc	r7, r5, #117	; 0x75
     360:	7075732f 	rsbsvc	r7, r5, pc, lsr #6
     364:	635f7265 	cmpvs	pc, #1342177286	; 0x50000006
     368:	2e737570 	mrccs	5, 3, r7, cr3, cr0, {3}
     36c:	5f5f0063 	svcpl	0x005f0063
     370:	554d4343 	strbpl	r4, [sp, #-835]	; 0x343
     374:	4248415f 	submi	r4, r8, #-1073741801	; 0xc0000017
     378:	41525f31 	cmpmi	r2, r1, lsr pc
     37c:	5f4f4954 	svcpl	0x004f4954
     380:	30474552 	subcc	r4, r7, r2, asr r5
     384:	00343530 	eorseq	r3, r4, r0, lsr r5
     388:	65736572 	ldrbvs	r6, [r3, #-1394]!	; 0x572
     38c:	64657672 	strbtvs	r7, [r5], #-1650	; 0x672
     390:	31383032 	teqcc	r8, r2, lsr r0
     394:	73657200 	cmnvc	r5, #0
     398:	65767265 	ldrbvs	r7, [r6, #-613]!	; 0x265
     39c:	38303264 	ldmdacc	r0!, {r2, r5, r6, r9, ip, sp}
     3a0:	70630032 	rsbvc	r0, r3, r2, lsr r0
     3a4:	725f3175 	subsvc	r3, pc, #1073741853	; 0x4000001d
     3a8:	74657365 	strbtvc	r7, [r5], #-869	; 0x365
     3ac:	62656400 	rsbvs	r6, r5, #0
     3b0:	6d5f6775 	ldclvs	7, cr6, [pc, #-468]	; 1e4 <resume1_c_part+0x108>
     3b4:	006b7361 	rsbeq	r7, fp, r1, ror #6
     3b8:	65736572 	ldrbvs	r6, [r3, #-1394]!	; 0x572
     3bc:	64657672 	strbtvs	r7, [r5], #-1650	; 0x672
     3c0:	00313331 	eorseq	r3, r1, r1, lsr r3
     3c4:	65736572 	ldrbvs	r6, [r3, #-1394]!	; 0x572
     3c8:	64657672 	strbtvs	r7, [r5], #-1650	; 0x672
     3cc:	00323331 	eorseq	r3, r2, r1, lsr r3
     3d0:	65736572 	ldrbvs	r6, [r3, #-1394]!	; 0x572
     3d4:	64657672 	strbtvs	r7, [r5], #-1650	; 0x672
     3d8:	00333331 	eorseq	r3, r3, r1, lsr r3
     3dc:	61767764 	cmnvs	r6, r4, ror #14
     3e0:	6c50006c 	mrrcvs	0, 6, r0, r0, cr12	; <UNPREDICTABLE>
     3e4:	6469566c 	strbtvs	r5, [r9], #-1644	; 0x66c
     3e8:	42306f65 	eorsmi	r6, r0, #404	; 0x194
     3ec:	00736169 	rsbseq	r6, r3, r9, ror #2
     3f0:	54726943 	ldrbtpl	r6, [r2], #-2371	; 0x943
     3f4:	61730078 	cmnvs	r3, r8, ror r0
     3f8:	5f646576 	svcpl	0x00646576
     3fc:	746e7572 	strbtvc	r7, [lr], #-1394	; 0x572
     400:	5f656d69 	svcpl	0x00656d69
     404:	746e6f63 	strbtvc	r6, [lr], #-3939	; 0xf63
     408:	5f747865 	svcpl	0x00747865
     40c:	00637673 	rsbeq	r7, r3, r3, ror r6
     410:	3064634c 	rsbcc	r6, r4, ip, asr #6
     414:	00306843 	eorseq	r6, r0, r3, asr #16
     418:	3064634c 	rsbcc	r6, r4, ip, asr #6
     41c:	00316843 	eorseq	r6, r1, r3, asr #16
     420:	65736572 	ldrbvs	r6, [r3, #-1394]!	; 0x572
     424:	64657672 	strbtvs	r7, [r5], #-1650	; 0x672
     428:	00323139 	eorseq	r3, r2, r9, lsr r1
     42c:	5f697861 	svcpl	0x00697861
     430:	00766964 	rsbseq	r6, r6, r4, ror #18
     434:	366c6c50 			; <UNDEFINED> instruction: 0x366c6c50
     438:	006c7443 	rsbeq	r7, ip, r3, asr #8
     43c:	65736572 	ldrbvs	r6, [r3, #-1394]!	; 0x572
     440:	64657672 	strbtvs	r7, [r5], #-1650	; 0x672
     444:	00323431 	eorseq	r3, r2, r1, lsr r4
     448:	65736572 	ldrbvs	r6, [r3, #-1394]!	; 0x572
     44c:	64657672 	strbtvs	r7, [r5], #-1650	; 0x672
     450:	00333431 	eorseq	r3, r3, r1, lsr r4
     454:	65766173 	ldrbvs	r6, [r6, #-371]!	; 0x173
     458:	6d6d5f64 	stclvs	15, cr5, [sp, #-400]!	; 0xfffffe70
     45c:	74735f75 	ldrbtvc	r5, [r3], #-3957	; 0xf75
     460:	00657461 	rsbeq	r7, r5, r1, ror #8
     464:	30733249 	rsbscc	r3, r3, r9, asr #4
     468:	73324900 	teqvc	r2, #0
     46c:	32490031 	subcc	r0, r9, #49	; 0x31
     470:	50003273 	andpl	r3, r0, r3, ror r2
     474:	30316c6c 	eorscc	r6, r1, ip, ror #24
     478:	006c7443 	rsbeq	r7, ip, r3, asr #8
     47c:	346c6c50 	strbtcc	r6, [ip], #-3152	; 0xc50
     480:	006c7443 	rsbeq	r7, ip, r3, asr #8
     484:	535f4d50 	cmppl	pc, #5120	; 0x1400
     488:	444e4154 	strbmi	r4, [lr], #-340	; 0x154
     48c:	455f5942 	ldrbmi	r5, [pc, #-2370]	; fffffb52 <__bss_end+0xffffc602>
     490:	4c42414e 	stfmie	f4, [r2], {78}	; 0x4e
     494:	544a5f45 	strbpl	r5, [sl], #-3909	; 0xf45
     498:	6d004741 	stcvs	7, cr4, [r0, #-260]	; 0xfffffefc
     49c:	74696e6f 	strbtvc	r6, [r9], #-3695	; 0xe6f
     4a0:	765f726f 	ldrbvc	r7, [pc], -pc, ror #4
     4a4:	6f746365 	svcvs	0x00746365
     4a8:	5f5f0072 	svcpl	0x005f0072
     4ac:	756d6363 	strbvc	r6, [sp, #-867]!	; 0x363
     4b0:	7379735f 	cmnvc	r9, #2080374785	; 0x7c000001
     4b4:	5f6b6c63 	svcpl	0x006b6c63
     4b8:	69746172 	ldmdbvs	r4!, {r1, r4, r5, r6, r8, sp, lr}^
     4bc:	65725f6f 	ldrbvs	r5, [r2, #-3951]!	; 0xf6f
     4c0:	35303067 	ldrcc	r3, [r0, #-103]!	; 0x67
     4c4:	00745f30 	rsbseq	r5, r4, r0, lsr pc
     4c8:	416c6c50 	cmnmi	ip, r0, asr ip
     4cc:	6f696475 	svcvs	0x00696475
     4d0:	73616942 	cmnvc	r1, #1081344	; 0x108000
     4d4:	75706300 	ldrbvc	r6, [r0, #-768]!	; 0x300
     4d8:	65725f33 	ldrbvs	r5, [r2, #-3891]!	; 0xf33
     4dc:	00746573 	rsbseq	r6, r4, r3, ror r5
     4e0:	5f6c6c50 	svcpl	0x006c6c50
     4e4:	425f3143 	subsmi	r3, pc, #-1073741808	; 0xc0000010
     4e8:	00736169 	rsbseq	r6, r3, r9, ror #2
     4ec:	65736572 	ldrbvs	r6, [r3, #-1394]!	; 0x572
     4f0:	64657672 	strbtvs	r7, [r5], #-1650	; 0x672
     4f4:	00333531 	eorseq	r3, r3, r1, lsr r5
     4f8:	65736572 	ldrbvs	r6, [r3, #-1394]!	; 0x572
     4fc:	64657672 	strbtvs	r7, [r5], #-1650	; 0x672
     500:	00343531 	eorseq	r3, r4, r1, lsr r5
     504:	73625f5f 	cmnvc	r2, #380	; 0x17c
     508:	6e655f73 	mcrvs	15, 3, r5, cr5, cr3, {3}
     50c:	65720064 	ldrbvs	r0, [r2, #-100]!	; 0x64
     510:	76726573 			; <UNDEFINED> instruction: 0x76726573
     514:	33316465 	teqcc	r1, #1694498816	; 0x65000000
     518:	50003131 	andpl	r3, r0, r1, lsr r1
     51c:	73486c6c 	movtvc	r6, #35948	; 0x8c6c
     520:	69426369 	stmdbvs	r2, {r0, r3, r5, r6, r8, r9, sp, lr}^
     524:	54007361 	strpl	r7, [r0], #-865	; 0x361
     528:	6c436d64 	mcrrvs	13, 6, r6, r3, cr4
     52c:	6c50006b 	mrrcvs	0, 6, r0, r0, cr11	; <UNPREDICTABLE>
     530:	7554316c 	ldrbvc	r3, [r4, #-364]	; 0x16c
     534:	424d006e 	submi	r0, sp, #110	; 0x6e
     538:	00307375 	eorseq	r7, r0, r5, ror r3
     53c:	535f4d50 	cmppl	pc, #5120	; 0x1400
     540:	444e4154 	strbmi	r4, [lr], #-340	; 0x154
     544:	505f5942 	subspl	r5, pc, r2, asr #18
     548:	544e4952 	strbpl	r4, [lr], #-2386	; 0x952
     54c:	5543435f 	strbpl	r4, [r3, #-863]	; 0x35f
     550:	4154535f 	cmpmi	r4, pc, asr r3
     554:	00535554 	subseq	r5, r3, r4, asr r5
     558:	535f4d50 	cmppl	pc, #5120	; 0x1400
     55c:	444e4154 	strbmi	r4, [lr], #-340	; 0x154
     560:	505f5942 	subspl	r5, pc, r2, asr #18
     564:	544e4952 	strbpl	r4, [lr], #-2386	; 0x952
     568:	524f505f 	subpl	r5, pc, #95	; 0x5f
     56c:	4d500054 	ldclmi	0, cr0, [r0, #-336]	; 0xfffffeb0
     570:	4154535f 	cmpmi	r4, pc, asr r3
     574:	5942444e 	stmdbpl	r2, {r1, r2, r3, r6, sl, lr}^
     578:	4952505f 	ldmdbmi	r2, {r0, r1, r2, r3, r4, r6, ip, lr}^
     57c:	525f544e 	subspl	r5, pc, #1308622848	; 0x4e000000
     580:	4d555345 	ldclmi	3, cr5, [r5, #-276]	; 0xfffffeec
     584:	4f495f45 	svcmi	0x00495f45
     588:	4154535f 	cmpmi	r4, pc, asr r3
     58c:	00535554 	subseq	r5, r3, r4, asr r5
     590:	65736572 	ldrbvs	r6, [r3, #-1394]!	; 0x572
     594:	64657672 	strbtvs	r7, [r5], #-1650	; 0x672
     598:	33343032 	teqcc	r4, #50	; 0x32
     59c:	63614600 	cmnvs	r1, #0
     5a0:	4b726f74 	blmi	1c9c378 <__bss_end+0x1c98e28>
     5a4:	63614600 	cmnvs	r1, #0
     5a8:	4d726f74 	ldclmi	15, cr6, [r2, #-464]!	; 0xfffffe30
     5ac:	63614600 	cmnvs	r1, #0
     5b0:	4e726f74 	mrcmi	15, 3, r6, cr2, cr4, {3}
     5b4:	62704100 	rsbsvs	r4, r0, #0
     5b8:	76694432 			; <UNDEFINED> instruction: 0x76694432
     5bc:	63614600 	cmnvs	r1, #0
     5c0:	50726f74 	rsbspl	r6, r2, r4, ror pc
     5c4:	73657200 	cmnvc	r5, #0
     5c8:	65767265 	ldrbvs	r7, [r6, #-613]!	; 0x265
     5cc:	32303264 	eorscc	r3, r0, #1073741830	; 0x40000006
     5d0:	73657200 	cmnvc	r5, #0
     5d4:	65767265 	ldrbvs	r7, [r6, #-613]!	; 0x265
     5d8:	33303264 	teqcc	r0, #1073741830	; 0x40000006
     5dc:	73657200 	cmnvc	r5, #0
     5e0:	65767265 	ldrbvs	r7, [r6, #-613]!	; 0x265
     5e4:	34303264 	ldrtcc	r3, [r0], #-612	; 0x264
     5e8:	73657200 	cmnvc	r5, #0
     5ec:	65767265 	ldrbvs	r7, [r6, #-613]!	; 0x265
     5f0:	35303264 	ldrcc	r3, [r0, #-612]!	; 0x264
     5f4:	646e6900 	strbtvs	r6, [lr], #-2304	; 0x900
     5f8:	72007865 	andvc	r7, r0, #6619136	; 0x650000
     5fc:	72657365 	rsbvc	r7, r5, #-1811939327	; 0x94000001
     600:	32646576 	rsbcc	r6, r4, #494927872	; 0x1d800000
     604:	50003830 	andpl	r3, r0, r0, lsr r8
     608:	70476c6c 	subvc	r6, r7, ip, ror #24
     60c:	61694275 	smcvs	37925	; 0x9425
     610:	75730073 	ldrbvc	r0, [r3, #-115]!	; 0x73
     614:	6e657073 	mcrvs	0, 3, r7, cr5, cr3, {3}
     618:	65645f64 	strbvs	r5, [r4, #-3940]!	; 0xf64
     61c:	5f79616c 	svcpl	0x0079616c
     620:	4300736d 	movwmi	r7, #877	; 0x36d
     624:	6b6c4331 	blvs	1b112f0 <__bss_end+0x1b0dda0>
     628:	00637253 	rsbeq	r7, r3, r3, asr r2
     62c:	4d757047 	ldclmi	0, cr7, [r5, #-284]!	; 0xfffffee4
     630:	63006d65 	movwvs	r6, #3429	; 0xd65
     634:	645f6b6c 	ldrbvs	r6, [pc], #-2924	; 63c <save_mem_status_nommu+0x54>
     638:	44007669 	strmi	r7, [r0], #-1641	; 0x669
     63c:	004d7669 	subeq	r7, sp, r9, ror #12
     640:	4e766944 	cdpmi	9, 7, cr6, cr6, cr4, {2}
     644:	62704100 	rsbsvs	r4, r0, #0
     648:	73655232 	cmnvc	r5, #536870915	; 0x20000003
     64c:	61007465 	tstvs	r0, r5, ror #8
     650:	615f6268 	cmpvs	pc, r8, ror #4
     654:	645f6270 	ldrbvs	r6, [pc], #-624	; 65c <save_mem_status_nommu+0x74>
     658:	50007669 	andpl	r7, r0, r9, ror #12
     65c:	54535f4d 	ldrbpl	r5, [r3], #-3917	; 0xf4d
     660:	42444e41 	submi	r4, r4, #1040	; 0x410
     664:	52505f59 	subspl	r5, r0, #356	; 0x164
     668:	5f544e49 	svcpl	0x00544e49
     66c:	535f4f49 	cmppl	pc, #292	; 0x124
     670:	55544154 	ldrbpl	r4, [r4, #-340]	; 0x154
     674:	65720053 	ldrbvs	r0, [r2, #-83]!	; 0x53
     678:	76726573 			; <UNDEFINED> instruction: 0x76726573
     67c:	37316465 	ldrcc	r6, [r1, -r5, ror #8]!
     680:	65720031 	ldrbvs	r0, [r2, #-49]!	; 0x31
     684:	76726573 			; <UNDEFINED> instruction: 0x76726573
     688:	37316465 	ldrcc	r6, [r1, -r5, ror #8]!
     68c:	65720032 	ldrbvs	r0, [r2, #-50]!	; 0x32
     690:	76726573 			; <UNDEFINED> instruction: 0x76726573
     694:	37316465 	ldrcc	r6, [r1, -r5, ror #8]!
     698:	6c500033 	mrrcvs	0, 3, r0, r0, cr3	; <UNPREDICTABLE>
     69c:	636f4c6c 	cmnvs	pc, #27648	; 0x6c00
     6a0:	6c70006b 	ldclvs	0, cr0, [r0], #-428	; 0xfffffe54
     6a4:	745f316c 	ldrbvc	r3, [pc], #-364	; 6ac <io_init_low>
     6a8:	47006e75 	smlsdxmi	r0, r5, lr, r6
     6ac:	6f437570 	svcvs	0x00437570
     6b0:	43006572 	movwmi	r6, #1394	; 0x572
     6b4:	6c437570 	cfstr64vs	mvdx7, [r3], {112}	; 0x70
     6b8:	6372536b 	cmnvs	r2, #-1409286143	; 0xac000001
     6bc:	72726e00 	rsbsvc	r6, r2, #0
     6c0:	5f5f0072 	svcpl	0x005f0072
     6c4:	5f737362 	svcpl	0x00737362
     6c8:	72617473 	rsbvc	r7, r1, #1929379840	; 0x73000000
     6cc:	61640074 	smcvs	16388	; 0x4004
     6d0:	50007263 	andpl	r7, r0, r3, ror #4
     6d4:	64446c6c 	strbvs	r6, [r4], #-3180	; 0xc6c
     6d8:	61694272 	smcvs	37922	; 0x9422
     6dc:	65520073 	ldrbvs	r0, [r2, #-115]	; 0x73
     6e0:	76726573 			; <UNDEFINED> instruction: 0x76726573
     6e4:	30326465 	eorscc	r6, r2, r5, ror #8
     6e8:	72003132 	andvc	r3, r0, #-2147483636	; 0x8000000c
     6ec:	72657365 	rsbvc	r7, r5, #-1811939327	; 0x94000001
     6f0:	31646576 	smccc	18006	; 0x4656
     6f4:	72003138 	andvc	r3, r0, #14
     6f8:	72657365 	rsbvc	r7, r5, #-1811939327	; 0x94000001
     6fc:	31646576 	smccc	18006	; 0x4656
     700:	61003238 	tstvs	r0, r8, lsr r2
     704:	2f686372 	svccs	0x00686372
     708:	2f6d7261 	svccs	0x006d7261
     70c:	6863616d 	stmdavs	r3!, {r0, r2, r3, r5, r6, r8, sp, lr}^
     710:	6e75732d 	cdpvs	3, 7, cr7, cr5, cr13, {1}
     714:	702f6978 	eorvc	r6, pc, r8, ror r9	; <UNPREDICTABLE>
     718:	74732f6d 	ldrbtvc	r2, [r3], #-3949	; 0xf6d
     71c:	62646e61 	rsbvs	r6, r4, #1552	; 0x610
     720:	75732f79 	ldrbvc	r2, [r3, #-3961]!	; 0xf79
     724:	2f726570 	svccs	0x00726570
     728:	75736572 	ldrbvc	r6, [r3, #-1394]!	; 0x572
     72c:	722f656d 	eorvc	r6, pc, #457179136	; 0x1b400000
     730:	6d757365 	ldclvs	3, cr7, [r5, #-404]!	; 0xfffffe6c
     734:	635f3165 	cmpvs	pc, #1073741849	; 0x40000019
     738:	7261705f 	rsbvc	r7, r1, #95	; 0x5f
     73c:	00632e74 	rsbeq	r2, r3, r4, ror lr
     740:	47626841 	strbmi	r6, [r2, -r1, asr #16]!
     744:	31657461 	cmncc	r5, r1, ror #8
     748:	5f4d5000 	svcpl	0x004d5000
     74c:	4e415453 	mcrmi	4, 2, r5, cr1, cr3, {2}
     750:	5f594244 	svcpl	0x00594244
     754:	4e495250 	mcrmi	2, 2, r5, cr9, cr0, {2}
     758:	54475f54 	strbpl	r5, [r7], #-3924	; 0xf54
     75c:	5f535542 	svcpl	0x00535542
     760:	00474552 	subeq	r4, r7, r2, asr r5
     764:	535f4d50 	cmppl	pc, #5120	; 0x1400
     768:	444e4154 	strbmi	r4, [lr], #-340	; 0x154
     76c:	505f5942 	subspl	r5, pc, r2, asr #18
     770:	544e4952 	strbpl	r4, [lr], #-2386	; 0x952
     774:	4154535f 	cmpmi	r4, pc, asr r3
     778:	5942444e 	stmdbpl	r2, {r1, r2, r3, r6, sl, lr}^
     77c:	636f4c00 	cmnvs	pc, #0
     780:	6d69746b 	cfstrdvs	mvd7, [r9, #-428]!	; 0xfffffe54
     784:	6c500065 	mrrcvs	0, 6, r0, r0, cr5	; <UNPREDICTABLE>
     788:	7443316c 	strbvc	r3, [r3], #-364	; 0x16c
     78c:	6572006c 	ldrbvs	r0, [r2, #-108]!	; 0x6c
     790:	76726573 			; <UNDEFINED> instruction: 0x76726573
     794:	32316465 	eorscc	r6, r1, #1694498816	; 0x65000000
     798:	6c500032 	mrrcvs	0, 3, r0, r0, cr2	; <UNPREDICTABLE>
     79c:	4331436c 	teqmi	r1, #-1342177279	; 0xb0000001
     7a0:	72006c74 	andvc	r6, r0, #29696	; 0x7400
     7a4:	72657365 	rsbvc	r7, r5, #-1811939327	; 0x94000001
     7a8:	31646576 	smccc	18006	; 0x4656
     7ac:	50003139 	andpl	r3, r0, r9, lsr r1
     7b0:	43386c6c 	teqmi	r8, #27648	; 0x6c00
     7b4:	5f006c74 	svcpl	0x00006c74
     7b8:	4d43435f 	stclmi	3, cr4, [r3, #-380]	; 0xfffffe84
     7bc:	4c505f55 	mrrcmi	15, 5, r5, r0, cr5
     7c0:	434f4c4c 	movtmi	r4, #64588	; 0xfc4c
     7c4:	45525f4b 	ldrbmi	r5, [r2, #-3915]	; 0xf4b
     7c8:	30323047 	eorscc	r3, r2, r7, asr #32
     7cc:	65720030 	ldrbvs	r0, [r2, #-48]!	; 0x30
     7d0:	76726573 			; <UNDEFINED> instruction: 0x76726573
     7d4:	32316465 	eorscc	r6, r1, #1694498816	; 0x65000000
     7d8:	64636400 	strbtvs	r6, [r3], #-1024	; 0x400
     7dc:	72003263 	andvc	r3, r0, #805306374	; 0x30000006
     7e0:	72657365 	rsbvc	r7, r5, #-1811939327	; 0x94000001
     7e4:	31646576 	smccc	18006	; 0x4656
     7e8:	65720034 	ldrbvs	r0, [r2, #-52]!	; 0x34
     7ec:	76726573 			; <UNDEFINED> instruction: 0x76726573
     7f0:	35316465 	ldrcc	r6, [r1, #-1125]!	; 0x465
     7f4:	73657200 	cmnvc	r5, #0
     7f8:	65767265 	ldrbvs	r7, [r6, #-613]!	; 0x265
     7fc:	00363164 	eorseq	r3, r6, r4, ror #2
     800:	65736572 	ldrbvs	r6, [r3, #-1394]!	; 0x572
     804:	64657672 	strbtvs	r7, [r5], #-1650	; 0x672
     808:	72003731 	andvc	r3, r0, #12845056	; 0xc40000
     80c:	72657365 	rsbvc	r7, r5, #-1811939327	; 0x94000001
     810:	31646576 	smccc	18006	; 0x4656
     814:	6c630038 	stclvs	0, cr0, [r3], #-224	; 0xffffff20
     818:	696d5f6b 	stmdbvs	sp!, {r0, r1, r3, r5, r6, r8, r9, sl, fp, ip, lr}^
     81c:	41006373 	tstmi	r0, r3, ror r3
     820:	50316268 	eorspl	r6, r1, r8, ror #4
     824:	69446572 	stmdbvs	r4, {r1, r4, r5, r6, r8, sl, sp, lr}^
     828:	63640076 	cmnvs	r4, #118	; 0x76
     82c:	00336364 	eorseq	r6, r3, r4, ror #6
     830:	63627474 	cmnvs	r2, #1946157056	; 0x74000000
     834:	5f5f0072 	svcpl	0x005f0072
     838:	00323375 	eorseq	r3, r2, r5, ror r3
     83c:	31495841 	cmpcc	r9, r1, asr #16
     840:	446b6c43 	strbtmi	r6, [fp], #-3139	; 0xc43
     844:	72007669 	andvc	r7, r0, #110100480	; 0x6900000
     848:	6d757365 	ldclvs	3, cr7, [r5, #-404]!	; 0xfffffe6c
     84c:	635f3165 	cmpvs	pc, #1073741849	; 0x40000019
     850:	7261705f 	rsbvc	r7, r1, #95	; 0x5f
     854:	6c500074 	mrrcvs	0, 7, r0, r0, cr4	; <UNPREDICTABLE>
     858:	6942786c 	stmdbvs	r2, {r2, r3, r5, r6, fp, ip, sp, lr}^
     85c:	62007361 	andvs	r7, r0, #-2080374783	; 0x84000001
     860:	00737469 	rsbseq	r7, r3, r9, ror #8
     864:	65736572 	ldrbvs	r6, [r3, #-1394]!	; 0x572
     868:	64657672 	strbtvs	r7, [r5], #-1650	; 0x672
     86c:	72003132 	andvc	r3, r0, #-2147483636	; 0x8000000c
     870:	72657365 	rsbvc	r7, r5, #-1811939327	; 0x94000001
     874:	32646576 	rsbcc	r6, r4, #494927872	; 0x1d800000
     878:	6c500032 	mrrcvs	0, 3, r0, r0, cr2	; <UNPREDICTABLE>
     87c:	4265566c 	rsbmi	r5, r5, #113246208	; 0x6c00000
     880:	00736169 	rsbseq	r6, r3, r9, ror #2
     884:	5f6c6c70 	svcpl	0x006c6c70
     888:	74636166 	strbtvc	r6, [r3], #-358	; 0x166
     88c:	745f726f 	ldrbvc	r7, [pc], #-623	; 894 <init_event_counter+0x20>
     890:	73657200 	cmnvc	r5, #0
     894:	65767265 	ldrbvs	r7, [r6, #-613]!	; 0x265
     898:	00313164 	eorseq	r3, r1, r4, ror #2
     89c:	696d6448 	stmdbvs	sp!, {r3, r6, sl, sp, lr}^
     8a0:	006b6c43 	rsbeq	r6, fp, r3, asr #24
     8a4:	75736572 	ldrbvc	r6, [r3, #-1394]!	; 0x572
     8a8:	705f656d 	subsvc	r6, pc, sp, ror #10
     8ac:	746e696f 	strbtvc	r6, [lr], #-2415	; 0x96f
     8b0:	41007265 	tstmi	r0, r5, ror #4
     8b4:	44316268 	ldrtmi	r6, [r1], #-616	; 0x268
     8b8:	72007669 	andvc	r7, r0, #110100480	; 0x6900000
     8bc:	72657365 	rsbvc	r7, r5, #-1811939327	; 0x94000001
     8c0:	31646576 	smccc	18006	; 0x4656
     8c4:	6c500039 	mrrcvs	0, 3, r0, r0, cr9	; <UNPREDICTABLE>
     8c8:	6469566c 	strbtvs	r5, [r9], #-1644	; 0x66c
     8cc:	52306f65 	eorspl	r6, r0, #404	; 0x194
     8d0:	50306765 	eorspl	r6, r0, r5, ror #14
     8d4:	65747461 	ldrbvs	r7, [r4, #-1121]!	; 0x461
     8d8:	50006e72 	andpl	r6, r0, r2, ror lr
     8dc:	43336c6c 	teqmi	r3, #27648	; 0x6c00
     8e0:	53006c74 	movwpl	r6, #3188	; 0xc74
     8e4:	6c437379 	mcrrvs	3, 7, r7, r3, cr9
     8e8:	7669446b 	strbtvc	r4, [r9], -fp, ror #8
     8ec:	635f5f00 	cmpvs	pc, #0
     8f0:	5f756d63 	svcpl	0x00756d63
     8f4:	32627061 	rsbcc	r7, r2, #97	; 0x61
     8f8:	7461725f 	strbtvc	r7, [r1], #-607	; 0x25f
     8fc:	725f6f69 	subsvc	r6, pc, #420	; 0x1a4
     900:	30306765 	eorscc	r6, r0, r5, ror #14
     904:	745f3835 	ldrbvc	r3, [pc], #-2101	; 90c <save_mmu_state+0xc>
     908:	75704700 	ldrbvc	r4, [r0, #-1792]!	; 0x700
     90c:	00647948 	rsbeq	r7, r4, r8, asr #18
     910:	5f757063 	svcpl	0x00757063
     914:	41006469 	tstmi	r0, r9, ror #8
     918:	65526268 	ldrbvs	r6, [r2, #-616]	; 0x268
     91c:	30746573 	rsbscc	r6, r4, r3, ror r5
     920:	62684100 	rsbvs	r4, r8, #0
     924:	65736552 	ldrbvs	r6, [r3, #-1362]!	; 0x552
     928:	41003174 	tstmi	r0, r4, ror r1
     92c:	65526268 	ldrbvs	r6, [r2, #-616]	; 0x268
     930:	32746573 	rsbscc	r6, r4, #482344960	; 0x1cc00000
     934:	73657200 	cmnvc	r5, #0
     938:	65767265 	ldrbvs	r7, [r6, #-613]!	; 0x265
     93c:	36303264 	ldrtcc	r3, [r0], -r4, ror #4
     940:	63003631 	movwvs	r3, #1585	; 0x631
     944:	5f327570 	svcpl	0x00327570
     948:	65736572 	ldrbvs	r6, [r3, #-1394]!	; 0x572
     94c:	75660074 	strbvc	r0, [r6, #-116]!	; 0x74
     950:	655f636e 	ldrbvs	r6, [pc, #-878]	; 5ea <save_mem_status_nommu+0x2>
     954:	7972746e 	ldmdbvc	r2!, {r1, r2, r3, r5, r6, sl, ip, sp, lr}^
     958:	64705300 	ldrbtvs	r5, [r0], #-768	; 0x300
     95c:	6c436669 	mcrrvs	6, 6, r6, r3, cr9
     960:	7041006b 	subvc	r0, r1, fp, rrx
     964:	61473262 	cmpvs	r7, r2, ror #4
     968:	50006574 	andpl	r6, r0, r4, ror r5
     96c:	75416c6c 	strbvc	r6, [r1, #-3180]	; 0xc6c
     970:	526f6964 	rsbpl	r6, pc, #1638400	; 0x190000
     974:	50316765 	eorspl	r6, r1, r5, ror #14
     978:	65747461 	ldrbvs	r7, [r4, #-1121]!	; 0x461
     97c:	50006e72 	andpl	r6, r0, r2, ror lr
     980:	4c316c6c 	ldcmi	12, cr6, [r1], #-432	; 0xfffffe50
     984:	006b636f 	rsbeq	r6, fp, pc, ror #6
     988:	65736572 	ldrbvs	r6, [r3, #-1394]!	; 0x572
     98c:	64657672 	strbtvs	r7, [r5], #-1650	; 0x672
     990:	31373032 	teqcc	r7, r2, lsr r0
     994:	70786100 	rsbsvc	r6, r8, r0, lsl #2
     998:	6576655f 	ldrbvs	r6, [r6, #-1375]!	; 0x55f
     99c:	7200746e 	andvc	r7, r0, #1845493760	; 0x6e000000
     9a0:	72657365 	rsbvc	r7, r5, #-1811939327	; 0x94000001
     9a4:	31646576 	smccc	18006	; 0x4656
     9a8:	00313234 	eorseq	r3, r1, r4, lsr r2
     9ac:	6d617244 	sfmvs	f7, 2, [r1, #-272]!	; 0xfffffef0
     9b0:	65746147 	ldrbvs	r6, [r4, #-327]!	; 0x147
     9b4:	62684100 	rsbvs	r4, r8, #0
     9b8:	6b6c4331 	blvs	1b11684 <__bss_end+0x1b0e134>
     9bc:	00637253 	rsbeq	r7, r3, r3, asr r2
     9c0:	436c6c50 	cmnmi	ip, #20480	; 0x5000
     9c4:	6e755431 	mrcvs	4, 3, r5, cr5, cr1, {1}
     9c8:	6c6c5000 	stclvs	0, cr5, [ip], #-0
     9cc:	69426544 	stmdbvs	r2, {r2, r6, r8, sl, sp, lr}^
     9d0:	41007361 	tstmi	r0, r1, ror #6
     9d4:	44316270 	ldrtmi	r6, [r1], #-624	; 0x270
     9d8:	4d007669 	stcmi	6, cr7, [r0, #-420]	; 0xfffffe5c
     9dc:	52737562 	rsbspl	r7, r3, #411041792	; 0x18800000
     9e0:	74657365 	strbtvc	r7, [r5], #-869	; 0x365
     9e4:	00676552 	rsbeq	r6, r7, r2, asr r5
     9e8:	416c6c50 	cmnmi	ip, r0, asr ip
     9ec:	6f696475 	svcvs	0x00696475
     9f0:	30676552 	rsbcc	r6, r7, r2, asr r5
     9f4:	74746150 	ldrbtvc	r6, [r4], #-336	; 0x150
     9f8:	006e7265 	rsbeq	r7, lr, r5, ror #4
     9fc:	566c6c50 			; <UNDEFINED> instruction: 0x566c6c50
     a00:	6f656469 	svcvs	0x00656469
     a04:	61694231 	cmnvs	r9, r1, lsr r2
     a08:	65720073 	ldrbvs	r0, [r2, #-115]!	; 0x73
     a0c:	76726573 			; <UNDEFINED> instruction: 0x76726573
     a10:	31356465 	teqcc	r5, r5, ror #8
     a14:	73657200 	cmnvc	r5, #0
     a18:	65767265 	ldrbvs	r7, [r6, #-613]!	; 0x265
     a1c:	33303264 	teqcc	r0, #1073741830	; 0x40000006
     a20:	6c500032 	mrrcvs	0, 3, r0, r0, cr2	; <UNPREDICTABLE>
     a24:	7443356c 	strbvc	r3, [r3], #-1388	; 0x56c
     a28:	6c63006c 	stclvs	0, cr0, [r3], #-432	; 0xfffffe50
     a2c:	69645f6b 	stmdbvs	r4!, {r0, r1, r3, r5, r6, r8, r9, sl, fp, ip, lr}^
     a30:	00745f76 	rsbseq	r5, r4, r6, ror pc
     a34:	454c4c50 	strbmi	r4, [ip, #-3152]	; 0xc50
     a38:	5f5f006e 	svcpl	0x005f006e
     a3c:	756d6363 	strbvc	r6, [sp, #-867]!	; 0x363
     a40:	6c6c705f 	stclvs	0, cr7, [ip], #-380	; 0xfffffe84
     a44:	65725f31 	ldrbvs	r5, [r2, #-3889]!	; 0xf31
     a48:	30303067 	eorscc	r3, r0, r7, rrx
     a4c:	00745f30 	rsbseq	r5, r4, r0, lsr pc
     a50:	32626841 	rsbcc	r6, r2, #4259840	; 0x410000
     a54:	00676643 	rsbeq	r6, r7, r3, asr #12
     a58:	6970694d 	ldmdbvs	r0!, {r0, r2, r3, r6, r8, fp, sp, lr}^
     a5c:	00697343 	rsbeq	r7, r9, r3, asr #6
     a60:	5f746573 	svcpl	0x00746573
     a64:	006c6c70 	rsbeq	r6, ip, r0, ror ip
     a68:	31627041 	cmncc	r2, r1, asr #32
     a6c:	65736552 	ldrbvs	r6, [r3, #-1362]!	; 0x552
     a70:	65720074 	ldrbvs	r0, [r2, #-116]!	; 0x74
     a74:	76726573 			; <UNDEFINED> instruction: 0x76726573
     a78:	00306465 	eorseq	r6, r0, r5, ror #8
     a7c:	65736572 	ldrbvs	r6, [r3, #-1394]!	; 0x572
     a80:	64657672 	strbtvs	r7, [r5], #-1650	; 0x672
     a84:	65720031 	ldrbvs	r0, [r2, #-49]!	; 0x31
     a88:	76726573 			; <UNDEFINED> instruction: 0x76726573
     a8c:	00326465 	eorseq	r6, r2, r5, ror #8
     a90:	65736572 	ldrbvs	r6, [r3, #-1394]!	; 0x572
     a94:	64657672 	strbtvs	r7, [r5], #-1650	; 0x672
     a98:	65720033 	ldrbvs	r0, [r2, #-51]!	; 0x33
     a9c:	76726573 			; <UNDEFINED> instruction: 0x76726573
     aa0:	00346465 	eorseq	r6, r4, r5, ror #8
     aa4:	65736572 	ldrbvs	r6, [r3, #-1394]!	; 0x572
     aa8:	64657672 	strbtvs	r7, [r5], #-1650	; 0x672
     aac:	65720035 	ldrbvs	r0, [r2, #-53]!	; 0x35
     ab0:	76726573 			; <UNDEFINED> instruction: 0x76726573
     ab4:	00366465 	eorseq	r6, r6, r5, ror #8
     ab8:	65736572 	ldrbvs	r6, [r3, #-1394]!	; 0x572
     abc:	64657672 	strbtvs	r7, [r5], #-1650	; 0x672
     ac0:	65720037 	ldrbvs	r0, [r2, #-55]!	; 0x37
     ac4:	76726573 			; <UNDEFINED> instruction: 0x76726573
     ac8:	00396465 	eorseq	r6, r9, r5, ror #8
     acc:	72636163 	rsbvc	r6, r3, #-1073741800	; 0xc0000018
     ad0:	70694d00 	rsbvc	r4, r9, r0, lsl #26
     ad4:	69734469 	ldmdbvs	r3!, {r0, r3, r5, r6, sl, lr}^
     ad8:	30676552 	rsbcc	r6, r7, r2, asr r5
     adc:	70694d00 	rsbvc	r4, r9, r0, lsl #26
     ae0:	69734469 	ldmdbvs	r3!, {r0, r3, r5, r6, sl, lr}^
     ae4:	31676552 	cmncc	r7, r2, asr r5
     ae8:	72777000 	rsbsvc	r7, r7, #0
     aec:	6765725f 			; <UNDEFINED> instruction: 0x6765725f
     af0:	69734300 	ldmdbvs	r3!, {r8, r9, lr}^
     af4:	766d0030 			; <UNDEFINED> instruction: 0x766d0030
     af8:	64615f61 	strbtvs	r5, [r1], #-3937	; 0xf61
     afc:	50007264 	andpl	r7, r0, r4, ror #4
     b00:	54535f4d 	ldrbpl	r5, [r3], #-3917	; 0xf4d
     b04:	42444e41 	submi	r4, r4, #1040	; 0x410
     b08:	52505f59 	subspl	r5, r0, #356	; 0x164
     b0c:	5f544e49 	svcpl	0x00544e49
     b10:	34494343 	strbcc	r4, [r9], #-835	; 0x343
     b14:	525f3030 	subspl	r3, pc, #48	; 0x30
     b18:	5f004745 	svcpl	0x00004745
     b1c:	0038755f 	eorseq	r7, r8, pc, asr r5
     b20:	5f627474 	svcpl	0x00627474
     b24:	53007230 	movwpl	r7, #560	; 0x230
     b28:	00306970 	eorseq	r6, r0, r0, ror r9
     b2c:	31697053 	qdsubcc	r7, r3, r9
     b30:	62684100 	rsbvs	r4, r8, #0
     b34:	65746147 	ldrbvs	r6, [r4, #-327]!	; 0x147
     b38:	65720030 	ldrbvs	r0, [r2, #-48]!	; 0x30
     b3c:	76726573 			; <UNDEFINED> instruction: 0x76726573
     b40:	31376465 	teqcc	r7, r5, ror #8
     b44:	756d4300 	strbvc	r4, [sp, #-768]!	; 0x300
     b48:	00676552 	rsbeq	r6, r7, r2, asr r5
     b4c:	63635f5f 	cmnvs	r3, #380	; 0x17c
     b50:	705f756d 	subsvc	r7, pc, sp, ror #10
     b54:	6f6c6c6c 	svcvs	0x006c6c6c
     b58:	725f6b63 	subsvc	r6, pc, #101376	; 0x18c00
     b5c:	32306765 	eorscc	r6, r0, #26476544	; 0x1940000
     b60:	745f3030 	ldrbvc	r3, [pc], #-48	; b68 <disable_cache+0x1c>
     b64:	6c6c5000 	stclvs	0, cr5, [ip], #-0
     b68:	69726550 	ldmdbvs	r2!, {r4, r6, r8, sl, sp, lr}^
     b6c:	69426870 	stmdbvs	r2, {r4, r5, r6, fp, sp, lr}^
     b70:	50007361 	andpl	r7, r0, r1, ror #6
     b74:	54535f4d 	ldrbpl	r5, [r3], #-3917	; 0xf4d
     b78:	42444e41 	submi	r4, r4, #1040	; 0x410
     b7c:	45545f59 	ldrbmi	r5, [r4, #-3929]	; 0xf59
     b80:	48005453 	stmdami	r0, {r0, r1, r4, r6, sl, ip, lr}
     b84:	53696d64 	cmnpl	r9, #6400	; 0x1900
     b88:	43776f6c 	cmnmi	r7, #432	; 0x1b0
     b8c:	50006b6c 	andpl	r6, r0, ip, ror #22
     b90:	64446c6c 	strbvs	r6, [r4], #-3180	; 0xc6c
     b94:	74615072 	strbtvc	r5, [r1], #-114	; 0x72
     b98:	6e726574 	mrcvs	5, 3, r6, cr2, cr4, {3}
     b9c:	706d7400 	rsbvc	r7, sp, r0, lsl #8
     ba0:	00727450 	rsbseq	r7, r2, r0, asr r4
     ba4:	5f6d656d 	svcpl	0x006d656d
     ba8:	61726170 	cmnvs	r2, r0, ror r1
     bac:	666e695f 			; <UNDEFINED> instruction: 0x666e695f
     bb0:	5f5f006f 	svcpl	0x005f006f
     bb4:	756d6363 	strbvc	r6, [sp, #-867]!	; 0x363
     bb8:	6765725f 			; <UNDEFINED> instruction: 0x6765725f
     bbc:	73696c5f 	cmnvc	r9, #24320	; 0x5f00
     bc0:	00745f74 	rsbseq	r5, r4, r4, ror pc
     bc4:	5f6b6c63 	svcpl	0x006b6c63
     bc8:	6373696d 	cmnvs	r3, #1785856	; 0x1b4000
     bcc:	7300745f 	movwvc	r7, #1119	; 0x45f
     bd0:	655f7379 	ldrbvs	r7, [pc, #-889]	; 85f <delay_ms+0x1f>
     bd4:	746e6576 	strbtvc	r6, [lr], #-1398	; 0x576
     bd8:	6c6c7000 	stclvs	0, cr7, [ip], #-0
     bdc:	69625f36 	stmdbvs	r2!, {r1, r2, r4, r5, r8, r9, sl, fp, ip, lr}^
     be0:	50007361 	andpl	r7, r0, r1, ror #6
     be4:	65566c6c 	ldrbvs	r6, [r6, #-3180]	; 0xc6c
     be8:	6c744331 	ldclvs	3, cr4, [r4], #-196	; 0xffffff3c
     bec:	6c6c5000 	stclvs	0, cr5, [ip], #-0
     bf0:	52726444 	rsbspl	r6, r2, #1140850688	; 0x44000000
     bf4:	50316765 	eorspl	r6, r1, r5, ror #14
     bf8:	65747461 	ldrbvs	r7, [r4, #-1121]!	; 0x461
     bfc:	44006e72 	strmi	r6, [r0], #-3698	; 0xe72
     c00:	436d6172 	cmnmi	sp, #-2147483620	; 0x8000001c
     c04:	5f006766 	svcpl	0x00006766
     c08:	6d63635f 	stclvs	3, cr6, [r3, #-380]!	; 0xfffffe84
     c0c:	68615f75 	stmdavs	r1!, {r0, r2, r4, r5, r6, r8, r9, sl, fp, ip, lr}^
     c10:	725f3162 	subsvc	r3, pc, #-2147483624	; 0x80000018
     c14:	6f697461 	svcvs	0x00697461
     c18:	6765725f 			; <UNDEFINED> instruction: 0x6765725f
     c1c:	34353030 	ldrtcc	r3, [r5], #-48	; 0x30
     c20:	7000745f 	andvc	r7, r0, pc, asr r4
     c24:	5f316c6c 	svcpl	0x00316c6c
     c28:	73616962 	cmnvc	r1, #1605632	; 0x188000
     c2c:	62747400 	rsbsvs	r7, r4, #0
     c30:	0072315f 	rsbseq	r3, r2, pc, asr r1
     c34:	535f4d50 	cmppl	pc, #5120	; 0x1400
     c38:	444e4154 	strbmi	r4, [lr], #-340	; 0x154
     c3c:	505f5942 	subspl	r5, pc, r2, asr #18
     c40:	544e4952 	strbpl	r4, [lr], #-2386	; 0x952
     c44:	4341435f 	movtmi	r4, #4959	; 0x135f
     c48:	545f4548 	ldrbpl	r4, [pc], #-1352	; c50 <mem_flush_tlb+0x4>
     c4c:	4d5f424c 	lfmmi	f4, 2, [pc, #-304]	; b24 <finished+0x14>
     c50:	00535349 	subseq	r5, r3, r9, asr #6
     c54:	65736572 	ldrbvs	r6, [r3, #-1394]!	; 0x572
     c58:	64657672 	strbtvs	r7, [r5], #-1650	; 0x672
     c5c:	00313131 	eorseq	r3, r1, r1, lsr r1
     c60:	536c6c50 	cmnpl	ip, #20480	; 0x5000
     c64:	6c626174 	stfvse	f6, [r2], #-464	; 0xfffffe30
     c68:	61745365 	cmnvs	r4, r5, ror #6
     c6c:	00737574 	rsbseq	r7, r3, r4, ror r5
     c70:	566c6c50 			; <UNDEFINED> instruction: 0x566c6c50
     c74:	6f656469 	svcvs	0x00656469
     c78:	67655230 			; <UNDEFINED> instruction: 0x67655230
     c7c:	74615031 	strbtvc	r5, [r1], #-49	; 0x31
     c80:	6e726574 	mrcvs	5, 3, r6, cr2, cr4, {3}
     c84:	636f4c00 	cmnvs	pc, #0
     c88:	6d69546b 	cfstrdvs	mvd5, [r9, #-428]!	; 0xfffffe54
     c8c:	6c500065 	mrrcvs	0, 6, r0, r0, cr5	; <UNPREDICTABLE>
     c90:	7264446c 	rsbvc	r4, r4, #1811939328	; 0x6c000000
     c94:	00676643 	rsbeq	r6, r7, r3, asr #12
     c98:	65736572 	ldrbvs	r6, [r3, #-1394]!	; 0x572
     c9c:	64657672 	strbtvs	r7, [r5], #-1650	; 0x672
     ca0:	00313032 	eorseq	r3, r1, r2, lsr r0
     ca4:	65736572 	ldrbvs	r6, [r3, #-1394]!	; 0x572
     ca8:	64657672 	strbtvs	r7, [r5], #-1650	; 0x672
     cac:	49584100 	ldmdbmi	r8, {r8, lr}^
     cb0:	446b6c43 	strbtmi	r6, [fp], #-3139	; 0xc43
     cb4:	41007669 	tstmi	r0, r9, ror #12
     cb8:	47316270 			; <UNDEFINED> instruction: 0x47316270
     cbc:	00657461 	rsbeq	r7, r5, r1, ror #8
     cc0:	65736572 	ldrbvs	r6, [r3, #-1394]!	; 0x572
     cc4:	64657672 	strbtvs	r7, [r5], #-1650	; 0x672
     cc8:	72003139 	andvc	r3, r0, #1073741838	; 0x4000000e
     ccc:	72657365 	rsbvc	r7, r5, #-1811939327	; 0x94000001
     cd0:	39646576 	stmdbcc	r4!, {r1, r2, r4, r5, r6, r8, sl, sp, lr}^
     cd4:	65720032 	ldrbvs	r0, [r2, #-50]!	; 0x32
     cd8:	76726573 			; <UNDEFINED> instruction: 0x76726573
     cdc:	33396465 	teqcc	r9, #1694498816	; 0x65000000
     ce0:	73657200 	cmnvc	r5, #0
     ce4:	65767265 	ldrbvs	r7, [r6, #-613]!	; 0x265
     ce8:	34373164 	ldrtcc	r3, [r7], #-356	; 0x164
     cec:	73630031 	cmnvc	r3, #49	; 0x31
     cf0:	50007273 	andpl	r7, r0, r3, ror r2
     cf4:	54535f4d 	ldrbpl	r5, [r3], #-3917	; 0xf4d
     cf8:	42444e41 	submi	r4, r4, #1040	; 0x410
     cfc:	52505f59 	subspl	r5, r0, #356	; 0x164
     d00:	5f544e49 	svcpl	0x00544e49
     d04:	53555043 	cmppl	r5, #67	; 0x43
     d08:	5f4f495f 	svcpl	0x004f495f
     d0c:	54415453 	strbpl	r5, [r1], #-1107	; 0x453
     d10:	72005355 	andvc	r5, r0, #1409286145	; 0x54000001
     d14:	72657365 	rsbvc	r7, r5, #-1811939327	; 0x94000001
     d18:	31646576 	smccc	18006	; 0x4656
     d1c:	50003132 	andpl	r3, r0, r2, lsr r1
     d20:	43326c6c 	teqmi	r2, #27648	; 0x6c00
     d24:	5f006c74 	svcpl	0x00006c74
     d28:	4d43435f 	stclmi	3, cr4, [r3, #-380]	; 0xfffffe84
     d2c:	45525f55 	ldrbmi	r5, [r2, #-3925]	; 0xf55
     d30:	494c5f47 	stmdbmi	ip, {r0, r1, r2, r6, r8, r9, sl, fp, ip, lr}^
     d34:	50005453 	andpl	r5, r0, r3, asr r4
     d38:	54535f4d 	ldrbpl	r5, [r3], #-3917	; 0xf4d
     d3c:	42444e41 	submi	r4, r4, #1040	; 0x410
     d40:	52505f59 	subspl	r5, r0, #356	; 0x164
     d44:	5f544e49 	svcpl	0x00544e49
     d48:	55534552 	ldrbpl	r4, [r3, #-1362]	; 0x552
     d4c:	5000454d 	andpl	r4, r0, sp, asr #10
     d50:	31436c6c 	cmpcc	r3, ip, ror #24
     d54:	78757043 	ldmdavc	r5!, {r0, r1, r6, ip, sp, lr}^
     d58:	73616942 	cmnvc	r1, #1081344	; 0x108000
     d5c:	6e614e00 	cdpvs	14, 6, cr4, cr1, cr0, {0}
     d60:	50003064 	andpl	r3, r0, r4, rrx
     d64:	54535f4d 	ldrbpl	r5, [r3], #-3917	; 0xf4d
     d68:	42444e41 	submi	r4, r4, #1040	; 0x410
     d6c:	52505f59 	subspl	r5, r0, #356	; 0x164
     d70:	5f544e49 	svcpl	0x00544e49
     d74:	5f525750 	svcpl	0x00525750
     d78:	54415453 	strbpl	r5, [r1], #-1107	; 0x453
     d7c:	61005355 	tstvs	r0, r5, asr r3
     d80:	656d5f77 	strbvs	r5, [sp, #-3959]!	; 0xf77
     d84:	61705f6d 	cmnvs	r0, sp, ror #30
     d88:	70006172 	andvc	r6, r0, r2, ror r1
     d8c:	00727272 	rsbseq	r7, r2, r2, ror r2
     d90:	34696343 	strbtcc	r6, [r9], #-835	; 0x343
     d94:	6c433030 	mcrrvs	0, 3, r3, r3, cr0
     d98:	6c50006b 	mrrcvs	0, 6, r0, r0, cr11	; <UNPREDICTABLE>
     d9c:	7443396c 	strbvc	r3, [r3], #-2412	; 0x96c
     da0:	7073006c 	rsbsvc	r0, r3, ip, rrx
     da4:	6361625f 	cmnvs	r1, #-268435451	; 0xf0000005
     da8:	0070756b 	rsbseq	r7, r0, fp, ror #10
     dac:	5f676572 	svcpl	0x00676572
     db0:	006c6573 	rsbeq	r6, ip, r3, ror r5
     db4:	695f6f69 	ldmdbvs	pc, {r0, r3, r5, r6, r8, r9, sl, fp, sp, lr}^	; <UNPREDICTABLE>
     db8:	5f74696e 	svcpl	0x0074696e
     dbc:	68676968 	stmdavs	r7!, {r3, r5, r6, r8, fp, sp, lr}^
     dc0:	6f6f6c00 	svcvs	0x006f6c00
     dc4:	6c665f70 	stclvs	15, cr5, [r6], #-448	; 0xfffffe40
     dc8:	73006761 	movwvc	r6, #1889	; 0x761
     dcc:	75746174 	ldrbvc	r6, [r4, #-372]!	; 0x174
     dd0:	65725f73 	ldrbvs	r5, [r2, #-3955]!	; 0xf73
     dd4:	74730067 	ldrbtvc	r0, [r3], #-103	; 0x67
     dd8:	73757461 	cmnvc	r5, #1627389952	; 0x61000000
     ddc:	6765725f 			; <UNDEFINED> instruction: 0x6765725f
     de0:	706d745f 	rsbvc	r7, sp, pc, asr r4
     de4:	76617300 	strbtvc	r7, [r1], -r0, lsl #6
     de8:	656d5f65 	strbvs	r5, [sp, #-3941]!	; 0xf65
     dec:	74735f6d 	ldrbtvc	r5, [r3], #-3949	; 0xf6d
     df0:	73757461 	cmnvc	r5, #1627389952	; 0x61000000
     df4:	6d6f6e5f 	stclvs	14, cr6, [pc, #-380]!	; c80 <mem_preload_tlb+0x10>
     df8:	6900756d 	stmdbvs	r0, {r0, r2, r3, r5, r6, r8, sl, ip, sp, lr}
     dfc:	69685f6f 	stmdbvs	r8!, {r0, r1, r2, r3, r5, r6, r8, r9, sl, fp, ip, lr}^
     e00:	64006867 	strvs	r6, [r0], #-2151	; 0x867
     e04:	5f617461 	svcpl	0x00617461
     e08:	6d006472 	cfstrsvs	mvf6, [r0, #-456]	; 0xfffffe38
     e0c:	735f6d65 	cmpvc	pc, #6464	; 0x1940
     e10:	75746174 	ldrbvc	r6, [r4, #-372]!	; 0x174
     e14:	6e695f73 	mcrvs	15, 3, r5, cr9, cr3, {3}
     e18:	6e5f7469 	cdpvs	4, 5, cr7, cr15, cr9, {3}
     e1c:	756d6d6f 	strbvc	r6, [sp, #-3439]!	; 0xd6f
     e20:	76617300 	strbtvc	r7, [r1], -r0, lsl #6
     e24:	656d5f65 	strbvs	r5, [sp, #-3941]!	; 0xf65
     e28:	6c665f6d 	stclvs	15, cr5, [r6], #-436	; 0xfffffe4c
     e2c:	6d006761 	stcvs	7, cr6, [r0, #-388]	; 0xfffffe7c
     e30:	735f6d65 	cmpvc	pc, #6464	; 0x1940
     e34:	75746174 	ldrbvc	r6, [r4, #-372]!	; 0x174
     e38:	6c635f73 	stclvs	15, cr5, [r3], #-460	; 0xfffffe34
     e3c:	00726165 	rsbseq	r6, r2, r5, ror #2
     e40:	6e697270 	mcrvs	2, 3, r7, cr9, cr0, {3}
     e44:	6c665f74 	stclvs	15, cr5, [r6], #-464	; 0xfffffe30
     e48:	61006761 	tstvs	r0, r1, ror #14
     e4c:	2f686372 	svccs	0x00686372
     e50:	2f6d7261 	svccs	0x006d7261
     e54:	6863616d 	stmdavs	r3!, {r0, r2, r3, r5, r6, r8, sp, lr}^
     e58:	6e75732d 	cdpvs	3, 7, cr7, cr5, cr13, {1}
     e5c:	702f6978 	eorvc	r6, pc, r8, ror r9	; <UNPREDICTABLE>
     e60:	74732f6d 	ldrbtvc	r2, [r3], #-3949	; 0xf6d
     e64:	62646e61 	rsbvs	r6, r4, #1552	; 0x610
     e68:	2e2e2f79 	mcrcs	15, 1, r2, cr14, cr9, {3}
     e6c:	5f6d702f 	svcpl	0x006d702f
     e70:	75626564 	strbvc	r6, [r2, #-1380]!	; 0x564
     e74:	00632e67 	rsbeq	r2, r3, r7, ror #28
     e78:	695f6f69 	ldmdbvs	pc, {r0, r3, r5, r6, r8, r9, sl, fp, sp, lr}^	; <UNPREDICTABLE>
     e7c:	0074696e 	rsbseq	r6, r4, lr, ror #18
     e80:	5f6d656d 	svcpl	0x006d656d
     e84:	74617473 	strbtvc	r7, [r1], #-1139	; 0x473
     e88:	695f7375 	ldmdbvs	pc, {r0, r2, r4, r5, r6, r8, r9, ip, sp, lr}^	; <UNPREDICTABLE>
     e8c:	0074696e 	rsbseq	r6, r4, lr, ror #18
     e90:	5f746567 	svcpl	0x00746567
     e94:	5f6d656d 	svcpl	0x006d656d
     e98:	74617473 	strbtvc	r7, [r1], #-1139	; 0x473
     e9c:	69007375 	stmdbvs	r0, {r0, r2, r4, r5, r6, r8, r9, ip, sp, lr}
     ea0:	6e695f6f 	cdpvs	15, 6, cr5, cr9, cr15, {3}
     ea4:	6c5f7469 	cfldrdvs	mvd7, [pc], {105}	; 0x69
     ea8:	6400776f 	strvs	r7, [r0], #-1903	; 0x76f
     eac:	5f617461 	svcpl	0x00617461
     eb0:	73007277 	movwvc	r7, #631	; 0x277
     eb4:	5f776f68 	svcpl	0x00776f68
     eb8:	5f6d656d 	svcpl	0x006d656d
     ebc:	74617473 	strbtvc	r7, [r1], #-1139	; 0x473
     ec0:	64007375 	strvs	r7, [r0], #-885	; 0x375
     ec4:	00617461 	rsbeq	r7, r1, r1, ror #8
     ec8:	74617473 	strbtvc	r7, [r1], #-1139	; 0x473
     ecc:	725f7375 	subsvc	r7, pc, #-738197503	; 0xd4000001
     ed0:	705f6765 	subsvc	r6, pc, r5, ror #14
     ed4:	6d745f61 	ldclvs	15, cr5, [r4, #-388]!	; 0xfffffe7c
     ed8:	6c630070 	stclvs	0, cr0, [r3], #-448	; 0xfffffe40
     edc:	5f726165 	svcpl	0x00726165
     ee0:	5f6d656d 	svcpl	0x006d656d
     ee4:	67616c66 	strbvs	r6, [r1, -r6, ror #24]!
     ee8:	6d656d00 	stclvs	13, cr6, [r5, #-0]
     eec:	6174735f 	cmnvs	r4, pc, asr r3
     ef0:	5f737574 	svcpl	0x00737574
     ef4:	74697865 	strbtvc	r7, [r9], #-2149	; 0x865
     ef8:	61747300 	cmnvs	r4, r0, lsl #6
     efc:	5f737574 	svcpl	0x00737574
     f00:	5f676572 	svcpl	0x00676572
     f04:	5f006170 	svcpl	0x00006170
     f08:	705f725f 	subsvc	r7, pc, pc, asr r2	; <UNPREDICTABLE>
     f0c:	705f6f69 	subsvc	r6, pc, r9, ror #30
     f10:	685f6461 	ldmdavs	pc, {r0, r5, r6, sl, sp, lr}^	; <UNPREDICTABLE>
     f14:	00646c6f 	rsbeq	r6, r4, pc, ror #24
     f18:	79737562 	ldmdbvc	r3!, {r1, r5, r6, r8, sl, ip, sp, lr}^
     f1c:	6961775f 	stmdbvs	r1!, {r0, r1, r2, r3, r4, r6, r8, r9, sl, ip, sp, lr}^
     f20:	676e6974 			; <UNDEFINED> instruction: 0x676e6974
     f24:	76617300 	strbtvc	r7, [r1], -r0, lsl #6
     f28:	656d5f65 	strbvs	r5, [sp, #-3941]!	; 0xf65
     f2c:	74735f6d 	ldrbtvc	r5, [r3], #-3949	; 0xf6d
     f30:	73757461 	cmnvc	r5, #1627389952	; 0x61000000
     f34:	725f5f00 	subsvc	r5, pc, #0
     f38:	6372705f 	cmnvs	r2, #95	; 0x5f
     f3c:	69705f6d 	ldmdbvs	r0!, {r0, r2, r3, r5, r6, r8, r9, sl, fp, ip, lr}^
     f40:	61705f6f 	cmnvs	r0, pc, ror #30
     f44:	6f685f64 	svcvs	0x00685f64
     f48:	7700646c 	strvc	r6, [r0, -ip, ror #8]
     f4c:	75705f72 	ldrbvc	r5, [r0, #-3954]!	; 0xf72
     f50:	0065736c 	rsbeq	r7, r5, ip, ror #6
     f54:	6e756f63 	cdpvs	15, 7, cr6, cr5, cr3, {3}
     f58:	5f726574 	svcpl	0x00726574
     f5c:	62616e65 	rsbvs	r6, r1, #1616	; 0x650
     f60:	7400656c 	strvc	r6, [r0], #-1388	; 0x56c
     f64:	65677261 	strbvs	r7, [r7, #-609]!	; 0x261
     f68:	68630074 	stmdavs	r3!, {r2, r4, r5, r6}^
     f6c:	65676e61 	strbvs	r6, [r7, #-3681]!	; 0xe61
     f70:	6e75725f 	mrcvs	2, 3, r7, cr5, cr15, {2}
     f74:	656d6974 	strbvs	r6, [sp, #-2420]!	; 0x974
     f78:	766e655f 			; <UNDEFINED> instruction: 0x766e655f
     f7c:	73657200 	cmnvc	r5, #0
     f80:	65726f74 	ldrbvs	r6, [r2, #-3956]!	; 0xf74
     f84:	7265705f 	rsbvc	r7, r5, #95	; 0x5f
     f88:	756f6366 	strbvc	r6, [pc, #-870]!	; c2a <disable_program_flow_prediction+0x16>
     f8c:	7265746e 	rsbvc	r7, r5, #1845493760	; 0x6e000000
     f90:	6c656400 	cfstrdvs	mvd6, [r5], #-0
     f94:	755f7961 	ldrbvc	r7, [pc, #-2401]	; 63b <save_mem_status_nommu+0x53>
     f98:	766f0073 			; <UNDEFINED> instruction: 0x766f0073
     f9c:	65687265 	strbvs	r7, [r8, #-613]!	; 0x265
     fa0:	67006461 	strvs	r6, [r0, -r1, ror #8]
     fa4:	655f7465 	ldrbvs	r7, [pc, #-1125]	; b47 <flush_icache+0x1f>
     fa8:	746e6576 	strbtvc	r6, [lr], #-1398	; 0x576
     fac:	756f635f 	strbvc	r6, [pc, #-863]!	; c55 <mem_flush_tlb+0x9>
     fb0:	7265746e 	rsbvc	r7, r5, #1845493760	; 0x6e000000
     fb4:	616e6500 	cmnvs	lr, r0, lsl #10
     fb8:	5f656c62 	svcpl	0x00656c62
     fbc:	69766964 	ldmdbvs	r6!, {r2, r5, r6, r8, fp, sp, lr}^
     fc0:	00726564 	rsbseq	r6, r2, r4, ror #10
     fc4:	65736572 	ldrbvs	r6, [r3, #-1394]!	; 0x572
     fc8:	6f635f74 	svcvs	0x00635f74
     fcc:	65746e75 	ldrbvs	r6, [r4, #-3701]!	; 0xe75
     fd0:	6e630072 	mcrvs	0, 3, r0, cr3, cr2, {3}
     fd4:	00726574 	rsbseq	r6, r2, r4, ror r5
     fd8:	6b636162 	blvs	18d9568 <__bss_end+0x18d6018>
     fdc:	705f7075 	subsvc	r7, pc, r5, ror r0	; <UNPREDICTABLE>
     fe0:	5f667265 	svcpl	0x00667265
     fe4:	6e756f63 	cdpvs	15, 7, cr6, cr5, cr3, {3}
     fe8:	5f726574 	svcpl	0x00726574
     fec:	62616e65 	rsbvs	r6, r1, #1616	; 0x650
     ff0:	725f656c 	subsvc	r6, pc, #452984832	; 0x1b000000
     ff4:	49006765 	stmdbmi	r0, {r0, r2, r5, r6, r8, r9, sl, sp, lr}
     ff8:	4341435f 	movtmi	r4, #4959	; 0x135f
     ffc:	4d5f4548 	cfldr64mi	mvdx4, [pc, #-288]	; ee4 <jump_to_resume0_nommu+0xa4>
    1000:	00535349 	subseq	r5, r3, r9, asr #6
    1004:	635f7375 	cmpvs	pc, #-738197503	; 0xd4000001
    1008:	6400746e 	strvs	r7, [r0], #-1134	; 0x46e
    100c:	65725f6f 	ldrbvs	r5, [r2, #-3951]!	; 0xf6f
    1010:	00746573 	rsbseq	r6, r4, r3, ror r5
    1014:	4c545f44 	mrrcmi	15, 4, r5, r4, cr4
    1018:	494d5f42 	stmdbmi	sp, {r1, r6, r8, r9, sl, fp, ip, lr}^
    101c:	62005353 	andvs	r5, r0, #1275068417	; 0x4c000001
    1020:	756b6361 	strbvc	r6, [fp, #-865]!	; 0x361
    1024:	65705f70 	ldrbvs	r5, [r0, #-3952]!	; 0xf70
    1028:	6f636672 	svcvs	0x00636672
    102c:	65746e75 	ldrbvs	r6, [r4, #-3701]!	; 0xe75
    1030:	5f5f0072 	svcpl	0x005f0072
    1034:	00323373 	eorseq	r3, r2, r3, ror r3
    1038:	6e657665 	cdpvs	6, 6, cr7, cr5, cr5, {3}
    103c:	6e635f74 	mcrvs	15, 3, r5, cr3, cr4, {3}
    1040:	61620074 	smcvs	8196	; 0x2004
    1044:	70756b63 	rsbsvc	r6, r5, r3, ror #22
    1048:	7265705f 	rsbvc	r7, r5, #95	; 0x5f
    104c:	6f635f66 	svcvs	0x00635f66
    1050:	65746e75 	ldrbvs	r6, [r4, #-3701]!	; 0xe75
    1054:	74635f72 	strbtvc	r5, [r3], #-3954	; 0xf72
    1058:	725f6c72 	subsvc	r6, pc, #29184	; 0x7200
    105c:	74006765 	strvc	r6, [r0], #-1893	; 0x765
    1060:	00657079 	rsbeq	r7, r5, r9, ror r0
    1064:	68637261 	stmdavs	r3!, {r0, r5, r6, r9, ip, sp, lr}^
    1068:	6d72612f 	ldfvse	f6, [r2, #-188]!	; 0xffffff44
    106c:	63616d2f 	cmnvs	r1, #3008	; 0xbc0
    1070:	75732d68 	ldrbvc	r2, [r3, #-3432]!	; 0xd68
    1074:	2f69786e 	svccs	0x0069786e
    1078:	732f6d70 	teqvc	pc, #7168	; 0x1c00
    107c:	646e6174 	strbtvs	r6, [lr], #-372	; 0x174
    1080:	2e2f7962 	cdpcs	9, 2, cr7, cr15, cr2, {3}
    1084:	656d2f2e 	strbvs	r2, [sp, #-3886]!	; 0xf2e
    1088:	69745f6d 	ldmdbvs	r4!, {r0, r2, r3, r5, r6, r8, r9, sl, fp, ip, lr}^
    108c:	676e696d 	strbvs	r6, [lr, -sp, ror #18]!
    1090:	4400632e 	strmi	r6, [r0], #-814	; 0x32e
    1094:	4341435f 	movtmi	r4, #4959	; 0x135f
    1098:	4d5f4548 	cfldr64mi	mvdx4, [pc, #-288]	; f80 <__save_processor_state+0x80>
    109c:	00535349 	subseq	r5, r3, r9, asr #6
    10a0:	5f746567 	svcpl	0x00746567
    10a4:	6c637963 	stclvs	9, cr7, [r3], #-396	; 0xfffffe74
    10a8:	756f6365 	strbvc	r6, [pc, #-869]!	; d4b <mem_preload_tlb+0xdb>
    10ac:	6900746e 	stmdbvs	r0, {r1, r2, r3, r5, r6, sl, ip, sp, lr}
    10b0:	5f74696e 	svcpl	0x0074696e
    10b4:	66726570 			; <UNDEFINED> instruction: 0x66726570
    10b8:	6e756f63 	cdpvs	15, 7, cr6, cr5, cr3, {3}
    10bc:	73726574 	cmnvc	r2, #486539264	; 0x1d000000
    10c0:	74657300 	strbtvc	r7, [r5], #-768	; 0x300
    10c4:	6576655f 	ldrbvs	r6, [r6, #-1375]!	; 0x55f
    10c8:	635f746e 	cmpvs	pc, #1845493760	; 0x6e000000
    10cc:	746e756f 	strbtvc	r7, [lr], #-1391	; 0x56f
    10d0:	69007265 	stmdbvs	r0, {r0, r2, r5, r6, r9, ip, sp, lr}
    10d4:	5f74696e 	svcpl	0x0074696e
    10d8:	6e657665 	cdpvs	6, 6, cr7, cr5, cr5, {3}
    10dc:	6f635f74 	svcvs	0x00635f74
    10e0:	65746e75 	ldrbvs	r6, [r4, #-3701]!	; 0xe75
    10e4:	6f630072 	svcvs	0x00630072
    10e8:	65746e75 	ldrbvs	r6, [r4, #-3701]!	; 0xe75
    10ec:	79745f72 	ldmdbvc	r4!, {r1, r4, r5, r6, r8, r9, sl, fp, ip, lr}^
    10f0:	655f6570 	ldrbvs	r6, [pc, #-1392]	; b88 <disable_icache>
    10f4:	74616d00 	strbtvc	r6, [r1], #-3328	; 0xd00
    10f8:	655f6863 	ldrbvs	r6, [pc, #-2147]	; 89d <init_event_counter+0x29>
    10fc:	746e6576 	strbtvc	r6, [lr], #-1398	; 0x576
    1100:	756f635f 	strbvc	r6, [pc, #-863]!	; da9 <__turn_mmu_off+0x9>
    1104:	7265746e 	rsbvc	r7, r5, #1845493760	; 0x6e000000
    1108:	545f4900 	ldrbpl	r4, [pc], #-2304	; 1110 <__save_processor_state+0x210>
    110c:	4d5f424c 	lfmmi	f4, 2, [pc, #-304]	; fe4 <__save_processor_state+0xe4>
    1110:	00535349 	subseq	r5, r3, r9, asr #6
    1114:	68637261 	stmdavs	r3!, {r0, r5, r6, r9, ip, sp, lr}^
    1118:	6d72612f 	ldfvse	f6, [r2, #-188]!	; 0xffffff44
    111c:	63616d2f 	cmnvs	r1, #3008	; 0xbc0
    1120:	75732d68 	ldrbvc	r2, [r3, #-3432]!	; 0xd68
    1124:	2f69786e 	svccs	0x0069786e
    1128:	732f6d70 	teqvc	pc, #7168	; 0x1c00
    112c:	646e6174 	strbtvs	r6, [lr], #-372	; 0x174
    1130:	2e2f7962 	cdpcs	9, 2, cr7, cr15, cr2, {3}
    1134:	656d2f2e 	strbvs	r2, [sp, #-3886]!	; 0xf2e
    1138:	6d6d5f6d 	stclvs	15, cr5, [sp, #-436]!	; 0xfffffe4c
    113c:	63705f75 	cmnvs	r0, #468	; 0x1d4
    1140:	7200632e 	andvc	r6, r0, #-1207959552	; 0xb8000000
    1144:	6f747365 	svcvs	0x00747365
    1148:	6d5f6572 	cfldr64vs	mvdx6, [pc, #-456]	; f88 <__save_processor_state+0x88>
    114c:	735f756d 	cmpvc	pc, #457179136	; 0x1b400000
    1150:	65746174 	ldrbvs	r6, [r4, #-372]!	; 0x174
    1154:	76617300 	strbtvc	r7, [r1], -r0, lsl #6
    1158:	6d6d5f65 	stclvs	15, cr5, [sp, #-404]!	; 0xfffffe6c
    115c:	74735f75 	ldrbtvc	r5, [r3], #-3957	; 0xf75
    1160:	00657461 	rsbeq	r7, r5, r1, ror #8
    1164:	70746f70 	rsbsvc	r6, r4, r0, ror pc
    1168:	69006469 	stmdbvs	r0, {r0, r3, r5, r6, sl, sp, lr}
    116c:	7261665f 	rsbvc	r6, r1, #99614720	; 0x5f00000
    1170:	63637300 	cmnvs	r3, #0
    1174:	00726766 	rsbseq	r6, r2, r6, ror #14
    1178:	72636569 	rsbvc	r6, r3, #440401920	; 0x1a400000
    117c:	665f6400 	ldrbvs	r6, [pc], -r0, lsl #8
    1180:	73007273 	movwvc	r7, #627	; 0x273
    1184:	64657661 	strbtvs	r7, [r5], #-1633	; 0x661
    1188:	7370735f 	cmnvc	r0, #2080374785	; 0x7c000001
    118c:	62615f72 	rsbvs	r5, r1, #456	; 0x1c8
    1190:	72750074 	rsbsvc	r0, r5, #116	; 0x74
    1194:	69707477 	ldmdbvs	r0!, {r0, r1, r2, r4, r5, r6, sl, ip, sp, lr}^
    1198:	61730064 	cmnvs	r3, r4, rrx
    119c:	5f646576 	svcpl	0x00646576
    11a0:	72737073 	rsbsvc	r7, r3, #115	; 0x73
    11a4:	6e6f6d5f 	mcrvs	13, 3, r6, cr15, cr15, {2}
    11a8:	64637300 	strbtvs	r7, [r3], #-768	; 0x300
    11ac:	6e656762 	cdpvs	7, 6, cr6, cr5, cr2, {3}
    11b0:	00726c62 	rsbseq	r6, r2, r2, ror #24
    11b4:	65766173 	ldrbvs	r6, [r6, #-371]!	; 0x173
    11b8:	6f635f64 	svcvs	0x00635f64
    11bc:	7865746e 	stmdavc	r5!, {r1, r2, r3, r5, r6, sl, ip, sp, lr}^
    11c0:	31725f74 	cmncc	r2, r4, ror pc
    11c4:	69665f33 	stmdbvs	r6!, {r0, r1, r4, r5, r8, r9, sl, fp, ip, lr}^
    11c8:	61730071 	cmnvs	r3, r1, ror r0
    11cc:	5f646576 	svcpl	0x00646576
    11d0:	746e6f63 	strbtvc	r6, [lr], #-3939	; 0xf63
    11d4:	5f747865 	svcpl	0x00747865
    11d8:	5f333172 	svcpl	0x00333172
    11dc:	00717269 	rsbseq	r7, r1, r9, ror #4
    11e0:	74736572 	ldrbtvc	r6, [r3], #-1394	; 0x572
    11e4:	5f65726f 	svcpl	0x0065726f
    11e8:	636f7270 	cmnvs	pc, #7
    11ec:	6f737365 	svcvs	0x00737365
    11f0:	74745f72 	ldrbtvc	r5, [r4], #-3954	; 0xf72
    11f4:	00307262 	eorseq	r7, r0, r2, ror #4
    11f8:	65766173 	ldrbvs	r6, [r6, #-371]!	; 0x173
    11fc:	70735f64 	rsbsvc	r5, r3, r4, ror #30
    1200:	735f7273 	cmpvc	pc, #805306375	; 0x30000007
    1204:	64006376 	strvs	r6, [r0], #-886	; 0x376
    1208:	62617369 	rsbvs	r7, r1, #-1543503871	; 0xa4000001
    120c:	635f656c 	cmpvs	pc, #452984832	; 0x1b000000
    1210:	65686361 	strbvs	r6, [r8, #-865]!	; 0x361
    1214:	766e695f 			; <UNDEFINED> instruction: 0x766e695f
    1218:	64696c61 	strbtvs	r6, [r9], #-3169	; 0xc61
    121c:	00657461 	rsbeq	r7, r5, r1, ror #8
    1220:	65725f5f 	ldrbvs	r5, [r2, #-3935]!	; 0xf5f
    1224:	726f7473 	rsbvc	r7, pc, #1929379840	; 0x73000000
    1228:	72705f65 	rsbsvc	r5, r0, #404	; 0x194
    122c:	7365636f 	cmnvc	r5, #-1140850687	; 0xbc000001
    1230:	5f726f73 	svcpl	0x00726f73
    1234:	74617473 	strbtvc	r7, [r1], #-1139	; 0x473
    1238:	65690065 	strbvs	r0, [r9, #-101]!	; 0x65
    123c:	73007273 	movwvc	r7, #627	; 0x273
    1240:	64657661 	strbtvs	r7, [r5], #-1633	; 0x661
    1244:	7370735f 	cmnvc	r0, #2080374785	; 0x7c000001
    1248:	69665f72 	stmdbvs	r6!, {r1, r4, r5, r6, r8, r9, sl, fp, ip, lr}^
    124c:	63700071 	cmnvs	r0, #113	; 0x71
    1250:	63007273 	movwvs	r7, #627	; 0x273
    1254:	00747874 	rsbseq	r7, r4, r4, ror r8
    1258:	65766173 	ldrbvs	r6, [r6, #-371]!	; 0x173
    125c:	70735f64 	rsbsvc	r5, r3, r4, ror #30
    1260:	695f7273 	ldmdbvs	pc, {r0, r1, r4, r5, r6, r9, ip, sp, lr}^	; <UNPREDICTABLE>
    1264:	64007172 	strvs	r7, [r0], #-370	; 0x172
    1268:	7366615f 	cmnvc	r6, #-1073741801	; 0xc0000017
    126c:	61730072 	cmnvs	r3, r2, ror r0
    1270:	5f646576 	svcpl	0x00646576
    1274:	746e6f63 	strbtvc	r6, [lr], #-3939	; 0xf63
    1278:	00747865 	rsbseq	r7, r4, r5, ror #16
    127c:	5f746573 	svcpl	0x00746573
    1280:	72706f63 	rsbsvc	r6, r0, #396	; 0x18c
    1284:	65645f6f 	strbvs	r5, [r4, #-3951]!	; 0xf6f
    1288:	6c756166 	ldfvse	f6, [r5], #-408	; 0xfffffe68
    128c:	6f6e0074 	svcvs	0x006e0074
    1290:	6163736e 	cmnvs	r3, lr, ror #6
    1294:	72746363 	rsbsvc	r6, r4, #-1946157055	; 0x8c000001
    1298:	6300726c 	movwvs	r7, #620	; 0x26c
    129c:	00726365 	rsbseq	r6, r2, r5, ror #6
    12a0:	5f746573 	svcpl	0x00746573
    12a4:	72627474 	rsbvc	r7, r2, #1946157056	; 0x74000000
    12a8:	72750030 	rsbsvc	r0, r5, #48	; 0x30
    12ac:	6970746f 	ldmdbvs	r0!, {r0, r1, r2, r3, r5, r6, sl, ip, sp, lr}^
    12b0:	72610064 	rsbvc	r0, r1, #100	; 0x64
    12b4:	612f6863 	teqvs	pc, r3, ror #16
    12b8:	6d2f6d72 	stcvs	13, cr6, [pc, #-456]!	; 10f8 <__save_processor_state+0x1f8>
    12bc:	2d686361 	stclcs	3, cr6, [r8, #-388]!	; 0xfffffe7c
    12c0:	786e7573 	stmdavc	lr!, {r0, r1, r4, r5, r6, r8, sl, ip, sp, lr}^
    12c4:	6d702f69 	ldclvs	15, cr2, [r0, #-420]!	; 0xfffffe5c
    12c8:	6174732f 	cmnvs	r4, pc, lsr #6
    12cc:	7962646e 	stmdbvc	r2!, {r1, r2, r3, r5, r6, sl, sp, lr}^
    12d0:	2f2e2e2f 	svccs	0x002e2e2f
    12d4:	5f6d656d 	svcpl	0x006d656d
    12d8:	2e757063 	cdpcs	0, 7, cr7, cr5, cr3, {3}
    12dc:	5f5f0063 	svcpl	0x005f0063
    12e0:	65766173 	ldrbvs	r6, [r6, #-371]!	; 0x173
    12e4:	6f72705f 	svcvs	0x0072705f
    12e8:	73736563 	cmnvc	r3, #415236096	; 0x18c00000
    12ec:	735f726f 	cmpvc	pc, #-268435450	; 0xf0000006
    12f0:	65746174 	ldrbvs	r6, [r4, #-372]!	; 0x174
    12f4:	76617300 	strbtvc	r7, [r1], -r0, lsl #6
    12f8:	735f6465 	cmpvc	pc, #1694498816	; 0x65000000
    12fc:	5f727370 	svcpl	0x00727370
    1300:	00646e75 	rsbeq	r6, r4, r5, ror lr
    1304:	65736366 	ldrbvs	r6, [r3, #-870]!	; 0x366
    1308:	76617300 	strbtvc	r7, [r1], -r0, lsl #6
    130c:	635f6465 	cmpvs	pc, #1694498816	; 0x65000000
    1310:	65746e6f 	ldrbvs	r6, [r4, #-3695]!	; 0xe6f
    1314:	725f7478 	subsvc	r7, pc, #2013265920	; 0x78000000
    1318:	755f3331 	ldrbvc	r3, [pc, #-817]	; fef <__save_processor_state+0xef>
    131c:	7300646e 	movwvc	r6, #1134	; 0x46e
    1320:	64657661 	strbtvs	r7, [r5], #-1633	; 0x661
    1324:	6e6f635f 	mcrvs	3, 3, r6, cr15, cr15, {2}
    1328:	74786574 	ldrbtvc	r6, [r8], #-1396	; 0x574
    132c:	3231725f 	eorscc	r7, r1, #-268435451	; 0xf0000005
    1330:	6376735f 	cmnvs	r6, #2080374785	; 0x7c000001
    1334:	76617300 	strbtvc	r7, [r1], -r0, lsl #6
    1338:	635f6465 	cmpvs	pc, #1694498816	; 0x65000000
    133c:	5f727370 	svcpl	0x00727370
    1340:	00637673 	rsbeq	r7, r3, r3, ror r6
    1344:	7273666f 	rsbsvc	r6, r3, #116391936	; 0x6f00000
    1348:	636d7000 	cmnvs	sp, #0
    134c:	72746e6f 	rsbsvc	r6, r4, #1776	; 0x6f0
    1350:	00726c6f 	rsbseq	r6, r2, pc, ror #24
    1354:	72736563 	rsbsvc	r6, r3, #415236096	; 0x18c00000
    1358:	66656400 	strbtvs	r6, [r5], -r0, lsl #8
    135c:	746c7561 	strbtvc	r7, [ip], #-1377	; 0x561
    1360:	706f635f 	rsbvc	r6, pc, pc, asr r3	; <UNPREDICTABLE>
    1364:	765f6f72 	usub16vc	r6, pc, r2	; <UNPREDICTABLE>
    1368:	65756c61 	ldrbvs	r6, [r5, #-3169]!	; 0xc61
    136c:	665f6900 	ldrbvs	r6, [pc], -r0, lsl #18
    1370:	64007273 	strvs	r7, [r0], #-627	; 0x273
    1374:	7261665f 	rsbvc	r6, r1, #99614720	; 0x5f00000
    1378:	62766d00 	rsbsvs	r6, r6, #0
    137c:	70007261 	andvc	r7, r0, r1, ror #4
    1380:	756f636d 	strbvc	r6, [pc, #-877]!	; 101b <__save_processor_state+0x11b>
    1384:	0072746e 	rsbseq	r7, r2, lr, ror #8
    1388:	66615f69 	strbtvs	r5, [r1], -r9, ror #30
    138c:	73007273 	movwvc	r7, #627	; 0x273
    1390:	64657661 	strbtvs	r7, [r5], #-1633	; 0x661
    1394:	6e6f635f 	mcrvs	3, 3, r6, cr15, cr15, {2}
    1398:	74786574 	ldrbtvc	r6, [r8], #-1396	; 0x574
    139c:	3331725f 	teqcc	r1, #-268435451	; 0xf0000005
    13a0:	7462615f 	strbtvc	r6, [r2], #-351	; 0x15f
    13a4:	76617300 	strbtvc	r7, [r1], -r0, lsl #6
    13a8:	655f6465 	ldrbvs	r6, [pc, #-1125]	; f4b <__save_processor_state+0x4b>
    13ac:	7974706d 	ldmdbvc	r4!, {r0, r2, r3, r5, r6, ip, sp, lr}^
    13b0:	6e6f635f 	mcrvs	3, 3, r6, cr15, cr15, {2}
    13b4:	74786574 	ldrbtvc	r6, [r8], #-1396	; 0x574
    13b8:	6376735f 	cmnvs	r6, #2080374785	; 0x7c000001
    13bc:	76617300 	strbtvc	r7, [r1], -r0, lsl #6
    13c0:	635f6465 	cmpvs	pc, #1694498816	; 0x65000000
    13c4:	65746e6f 	ldrbvs	r6, [r4, #-3695]!	; 0xe6f
    13c8:	725f7478 	subsvc	r7, pc, #2013265920	; 0x78000000
    13cc:	735f3331 	cmpvc	pc, #-1006632960	; 0xc4000000
    13d0:	73007379 	movwvc	r7, #889	; 0x379
    13d4:	64657661 	strbtvs	r7, [r5], #-1633	; 0x661
    13d8:	6e6f635f 	mcrvs	3, 3, r6, cr15, cr15, {2}
    13dc:	74786574 	ldrbtvc	r6, [r8], #-1396	; 0x574
    13e0:	3331725f 	teqcc	r1, #-268435451	; 0xf0000005
    13e4:	6e6f6d5f 	mcrvs	13, 3, r6, cr15, cr15, {2}
    13e8:	74657300 	strbtvc	r7, [r5], #-768	; 0x300
    13ec:	7265735f 	rsbvc	r7, r5, #2080374785	; 0x7c000001
    13f0:	5f6c6169 	svcpl	0x006c6169
    13f4:	006b6c63 	rsbeq	r6, fp, r3, ror #24
    13f8:	74726175 	ldrbtvc	r6, [r2], #-373	; 0x175
    13fc:	6970675f 	ldmdbvs	r0!, {r0, r1, r2, r3, r4, r6, r8, r9, sl, sp, lr}^
    1400:	6f635f6f 	svcvs	0x00635f6f
    1404:	6769666e 	strbvs	r6, [r9, -lr, ror #12]!
    1408:	6c61765f 	stclvs	6, cr7, [r1], #-380	; 0xfffffe84
    140c:	74657300 	strbtvc	r7, [r5], #-768	; 0x300
    1410:	7265735f 	rsbvc	r7, r5, #2080374785	; 0x7c000001
    1414:	5f6c6169 	svcpl	0x006c6169
    1418:	6f697067 	svcvs	0x00697067
    141c:	72657300 	rsbvc	r7, r5, #0
    1420:	5f6c6169 	svcpl	0x006c6169
    1424:	73746567 	cmnvc	r4, #432013312	; 0x19c00000
    1428:	72657300 	rsbvc	r7, r5, #0
    142c:	5f6c6169 	svcpl	0x006c6169
    1430:	74696e69 	strbtvc	r6, [r9], #-3689	; 0xe69
    1434:	63616200 	cmnvs	r1, #0
    1438:	5f70756b 	svcpl	0x0070756b
    143c:	6f697067 	svcvs	0x00697067
    1440:	7261755f 	rsbvc	r7, r1, #398458880	; 0x17c00000
    1444:	65730074 	ldrbvs	r0, [r3, #-116]!	; 0x74
    1448:	6c616972 	stclvs	9, cr6, [r1], #-456	; 0xfffffe38
    144c:	7465675f 	strbtvc	r6, [r5], #-1887	; 0x75f
    1450:	6168635f 	cmnvs	r8, pc, asr r3
    1454:	65730072 	ldrbvs	r0, [r3, #-114]!	; 0x72
    1458:	6c616972 	stclvs	9, cr6, [r1], #-456	; 0xfffffe38
    145c:	696e695f 	stmdbvs	lr!, {r0, r1, r2, r3, r4, r6, r8, fp, sp, lr}^
    1460:	6f6e5f74 	svcvs	0x006e5f74
    1464:	00756d6d 	rsbseq	r6, r5, sp, ror #26
    1468:	5f637273 	svcpl	0x00637273
    146c:	71657266 	cmnvc	r5, r6, ror #4
    1470:	72657300 	rsbvc	r7, r5, #0
    1474:	5f6c6169 	svcpl	0x006c6169
    1478:	73747570 	cmnvc	r4, #469762048	; 0x1c000000
    147c:	6d6f6e5f 	stclvs	14, cr6, [pc, #-380]!	; 1308 <__restore_processor_state+0x4>
    1480:	7300756d 	movwvc	r7, #1389	; 0x56d
    1484:	61697265 	cmnvs	r9, r5, ror #4
    1488:	75705f6c 	ldrbvc	r5, [r0, #-3948]!	; 0xf6c
    148c:	68635f74 	stmdavs	r3!, {r2, r4, r5, r6, r8, r9, sl, fp, ip, lr}^
    1490:	6e5f7261 	cdpvs	2, 5, cr7, cr15, cr1, {3}
    1494:	756d6d6f 	strbvc	r6, [sp, #-3439]!	; 0xd6f
    1498:	72617500 	rsbvc	r7, r1, #0
    149c:	70675f74 	rsbvc	r5, r7, r4, ror pc
    14a0:	6d5f6f69 	ldclvs	15, cr6, [pc, #-420]	; 1304 <__restore_processor_state>
    14a4:	006b7361 	rsbeq	r7, fp, r1, ror #6
    14a8:	69726573 	ldmdbvs	r2!, {r0, r1, r4, r5, r6, r8, sl, sp, lr}^
    14ac:	705f6c61 	subsvc	r6, pc, r1, ror #24
    14b0:	635f7475 	cmpvs	pc, #1962934272	; 0x75000000
    14b4:	00726168 	rsbseq	r6, r2, r8, ror #2
    14b8:	6c633270 	sfmvs	f3, 2, [r3], #-448	; 0xfffffe40
    14bc:	6162006b 	cmnvs	r2, fp, rrx
    14c0:	70756b63 	rsbsvc	r6, r5, r3, ror #22
    14c4:	726f705f 	rsbvc	r7, pc, #95	; 0x5f
    14c8:	64695f74 	strbtvs	r5, [r9], #-3956	; 0xf74
    14cc:	72657300 	rsbvc	r7, r5, #0
    14d0:	5f6c6169 	svcpl	0x006c6169
    14d4:	74696e69 	strbtvc	r6, [r9], #-3689	; 0xe69
    14d8:	665f6465 	ldrbvs	r6, [pc], -r5, ror #8
    14dc:	0067616c 	rsbeq	r6, r7, ip, ror #2
    14e0:	5f756363 	svcpl	0x00756363
    14e4:	00676572 	rsbeq	r6, r7, r2, ror r5
    14e8:	69726573 	ldmdbvs	r2!, {r0, r1, r4, r5, r6, r8, sl, sp, lr}^
    14ec:	695f6c61 	ldmdbvs	pc, {r0, r5, r6, sl, fp, sp, lr}^	; <UNPREDICTABLE>
    14f0:	5f74696e 	svcpl	0x0074696e
    14f4:	616e616d 	cmnvs	lr, sp, ror #2
    14f8:	00726567 	rsbseq	r6, r2, r7, ror #10
    14fc:	5f756d6d 	svcpl	0x00756d6d
    1500:	67616c66 	strbvs	r6, [r1, -r6, ror #24]!
    1504:	72657300 	rsbvc	r7, r5, #0
    1508:	5f6c6169 	svcpl	0x006c6169
    150c:	74697865 	strbtvc	r7, [r9], #-2149	; 0x865
    1510:	6e616d5f 	mcrvs	13, 3, r6, cr1, cr15, {2}
    1514:	72656761 	rsbvc	r6, r5, #25427968	; 0x1840000
    1518:	72657300 	rsbvc	r7, r5, #0
    151c:	5f6c6169 	svcpl	0x006c6169
    1520:	73746567 	cmnvc	r4, #432013312	; 0x19c00000
    1524:	6d6f6e5f 	stclvs	14, cr6, [pc, #-380]!	; 13b0 <__restore_processor_state+0xac>
    1528:	6200756d 	andvs	r7, r0, #457179136	; 0x1b400000
    152c:	756b6361 	strbvc	r6, [fp, #-865]!	; 0x361
    1530:	63635f70 	cmnvs	r3, #448	; 0x1c0
    1534:	61755f75 	cmnvs	r5, r5, ror pc
    1538:	725f7472 	subsvc	r7, pc, #1912602624	; 0x72000000
    153c:	74657365 	strbtvc	r7, [r5], #-869	; 0x365
    1540:	72657300 	rsbvc	r7, r5, #0
    1544:	5f6c6169 	svcpl	0x006c6169
    1548:	73747570 	cmnvc	r4, #469762048	; 0x1c000000
    154c:	63726100 	cmnvs	r2, #0
    1550:	72612f68 	rsbvc	r2, r1, #416	; 0x1a0
    1554:	616d2f6d 	cmnvs	sp, sp, ror #30
    1558:	732d6863 	teqvc	sp, #6488064	; 0x630000
    155c:	69786e75 	ldmdbvs	r8!, {r0, r2, r4, r5, r6, r9, sl, fp, sp, lr}^
    1560:	2f6d702f 	svccs	0x006d702f
    1564:	6e617473 	mcrvs	4, 3, r7, cr1, cr3, {3}
    1568:	2f796264 	svccs	0x00796264
    156c:	6d2f2e2e 	stcvs	14, cr2, [pc, #-184]!	; 14bc <__restore_processor_state+0x1b8>
    1570:	735f6d65 	cmpvc	pc, #6464	; 0x1940
    1574:	61697265 	cmnvs	r9, r5, ror #4
    1578:	00632e6c 	rsbeq	r2, r3, ip, ror #28
    157c:	32627061 	rsbcc	r7, r2, #97	; 0x61
    1580:	6765725f 			; <UNDEFINED> instruction: 0x6765725f
    1584:	72657300 	rsbvc	r7, r5, #0
    1588:	5f6c6169 	svcpl	0x006c6169
    158c:	5f746567 	svcpl	0x00746567
    1590:	72616863 	rsbvc	r6, r1, #6488064	; 0x630000
    1594:	6d6f6e5f 	stclvs	14, cr6, [pc, #-380]!	; 1420 <__restore_processor_state+0x11c>
    1598:	7000756d 	andvc	r7, r0, sp, ror #10
    159c:	0074726f 	rsbseq	r7, r4, pc, ror #4
    15a0:	69726573 	ldmdbvs	r2!, {r0, r1, r4, r5, r6, r8, sl, sp, lr}^
    15a4:	655f6c61 	ldrbvs	r6, [pc, #-3169]	; 94b <restore_mmu_state+0xf>
    15a8:	00746978 	rsbseq	r6, r4, r8, ror r9
    15ac:	6b636162 	blvs	18d9b3c <__bss_end+0x18d65ec>
    15b0:	635f7075 	cmpvs	pc, #117	; 0x75
    15b4:	755f7563 	ldrbvc	r7, [pc, #-1379]	; 1059 <__save_processor_state+0x159>
    15b8:	00747261 	rsbseq	r7, r4, r1, ror #4
    15bc:	616f7475 	smcvs	63301	; 0xf745
    15c0:	7a697300 	bvc	1a5e1c8 <__bss_end+0x1a5ac78>
    15c4:	00745f65 	rsbseq	r5, r4, r5, ror #30
    15c8:	63727370 	cmnvs	r2, #-1073741823	; 0xc0000001
    15cc:	726f6600 	rsbvc	r6, pc, #0
    15d0:	0074616d 	rsbseq	r6, r4, sp, ror #2
    15d4:	6c6c6966 	stclvs	9, cr6, [ip], #-408	; 0xfffffe68
    15d8:	0068635f 	rsbeq	r6, r8, pc, asr r3
    15dc:	61765f5f 	cmnvs	r6, pc, asr pc
    15e0:	73696c5f 	cmnvc	r9, #24320	; 0x5f00
    15e4:	65640074 	strbvs	r0, [r4, #-116]!	; 0x74
    15e8:	67677562 	strbvs	r7, [r7, -r2, ror #10]!
    15ec:	625f7265 	subsvs	r7, pc, #1342177286	; 0x50000006
    15f0:	65666675 	strbvs	r6, [r6, #-1653]!	; 0x675
    15f4:	656e0072 	strbvs	r0, [lr, #-114]!	; 0x72
    15f8:	69746167 	ldmdbvs	r4!, {r0, r1, r2, r5, r6, r8, sp, lr}^
    15fc:	70006576 	andvc	r6, r0, r6, ror r5
    1600:	746e6972 	strbtvc	r6, [lr], #-2418	; 0x972
    1604:	7469006b 	strbtvc	r0, [r9], #-107	; 0x6b
    1608:	6100616f 	tstvs	r0, pc, ror #2
    160c:	2f686372 	svccs	0x00686372
    1610:	2f6d7261 	svccs	0x006d7261
    1614:	6863616d 	stmdavs	r3!, {r0, r2, r3, r5, r6, r8, sp, lr}^
    1618:	6e75732d 	cdpvs	3, 7, cr7, cr5, cr13, {1}
    161c:	702f6978 	eorvc	r6, pc, r8, ror r9	; <UNPREDICTABLE>
    1620:	74732f6d 	ldrbtvc	r2, [r3], #-3949	; 0xf6d
    1624:	62646e61 	rsbvs	r6, r4, #1552	; 0x610
    1628:	2e2e2f79 	mcrcs	15, 1, r2, cr14, cr9, {3}
    162c:	6d656d2f 	stclvs	13, cr6, [r5, #-188]!	; 0xffffff44
    1630:	6972705f 	ldmdbvs	r2!, {r0, r1, r2, r3, r4, r6, ip, sp, lr}^
    1634:	2e6b746e 	cdpcs	4, 6, cr7, cr11, cr14, {3}
    1638:	74730063 	ldrbtvc	r0, [r3], #-99	; 0x63
    163c:	006b6361 	rsbeq	r6, fp, r1, ror #6
    1640:	73677261 	cmnvc	r7, #268435462	; 0x10000006
    1644:	64617200 	strbtvs	r7, [r1], #-512	; 0x200
    1648:	5f007869 	svcpl	0x00007869
    164c:	0070615f 	rsbseq	r6, r0, pc, asr r1
    1650:	6c727473 	cfldrdvs	mvd7, [r2], #-460	; 0xfffffe34
    1654:	64006e65 	strvs	r6, [r0], #-3685	; 0xe65
    1658:	74696769 	strbtvc	r6, [r9], #-1897	; 0x769
    165c:	7274735f 	rsbsvc	r7, r4, #2080374785	; 0x7c000001
    1660:	00676e69 	rsbeq	r6, r7, r9, ror #28
    1664:	63727473 	cmnvs	r2, #1929379840	; 0x73000000
    1668:	70007970 	andvc	r7, r0, r0, ror r9
    166c:	74736564 	ldrbtvc	r6, [r3], #-1380	; 0x564
    1670:	69727000 	ldmdbvs	r2!, {ip, sp, lr}^
    1674:	615f746e 	cmpvs	pc, lr, ror #8
    1678:	6e67696c 	cdpvs	9, 6, cr6, cr7, cr12, {3}
    167c:	69727000 	ldmdbvs	r2!, {ip, sp, lr}^
    1680:	5f6b746e 	svcpl	0x006b746e
    1684:	6d6d6f6e 	stclvs	15, cr6, [sp, #-440]!	; 0xfffffe48
    1688:	5f5f0075 	svcpl	0x005f0075
    168c:	63756e67 	cmnvs	r5, #1648	; 0x670
    1690:	5f61765f 	svcpl	0x0061765f
    1694:	7473696c 	ldrbtvc	r6, [r3], #-2412	; 0x96c
    1698:	72747300 	rsbsvc	r7, r4, #0
    169c:	7461636e 	strbtvc	r6, [r1], #-878	; 0x36e
    16a0:	6d5f5f00 	ldclvs	15, cr5, [pc, #-0]	; 16a8 <set_ttbr0+0x8>
    16a4:	645f6d65 	ldrbvs	r6, [pc], #-3429	; 16ac <set_ttbr0+0xc>
    16a8:	00307669 	eorseq	r7, r0, r9, ror #12
    16ac:	51706d74 	cmnpl	r0, r4, ror sp
    16b0:	00746f75 	rsbseq	r6, r4, r5, ror pc
    16b4:	69766964 	ldmdbvs	r6!, {r2, r5, r6, r8, fp, sp, lr}^
    16b8:	726f6973 	rsbvc	r6, pc, #1884160	; 0x1cc000
    16bc:	76696400 	strbtvc	r6, [r9], -r0, lsl #8
    16c0:	6e656469 	cdpvs	4, 6, cr6, cr5, cr9, {3}
    16c4:	61720064 	cmnvs	r2, r4, rrx
    16c8:	696c5f77 	stmdbvs	ip!, {r0, r1, r2, r4, r5, r6, r8, r9, sl, fp, ip, lr}^
    16cc:	64755f62 	ldrbtvs	r5, [r5], #-3938	; 0xf62
    16d0:	74007669 	strvc	r7, [r0], #-1641	; 0x669
    16d4:	6944706d 	stmdbvs	r4, {r0, r2, r3, r5, r6, ip, sp, lr}^
    16d8:	72610076 	rsbvc	r0, r1, #118	; 0x76
    16dc:	612f6863 	teqvs	pc, r3, ror #16
    16e0:	6d2f6d72 	stcvs	13, cr6, [pc, #-456]!	; 1520 <__restore_processor_state+0x21c>
    16e4:	2d686361 	stclcs	3, cr6, [r8, #-388]!	; 0xfffffe7c
    16e8:	786e7573 	stmdavc	lr!, {r0, r1, r4, r5, r6, r8, sl, ip, sp, lr}^
    16ec:	6d702f69 	ldclvs	15, cr2, [r0, #-420]!	; 0xfffffe5c
    16f0:	6174732f 	cmnvs	r4, pc, lsr #6
    16f4:	7962646e 	stmdbvc	r2!, {r1, r2, r3, r5, r6, sl, sp, lr}^
    16f8:	2f2e2e2f 	svccs	0x002e2e2f
    16fc:	5f6d656d 	svcpl	0x006d656d
    1700:	6c766964 	ldclvs	9, cr6, [r6], #-400	; 0xfffffe70
    1704:	2e636269 	cdpcs	2, 6, cr6, cr3, cr9, {3}
    1708:	68730063 	ldmdavs	r3!, {r0, r1, r5, r6}^
    170c:	00746669 	rsbseq	r6, r4, r9, ror #12
    1710:	75736572 	ldrbvc	r6, [r3, #-1394]!	; 0x572
    1714:	6d00746c 	cfstrsvs	mvf7, [r0, #-432]	; 0xfffffe50
    1718:	695f6d65 	ldmdbvs	pc, {r0, r2, r5, r6, r8, sl, fp, sp, lr}^	; <UNPREDICTABLE>
    171c:	655f746e 	ldrbvs	r7, [pc, #-1134]	; 12b6 <__save_processor_state+0x3b6>
    1720:	00746978 	rsbseq	r6, r4, r8, ror r9
    1724:	68637261 	stmdavs	r3!, {r0, r5, r6, r9, ip, sp, lr}^
    1728:	6d72612f 	ldfvse	f6, [r2, #-188]!	; 0xffffff44
    172c:	63616d2f 	cmnvs	r1, #3008	; 0xbc0
    1730:	75732d68 	ldrbvc	r2, [r3, #-3432]!	; 0xd68
    1734:	2f69786e 	svccs	0x0069786e
    1738:	732f6d70 	teqvc	pc, #7168	; 0x1c00
    173c:	646e6174 	strbtvs	r6, [lr], #-372	; 0x174
    1740:	2e2f7962 	cdpcs	9, 2, cr7, cr15, cr2, {3}
    1744:	656d2f2e 	strbvs	r2, [sp, #-3886]!	; 0xf2e
    1748:	6e695f6d 	cdpvs	15, 6, cr5, cr9, cr13, {3}
    174c:	00632e74 	rsbeq	r2, r3, r4, ror lr
    1750:	5f544e49 	svcpl	0x00544e49
    1754:	52554f53 	subspl	r4, r5, #332	; 0x14c
    1758:	555f4543 	ldrbpl	r4, [pc, #-1347]	; 121d <__save_processor_state+0x31d>
    175c:	48454253 	stmdami	r5, {r0, r1, r4, r6, r9, lr}^
    1760:	00304943 	eorseq	r4, r0, r3, asr #18
    1764:	5f544e49 	svcpl	0x00544e49
    1768:	52554f53 	subspl	r4, r5, #332	; 0x14c
    176c:	555f4543 	ldrbpl	r4, [pc, #-1347]	; 1231 <__save_processor_state+0x331>
    1770:	48454253 	stmdami	r5, {r0, r1, r4, r6, r9, lr}^
    1774:	00314943 	eorseq	r4, r1, r3, asr #18
    1778:	5f544e49 	svcpl	0x00544e49
    177c:	52554f53 	subspl	r4, r5, #332	; 0x14c
    1780:	555f4543 	ldrbpl	r4, [pc, #-1347]	; 1245 <__save_processor_state+0x345>
    1784:	48454253 	stmdami	r5, {r0, r1, r4, r6, r9, lr}^
    1788:	00324943 	eorseq	r4, r2, r3, asr #18
    178c:	5f544e49 	svcpl	0x00544e49
    1790:	52554f53 	subspl	r4, r5, #332	; 0x14c
    1794:	545f4543 	ldrbpl	r4, [pc], #-1347	; 179c <set_serial_clk+0x44>
    1798:	4843554f 	stmdami	r3, {r0, r1, r2, r3, r6, r8, sl, ip, lr}^
    179c:	004c4e50 	subeq	r4, ip, r0, asr lr
    17a0:	5f6d656d 	svcpl	0x006d656d
    17a4:	5f746e69 	svcpl	0x00746e69
    17a8:	74696e69 	strbtvc	r6, [r9], #-3689	; 0xe69
    17ac:	6d656d00 	stclvs	13, cr6, [r5, #-0]
    17b0:	616e655f 	cmnvs	lr, pc, asr r5
    17b4:	5f656c62 	svcpl	0x00656c62
    17b8:	00746e69 	rsbseq	r6, r4, r9, ror #28
    17bc:	65746e69 	ldrbvs	r6, [r4, #-3689]!	; 0xe69
    17c0:	70757272 	rsbsvc	r7, r5, r2, ror r2
    17c4:	6f735f74 	svcvs	0x00735f74
    17c8:	65637275 	strbvs	r7, [r3, #-629]!	; 0x275
    17cc:	4900655f 	stmdbmi	r0, {r0, r1, r2, r3, r4, r6, r8, sl, sp, lr}
    17d0:	535f544e 	cmppl	pc, #1308622848	; 0x4e000000
    17d4:	4352554f 	cmpmi	r2, #331350016	; 0x13c00000
    17d8:	50475f45 	subpl	r5, r7, r5, asr #30
    17dc:	00414f49 	subeq	r4, r1, r9, asr #30
    17e0:	5f544e49 	svcpl	0x00544e49
    17e4:	52554f53 	subspl	r4, r5, #332	; 0x14c
    17e8:	475f4543 	ldrbmi	r4, [pc, -r3, asr #10]
    17ec:	424f4950 	submi	r4, pc, #1310720	; 0x140000
    17f0:	544e4900 	strbpl	r4, [lr], #-2304	; 0x900
    17f4:	554f535f 	strbpl	r5, [pc, #-863]	; 149d <__restore_processor_state+0x199>
    17f8:	5f454352 	svcpl	0x00454352
    17fc:	4f495047 	svcmi	0x00495047
    1800:	4e490043 	cdpmi	0, 4, cr0, cr9, cr3, {2}
    1804:	4f535f54 	svcmi	0x00535f54
    1808:	45435255 	strbmi	r5, [r3, #-597]	; 0x255
    180c:	4950475f 	ldmdbmi	r0, {r0, r1, r2, r3, r4, r6, r8, r9, sl, lr}^
    1810:	4900444f 	stmdbmi	r0, {r0, r1, r2, r3, r6, sl, lr}
    1814:	535f544e 	cmppl	pc, #1308622848	; 0x4e000000
    1818:	4352554f 	cmpmi	r2, #331350016	; 0x13c00000
    181c:	50475f45 	subpl	r5, r7, r5, asr #30
    1820:	00454f49 	subeq	r4, r5, r9, asr #30
    1824:	5f544e49 	svcpl	0x00544e49
    1828:	52554f53 	subspl	r4, r5, #332	; 0x14c
    182c:	475f4543 	ldrbmi	r4, [pc, -r3, asr #10]
    1830:	464f4950 			; <UNDEFINED> instruction: 0x464f4950
    1834:	544e4900 	strbpl	r4, [lr], #-2304	; 0x900
    1838:	554f535f 	strbpl	r5, [pc, #-863]	; 14e1 <__restore_processor_state+0x1dd>
    183c:	5f454352 	svcpl	0x00454352
    1840:	4f495047 	svcmi	0x00495047
    1844:	4e490047 	cdpmi	0, 4, cr0, cr9, cr7, {2}
    1848:	4f535f54 	svcmi	0x00535f54
    184c:	45435255 	strbmi	r5, [r3, #-597]	; 0x255
    1850:	4950475f 	ldmdbmi	r0, {r0, r1, r2, r3, r4, r6, r8, r9, sl, lr}^
    1854:	4900484f 	stmdbmi	r0, {r0, r1, r2, r3, r6, fp, lr}
    1858:	535f544e 	cmppl	pc, #1308622848	; 0x4e000000
    185c:	4352554f 	cmpmi	r2, #331350016	; 0x13c00000
    1860:	50475f45 	subpl	r5, r7, r5, asr #30
    1864:	00494f49 	subeq	r4, r9, r9, asr #30
    1868:	5f544e49 	svcpl	0x00544e49
    186c:	52554f53 	subspl	r4, r5, #332	; 0x14c
    1870:	475f4543 	ldrbmi	r4, [pc, -r3, asr #10]
    1874:	4a4f4950 	bmi	13d3dbc <__bss_end+0x13d086c>
    1878:	544e4900 	strbpl	r4, [lr], #-2304	; 0x900
    187c:	554f535f 	strbpl	r5, [pc, #-863]	; 1525 <__restore_processor_state+0x221>
    1880:	5f454352 	svcpl	0x00454352
    1884:	4f425355 	svcmi	0x00425355
    1888:	47004754 	smlsdmi	r0, r4, r7, r4
    188c:	44436369 	strbmi	r6, [r3], #-873	; 0x369
    1890:	00637369 	rsbeq	r7, r3, r9, ror #6
    1894:	5f544e49 	svcpl	0x00544e49
    1898:	52554f53 	subspl	r4, r5, #332	; 0x14c
    189c:	4c5f4543 	cfldr64mi	mvdx4, [pc], {67}	; 0x43
    18a0:	43444152 	movtmi	r4, #16722	; 0x4152
    18a4:	544e4900 	strbpl	r4, [lr], #-2304	; 0x900
    18a8:	554f535f 	strbpl	r5, [pc, #-863]	; 1551 <__restore_processor_state+0x24d>
    18ac:	5f454352 	svcpl	0x00454352
    18b0:	4f425355 	svcmi	0x00425355
    18b4:	30494348 	subcc	r4, r9, r8, asr #6
    18b8:	544e4900 	strbpl	r4, [lr], #-2304	; 0x900
    18bc:	554f535f 	strbpl	r5, [pc, #-863]	; 1565 <__restore_processor_state+0x261>
    18c0:	5f454352 	svcpl	0x00454352
    18c4:	4f425355 	svcmi	0x00425355
    18c8:	31494348 	cmpcc	r9, r8, asr #6
    18cc:	544e4900 	strbpl	r4, [lr], #-2304	; 0x900
    18d0:	554f535f 	strbpl	r5, [pc, #-863]	; 1579 <__restore_processor_state+0x275>
    18d4:	5f454352 	svcpl	0x00454352
    18d8:	4f425355 	svcmi	0x00425355
    18dc:	32494348 	subcc	r4, r9, #536870913	; 0x20000001
    18e0:	544e4900 	strbpl	r4, [lr], #-2304	; 0x900
    18e4:	554f535f 	strbpl	r5, [pc, #-863]	; 158d <__restore_processor_state+0x289>
    18e8:	5f454352 	svcpl	0x00454352
    18ec:	4e545845 	cdpmi	8, 5, cr5, cr4, cr5, {2}
    18f0:	6500494d 	strvs	r4, [r0, #-2381]	; 0x94d
    18f4:	6c62616e 	stfvse	f6, [r2], #-440	; 0xfffffe48
    18f8:	69625f65 	stmdbvs	r2!, {r0, r2, r5, r6, r8, r9, sl, fp, ip, lr}^
    18fc:	6d740074 	ldclvs	0, cr0, [r4, #-464]!	; 0xfffffe30
    1900:	63725370 	cmnvs	r2, #-1073741823	; 0xc0000001
    1904:	544e4900 	strbpl	r4, [lr], #-2304	; 0x900
    1908:	554f535f 	strbpl	r5, [pc, #-863]	; 15b1 <__restore_processor_state+0x2ad>
    190c:	5f454352 	svcpl	0x00454352
    1910:	454d4954 	strbmi	r4, [sp, #-2388]	; 0x954
    1914:	49003052 	stmdbmi	r0, {r1, r4, r6, ip, sp}
    1918:	535f544e 	cmppl	pc, #1308622848	; 0x4e000000
    191c:	4352554f 	cmpmi	r2, #331350016	; 0x13c00000
    1920:	49545f45 	ldmdbmi	r4, {r0, r2, r6, r8, r9, sl, fp, ip, lr}^
    1924:	3152454d 	cmpcc	r2, sp, asr #10
    1928:	63694700 	cmnvs	r9, #0
    192c:	73694444 	cmnvc	r9, #1140850688	; 0x44000000
    1930:	656d0063 	strbvs	r0, [sp, #-99]!	; 0x63
    1934:	75715f6d 	ldrbvc	r5, [r1, #-3949]!	; 0xf6d
    1938:	5f797265 	svcpl	0x00797265
    193c:	00746e69 	rsbseq	r6, r4, r9, ror #28
    1940:	5f544e49 	svcpl	0x00544e49
    1944:	52554f53 	subspl	r4, r5, #332	; 0x14c
    1948:	495f4543 	ldmdbmi	pc, {r0, r1, r6, r8, sl, lr}^	; <UNPREDICTABLE>
    194c:	49003052 	stmdbmi	r0, {r1, r4, r6, ip, sp}
    1950:	535f544e 	cmppl	pc, #1308622848	; 0x4e000000
    1954:	4352554f 	cmpmi	r2, #331350016	; 0x13c00000
    1958:	52495f45 	subpl	r5, r9, #276	; 0x114
    195c:	4e490031 	mcrmi	0, 2, r0, cr9, cr1, {1}
    1960:	4f535f54 	svcmi	0x00535f54
    1964:	45435255 	strbmi	r5, [r3, #-597]	; 0x255
    1968:	47534d5f 			; <UNDEFINED> instruction: 0x47534d5f
    196c:	584f425f 	stmdapl	pc, {r0, r1, r2, r3, r4, r6, r9, lr}^	; <UNPREDICTABLE>
    1970:	706d7400 	rsbvc	r7, sp, r0, lsl #8
    1974:	00707247 	rsbseq	r7, r0, r7, asr #4
    1978:	5f544e49 	svcpl	0x00544e49
    197c:	52554f53 	subspl	r4, r5, #332	; 0x14c
    1980:	415f4543 	cmpmi	pc, r3, asr #10
    1984:	4d52414c 	ldfmie	f4, [r2, #-304]	; 0xfffffed0
    1988:	6d656d00 	stclvs	13, cr6, [r5, #-0]
    198c:	6970675f 	ldmdbvs	r0!, {r0, r1, r2, r3, r4, r6, r8, r9, sl, sp, lr}^
    1990:	65725f6f 	ldrbvs	r5, [r2, #-3951]!	; 0xf6f
    1994:	726f7473 	rsbvc	r7, pc, #1929379840	; 0x73000000
    1998:	67700065 	ldrbvs	r0, [r0, -r5, rrx]!
    199c:	5f6f6970 	svcpl	0x006f6970
    19a0:	74617473 	strbtvc	r7, [r1], #-1139	; 0x473
    19a4:	6f630065 	svcvs	0x00630065
    19a8:	6769666e 	strbvs	r6, [r9, -lr, ror #12]!
    19ac:	6970675f 	ldmdbvs	r0!, {r0, r1, r2, r3, r4, r6, r8, r9, sl, sp, lr}^
    19b0:	6c635f6f 	stclvs	15, cr5, [r3], #-444	; 0xfffffe44
    19b4:	7067006b 	rsbvc	r0, r7, fp, rrx
    19b8:	635f6f69 	cmpvs	pc, #420	; 0x1a4
    19bc:	695f6b6c 	ldmdbvs	pc, {r2, r3, r5, r6, r8, r9, fp, sp, lr}^	; <UNPREDICTABLE>
    19c0:	6574696e 	ldrbvs	r6, [r4, #-2414]!	; 0x96e
    19c4:	70670064 	rsbvc	r0, r7, r4, rrx
    19c8:	725f6f69 	subsvc	r6, pc, #420	; 0x1a4
    19cc:	625f6765 	subsvs	r6, pc, #26476544	; 0x1940000
    19d0:	006b6361 	rsbeq	r6, fp, r1, ror #6
    19d4:	68637261 	stmdavs	r3!, {r0, r5, r6, r9, ip, sp, lr}^
    19d8:	6d72612f 	ldfvse	f6, [r2, #-188]!	; 0xffffff44
    19dc:	63616d2f 	cmnvs	r1, #3008	; 0xbc0
    19e0:	75732d68 	ldrbvc	r2, [r3, #-3432]!	; 0xd68
    19e4:	2f69786e 	svccs	0x0069786e
    19e8:	732f6d70 	teqvc	pc, #7168	; 0x1c00
    19ec:	646e6174 	strbtvs	r6, [lr], #-372	; 0x174
    19f0:	2e2f7962 	cdpcs	9, 2, cr7, cr15, cr2, {3}
    19f4:	656d2f2e 	strbvs	r2, [sp, #-3886]!	; 0xf2e
    19f8:	70675f6d 	rsbvc	r5, r7, sp, ror #30
    19fc:	632e6f69 	teqvs	lr, #420	; 0x1a4
    1a00:	6d656d00 	stclvs	13, cr6, [r5, #-0]
    1a04:	6970675f 	ldmdbvs	r0!, {r0, r1, r2, r3, r4, r6, r8, r9, sl, sp, lr}^
    1a08:	61735f6f 	cmnvs	r3, pc, ror #30
    1a0c:	67006576 	smlsdxvs	r0, r6, r5, r6
    1a10:	5f6f6970 	svcpl	0x006f6970
    1a14:	30627061 	rsbcc	r7, r2, r1, rrx
    1a18:	7461675f 	strbtvc	r6, [r1], #-1887	; 0x75f
    1a1c:	5f676e69 	svcpl	0x00676e69
    1a20:	00676572 	rsbeq	r6, r7, r2, ror r5
    1a24:	676f4457 			; <UNDEFINED> instruction: 0x676f4457
    1a28:	72495f31 	subvc	r5, r9, #196	; 0xc4
    1a2c:	74535f71 	ldrbvc	r5, [r3], #-3953	; 0xf71
    1a30:	76410061 	strbvc	r0, [r1], -r1, rrx
    1a34:	6e433173 	mcrvs	1, 2, r3, cr3, cr3, {3}
    1a38:	6e490074 	mcrvs	0, 2, r0, cr9, cr4, {3}
    1a3c:	6c744374 	ldclvs	3, cr4, [r4], #-464	; 0xfffffe30
    1a40:	726d5400 	rsbvc	r5, sp, #0
    1a44:	746e4930 	strbtvc	r4, [lr], #-2352	; 0x930
    1a48:	006c6156 	rsbeq	r6, ip, r6, asr r1
    1a4c:	676f4457 			; <UNDEFINED> instruction: 0x676f4457
    1a50:	74435f31 	strbvc	r5, [r3], #-3889	; 0xf31
    1a54:	525f6c72 	subspl	r6, pc, #29184	; 0x7200
    1a58:	6d006765 	stcvs	7, cr6, [r0, #-404]	; 0xfffffe6c
    1a5c:	745f6d65 	ldrbvc	r6, [pc], #-3429	; 1a64 <serial_init+0x38>
    1a60:	735f726d 	cmpvc	pc, #-805306362	; 0xd0000006
    1a64:	54007465 	strpl	r7, [r0], #-1125	; 0x465
    1a68:	4331726d 	teqmi	r1, #-805306362	; 0xd0000006
    1a6c:	54006c74 	strpl	r6, [r0], #-3188	; 0xc74
    1a70:	4330726d 	teqmi	r0, #-805306362	; 0xd0000006
    1a74:	6156746e 	cmpvs	r6, lr, ror #8
    1a78:	6d54006c 	ldclvs	0, cr0, [r4, #-432]	; 0xfffffe50
    1a7c:	74433572 	strbvc	r3, [r3], #-1394	; 0x572
    1a80:	6d54006c 	ldclvs	0, cr0, [r4, #-432]	; 0xfffffe50
    1a84:	6e493272 	mcrvs	2, 2, r3, cr9, cr2, {3}
    1a88:	6c615674 	stclvs	6, cr5, [r1], #-464	; 0xfffffe30
    1a8c:	6d5f5f00 	ldclvs	15, cr5, [pc, #-0]	; 1a94 <serial_init+0x68>
    1a90:	745f6d65 	ldrbvc	r6, [pc], #-3429	; 1a98 <serial_init+0x6c>
    1a94:	725f726d 	subsvc	r7, pc, #-805306362	; 0xd0000006
    1a98:	745f6765 	ldrbvc	r6, [pc], #-1893	; 1aa0 <serial_init+0x74>
    1a9c:	726d5400 	rsbvc	r5, sp, #0
    1aa0:	746e4332 	strbtvc	r4, [lr], #-818	; 0x332
    1aa4:	006c6156 	rsbeq	r6, ip, r6, asr r1
    1aa8:	63746157 	cmnvs	r4, #-1073741803	; 0xc0000015
    1aac:	676f4468 	strbvs	r4, [pc, -r8, ror #8]!
    1ab0:	72495f31 	subvc	r5, r9, #196	; 0xc4
    1ab4:	6e455f71 	mcrvs	15, 2, r5, cr5, cr1, {3}
    1ab8:	6b61425f 	blvs	185243c <__bss_end+0x184eeec>
    1abc:	6d656d00 	stclvs	13, cr6, [r5, #-0]
    1ac0:	726d745f 	rsbvc	r7, sp, #1593835520	; 0x5f000000
    1ac4:	6978655f 	ldmdbvs	r8!, {r0, r1, r2, r3, r4, r6, r8, sl, sp, lr}^
    1ac8:	72610074 	rsbvc	r0, r1, #116	; 0x74
    1acc:	612f6863 	teqvs	pc, r3, ror #16
    1ad0:	6d2f6d72 	stcvs	13, cr6, [pc, #-456]!	; 1910 <serial_puts_nommu+0x48>
    1ad4:	2d686361 	stclcs	3, cr6, [r8, #-388]!	; 0xfffffe7c
    1ad8:	786e7573 	stmdavc	lr!, {r0, r1, r4, r5, r6, r8, sl, ip, sp, lr}^
    1adc:	6d702f69 	ldclvs	15, cr2, [r0, #-420]!	; 0xfffffe5c
    1ae0:	6174732f 	cmnvs	r4, pc, lsr #6
    1ae4:	7962646e 	stmdbvc	r2!, {r1, r2, r3, r5, r6, sl, sp, lr}^
    1ae8:	2f2e2e2f 	svccs	0x002e2e2f
    1aec:	5f6d656d 	svcpl	0x006d656d
    1af0:	2e726d74 	mrccs	13, 3, r6, cr2, cr4, {3}
    1af4:	6d540063 	ldclvs	0, cr0, [r4, #-396]	; 0xfffffe74
    1af8:	6e493472 	mcrvs	4, 2, r3, cr9, cr2, {3}
    1afc:	6c615674 	stclvs	6, cr5, [r1], #-464	; 0xfffffe30
    1b00:	726d5400 	rsbvc	r5, sp, #0
    1b04:	746e4334 	strbtvc	r4, [lr], #-820	; 0x334
    1b08:	006c6156 	rsbeq	r6, ip, r6, asr r1
    1b0c:	63746157 	cmnvs	r4, #-1073741803	; 0xc0000015
    1b10:	676f4468 	strbvs	r4, [pc, -r8, ror #8]!
    1b14:	6f435f31 	svcvs	0x00435f31
    1b18:	6769666e 	strbvs	r6, [r9, -lr, ror #12]!
    1b1c:	6765525f 			; <UNDEFINED> instruction: 0x6765525f
    1b20:	6b61425f 	blvs	18524a4 <__bss_end+0x184ef54>
    1b24:	73657200 	cmnvc	r5, #0
    1b28:	65767265 	ldrbvs	r7, [r6, #-613]!	; 0x265
    1b2c:	54003864 	strpl	r3, [r0], #-2148	; 0x864
    1b30:	4332726d 	teqmi	r2, #-805306362	; 0xd0000006
    1b34:	57006c74 	smlsdxpl	r0, r4, ip, r6
    1b38:	31676f44 	cmncc	r7, r4, asr #30
    1b3c:	646f4d5f 	strbtvs	r4, [pc], #-3423	; 1b44 <serial_puts+0x8c>
    1b40:	65525f65 	ldrbvs	r5, [r2, #-3941]	; 0xf65
    1b44:	61570067 	cmpvs	r7, r7, rrx
    1b48:	44686374 	strbtmi	r6, [r8], #-884	; 0x374
    1b4c:	5f31676f 	svcpl	0x0031676f
    1b50:	5f646f4d 	svcpl	0x00646f4d
    1b54:	5f676552 	svcpl	0x00676552
    1b58:	006b6142 	rsbeq	r6, fp, r2, asr #2
    1b5c:	5f6d656d 	svcpl	0x006d656d
    1b60:	5f726d74 	svcpl	0x00726d74
    1b64:	62616e65 	rsbvs	r6, r1, #1616	; 0x650
    1b68:	775f656c 	ldrbvc	r6, [pc, -ip, ror #10]
    1b6c:	68637461 	stmdavs	r3!, {r0, r5, r6, sl, ip, sp, lr}^
    1b70:	00676f64 	rsbeq	r6, r7, r4, ror #30
    1b74:	5f6d656d 	svcpl	0x006d656d
    1b78:	5f726d74 	svcpl	0x00726d74
    1b7c:	74696e69 	strbtvc	r6, [r9], #-3689	; 0xe69
    1b80:	6f445700 	svcvs	0x00445700
    1b84:	495f3167 	ldmdbmi	pc, {r0, r1, r2, r5, r6, r8, ip, sp}^	; <UNPREDICTABLE>
    1b88:	455f7172 	ldrbmi	r7, [pc, #-370]	; 1a1e <serial_exit_manager+0x6>
    1b8c:	6573006e 	ldrbvs	r0, [r3, #-110]!	; 0x6e
    1b90:	646e6f63 	strbtvs	r6, [lr], #-3939	; 0xf63
    1b94:	6d656d00 	stclvs	13, cr6, [r5, #-0]
    1b98:	726d745f 	rsbvc	r7, sp, #1593835520	; 0x5f000000
    1b9c:	7365725f 	cmnvc	r5, #-268435451	; 0xf0000005
    1ba0:	65726f74 	ldrbvs	r6, [r2, #-3956]!	; 0xf74
    1ba4:	4d5f5f00 	ldclmi	15, cr5, [pc, #-0]	; 1bac <serial_gets+0x44>
    1ba8:	545f4d45 	ldrbpl	r4, [pc], #-3397	; 1bb0 <serial_gets+0x48>
    1bac:	525f524d 	subspl	r5, pc, #-805306364	; 0xd0000004
    1bb0:	6d004745 	stcvs	7, cr4, [r0, #-276]	; 0xfffffeec
    1bb4:	745f6d65 	ldrbvc	r6, [pc], #-3429	; 1bbc <serial_gets+0x54>
    1bb8:	645f726d 	ldrbvs	r7, [pc], #-621	; 1bc0 <serial_gets+0x58>
    1bbc:	62617369 	rsbvs	r7, r1, #-1543503871	; 0xa4000001
    1bc0:	775f656c 	ldrbvc	r6, [pc, -ip, ror #10]
    1bc4:	68637461 	stmdavs	r3!, {r0, r5, r6, sl, ip, sp, lr}^
    1bc8:	00676f64 	rsbeq	r6, r7, r4, ror #30
    1bcc:	35726d54 	ldrbcc	r6, [r2, #-3412]!	; 0xd54
    1bd0:	56746e49 	ldrbtpl	r6, [r4], -r9, asr #28
    1bd4:	54006c61 	strpl	r6, [r0], #-3169	; 0xc61
    1bd8:	4931726d 	ldmdbmi	r1!, {r0, r2, r3, r5, r6, r9, ip, sp, lr}
    1bdc:	6156746e 	cmpvs	r6, lr, ror #8
    1be0:	7470006c 	ldrbtvc	r0, [r0], #-108	; 0x6c
    1be4:	735f726d 	cmpvc	pc, #-805306362	; 0xd0000006
    1be8:	65746174 	ldrbvs	r6, [r4, #-372]!	; 0x174
    1bec:	73764100 	cmnvc	r6, #0
    1bf0:	00766944 	rsbseq	r6, r6, r4, asr #18
    1bf4:	33726d54 	cmncc	r2, #5376	; 0x1500
    1bf8:	006c7443 	rsbeq	r7, ip, r3, asr #8
    1bfc:	43737641 	cmnmi	r3, #68157440	; 0x4100000
    1c00:	49006c74 	stmdbmi	r0, {r2, r4, r5, r6, sl, fp, sp, lr}
    1c04:	7453746e 	ldrbvc	r7, [r3], #-1134	; 0x46e
    1c08:	6d540061 	ldclvs	0, cr0, [r4, #-388]	; 0xfffffe7c
    1c0c:	6e433172 	mcrvs	1, 2, r3, cr3, cr2, {3}
    1c10:	6c615674 	stclvs	6, cr5, [r1], #-464	; 0xfffffe30
    1c14:	726d5400 	rsbvc	r5, sp, #0
    1c18:	746e4933 	strbtvc	r4, [lr], #-2355	; 0x933
    1c1c:	006c6156 	rsbeq	r6, ip, r6, asr r1
    1c20:	676f4457 			; <UNDEFINED> instruction: 0x676f4457
    1c24:	66435f31 			; <UNDEFINED> instruction: 0x66435f31
    1c28:	65525f67 	ldrbvs	r5, [r2, #-3943]	; 0xf67
    1c2c:	76410067 	strbvc	r0, [r1], -r7, rrx
    1c30:	6e433073 	mcrvs	0, 2, r3, cr3, cr3, {3}
    1c34:	6d540074 	ldclvs	0, cr0, [r4, #-464]	; 0xfffffe30
    1c38:	6e433572 	mcrvs	5, 2, r3, cr3, cr2, {3}
    1c3c:	6c615674 	stclvs	6, cr5, [r1], #-464	; 0xfffffe30
    1c40:	726d5400 	rsbvc	r5, sp, #0
    1c44:	00676552 	rsbeq	r6, r7, r2, asr r5
    1c48:	30726d54 	rsbscc	r6, r2, r4, asr sp
    1c4c:	006c7443 	rsbeq	r7, ip, r3, asr #8
    1c50:	34726d54 	ldrbtcc	r6, [r2], #-3412	; 0xd54
    1c54:	006c7443 	rsbeq	r7, ip, r3, asr #8
    1c58:	5f6d656d 	svcpl	0x006d656d
    1c5c:	5f726d74 	svcpl	0x00726d74
    1c60:	65766173 	ldrbvs	r6, [r6, #-371]!	; 0x173
    1c64:	756c4300 	strbvc	r4, [ip, #-768]!	; 0x300
    1c68:	72657473 	rsbvc	r7, r5, #1929379840	; 0x73000000
    1c6c:	72744330 	rsbsvc	r4, r4, #-1073741824	; 0xc0000000
    1c70:	6765526c 	strbvs	r5, [r5, -ip, ror #4]!
    1c74:	656d0031 	strbvs	r0, [sp, #-49]!	; 0x31
    1c78:	6d745f6d 	ldclvs	15, cr5, [r4, #-436]!	; 0xfffffe4c
    1c7c:	706d7473 	rsbvc	r7, sp, r3, ror r4
    1c80:	7661735f 			; <UNDEFINED> instruction: 0x7661735f
    1c84:	656d0065 	strbvs	r0, [sp, #-101]!	; 0x65
    1c88:	6d745f6d 	ldclvs	15, cr5, [r4, #-436]!	; 0xfffffe4c
    1c8c:	706d7473 	rsbvc	r7, sp, r3, ror r4
    1c90:	7365725f 	cmnvc	r5, #-268435451	; 0xf0000005
    1c94:	65726f74 	ldrbvs	r6, [r2, #-3956]!	; 0xf74
    1c98:	736d5400 	cmnvc	sp, #0
    1c9c:	52706d74 	rsbspl	r6, r0, #7424	; 0x1d00
    1ca0:	5f006765 	svcpl	0x00006765
    1ca4:	6d656d5f 	stclvs	13, cr6, [r5, #-380]!	; 0xfffffe84
    1ca8:	736d745f 	cmnvc	sp, #1593835520	; 0x5f000000
    1cac:	5f706d74 	svcpl	0x00706d74
    1cb0:	5f676572 	svcpl	0x00676572
    1cb4:	72610074 	rsbvc	r0, r1, #116	; 0x74
    1cb8:	612f6863 	teqvs	pc, r3, ror #16
    1cbc:	6d2f6d72 	stcvs	13, cr6, [pc, #-456]!	; 1afc <serial_puts+0x44>
    1cc0:	2d686361 	stclcs	3, cr6, [r8, #-388]!	; 0xfffffe7c
    1cc4:	786e7573 	stmdavc	lr!, {r0, r1, r4, r5, r6, r8, sl, ip, sp, lr}^
    1cc8:	6d702f69 	ldclvs	15, cr2, [r0, #-420]!	; 0xfffffe5c
    1ccc:	6174732f 	cmnvs	r4, pc, lsr #6
    1cd0:	7962646e 	stmdbvc	r2!, {r1, r2, r3, r5, r6, sl, sp, lr}^
    1cd4:	2f2e2e2f 	svccs	0x002e2e2f
    1cd8:	5f6d656d 	svcpl	0x006d656d
    1cdc:	74736d74 	ldrbtvc	r6, [r3], #-3444	; 0xd74
    1ce0:	632e706d 	teqvs	lr, #109	; 0x6d
    1ce4:	6d747000 	ldclvs	0, cr7, [r4, #-0]
    1ce8:	706d7473 	rsbvc	r7, sp, r3, ror r4
    1cec:	6174735f 	cmnvs	r4, pc, asr r3
    1cf0:	5f006574 	svcpl	0x00006574
    1cf4:	4d454d5f 	stclmi	13, cr4, [r5, #-380]	; 0xfffffe84
    1cf8:	534d545f 	movtpl	r5, #54367	; 0xd45f
    1cfc:	5f504d54 	svcpl	0x00504d54
    1d00:	00474552 	subeq	r4, r7, r2, asr r5
    1d04:	72737063 	rsbsvc	r7, r3, #99	; 0x63
    1d08:	6361625f 	cmnvs	r1, #-268435451	; 0xf0000005
    1d0c:	0070756b 	rsbseq	r7, r0, fp, ror #10
    1d10:	70737768 	rsbsvc	r7, r3, r8, ror #14
    1d14:	6f6c6e69 	svcvs	0x006c6e69
    1d18:	695f6b63 	ldmdbvs	pc, {r0, r1, r5, r6, r8, r9, fp, sp, lr}^	; <UNPREDICTABLE>
    1d1c:	0074696e 	rsbseq	r6, r4, lr, ror #18
    1d20:	68637261 	stmdavs	r3!, {r0, r5, r6, r9, ip, sp, lr}^
    1d24:	6d72612f 	ldfvse	f6, [r2, #-188]!	; 0xffffff44
    1d28:	63616d2f 	cmnvs	r1, #3008	; 0xbc0
    1d2c:	75732d68 	ldrbvc	r2, [r3, #-3432]!	; 0xd68
    1d30:	2f69786e 	svccs	0x0069786e
    1d34:	732f6d70 	teqvc	pc, #7168	; 0x1c00
    1d38:	646e6174 	strbtvs	r6, [lr], #-372	; 0x174
    1d3c:	2e2f7962 	cdpcs	9, 2, cr7, cr15, cr2, {3}
    1d40:	656d2f2e 	strbvs	r2, [sp, #-3886]!	; 0xf2e
    1d44:	77685f6d 	strbvc	r5, [r8, -sp, ror #30]!
    1d48:	6e697073 	mcrvs	0, 3, r7, cr9, cr3, {3}
    1d4c:	6b636f6c 	blvs	18ddb04 <__bss_end+0x18da5b4>
    1d50:	6800632e 	stmdavs	r0, {r1, r2, r3, r5, r8, r9, sp, lr}
    1d54:	69707377 	ldmdbvs	r0!, {r0, r1, r2, r4, r5, r6, r8, r9, ip, sp, lr}^
    1d58:	6f6c5f6e 	svcvs	0x006c5f6e
    1d5c:	745f6b63 	ldrbvc	r6, [pc], #-2915	; 1d64 <itoa.constprop.0+0xc>
    1d60:	6f656d69 	svcvs	0x00656d69
    1d64:	6e5f7475 	mrcvs	4, 2, r7, cr15, cr5, {3}
    1d68:	756d6d6f 	strbvc	r6, [sp, #-3439]!	; 0xd6f
    1d6c:	73776800 	cmnvc	r7, #0
    1d70:	5f6e6970 	svcpl	0x006e6970
    1d74:	6f6c6e75 	svcvs	0x006c6e75
    1d78:	6d006b63 	vstrvs	d6, [r0, #-396]	; 0xfffffe74
    1d7c:	6c5f6d65 	mrrcvs	13, 6, r6, pc, cr5	; <UNPREDICTABLE>
    1d80:	6c61636f 	stclvs	3, cr6, [r1], #-444	; 0xfffffe44
    1d84:	7172695f 	cmnvc	r2, pc, asr r9
    1d88:	7365725f 	cmnvc	r5, #-268435451	; 0xf0000005
    1d8c:	65726f74 	ldrbvs	r6, [r2, #-3956]!	; 0xf74
    1d90:	70786500 	rsbsvc	r6, r8, r0, lsl #10
    1d94:	00657269 	rsbeq	r7, r5, r9, ror #4
    1d98:	67616c66 	strbvs	r6, [r1, -r6, ror #24]!
    1d9c:	77680073 			; <UNDEFINED> instruction: 0x77680073
    1da0:	6e697073 	mcrvs	0, 3, r7, cr9, cr3, {3}
    1da4:	636f6c5f 	cmnvs	pc, #24320	; 0x5f00
    1da8:	69745f6b 	ldmdbvs	r4!, {r0, r1, r3, r5, r6, r8, r9, sl, fp, ip, lr}^
    1dac:	756f656d 	strbvc	r6, [pc, #-1389]!	; 1847 <serial_init_nommu+0x3>
    1db0:	656d0074 	strbvs	r0, [sp, #-116]!	; 0x74
    1db4:	6f6c5f6d 	svcvs	0x006c5f6d
    1db8:	5f6c6163 	svcpl	0x006c6163
    1dbc:	5f717269 	svcpl	0x00717269
    1dc0:	65766173 	ldrbvs	r6, [r6, #-371]!	; 0x173
    1dc4:	73776800 	cmnvc	r7, #0
    1dc8:	5f6e6970 	svcpl	0x006e6970
    1dcc:	6f6c6e75 	svcvs	0x006c6e75
    1dd0:	6e5f6b63 	vnmlavs.f64	d22, d15, d19
    1dd4:	756d6d6f 	strbvc	r6, [sp, #-3439]!	; 0xd6f
    1dd8:	69776800 	ldmdbvs	r7!, {fp, sp, lr}^
    1ddc:	656d0064 	strbvs	r0, [sp, #-100]!	; 0x64
    1de0:	6c635f6d 	stclvs	15, cr5, [r3], #-436	; 0xfffffe4c
    1de4:	65675f6b 	strbvs	r5, [r7, #-3947]!	; 0xf6b
    1de8:	696d5f74 	stmdbvs	sp!, {r2, r4, r5, r6, r8, r9, sl, fp, ip, lr}^
    1dec:	61006373 	tstvs	r0, r3, ror r3
    1df0:	2f686372 	svccs	0x00686372
    1df4:	2f6d7261 	svccs	0x006d7261
    1df8:	6863616d 	stmdavs	r3!, {r0, r2, r3, r5, r6, r8, sp, lr}^
    1dfc:	6e75732d 	cdpvs	3, 7, cr7, cr5, cr13, {1}
    1e00:	702f6978 	eorvc	r6, pc, r8, ror r9	; <UNPREDICTABLE>
    1e04:	74732f6d 	ldrbtvc	r2, [r3], #-3949	; 0xf6d
    1e08:	62646e61 	rsbvs	r6, r4, #1552	; 0x610
    1e0c:	2e2e2f79 	mcrcs	15, 1, r2, cr14, cr9, {3}
    1e10:	6d656d2f 	stclvs	13, cr6, [r5, #-188]!	; 0xffffff44
    1e14:	6b6c635f 	blvs	1b1ab98 <__bss_end+0x1b17648>
    1e18:	6d00632e 	stcvs	3, cr6, [r0, #-184]	; 0xffffff48
    1e1c:	635f6d65 	cmpvs	pc, #6464	; 0x1940
    1e20:	695f6b6c 	ldmdbvs	pc, {r2, r3, r5, r6, r8, r9, fp, sp, lr}^	; <UNPREDICTABLE>
    1e24:	0074696e 	rsbseq	r6, r4, lr, ror #18
    1e28:	5f6d656d 	svcpl	0x006d656d
    1e2c:	5f6b6c63 	svcpl	0x006b6c63
    1e30:	5f746573 	svcpl	0x00746573
    1e34:	6373696d 	cmnvs	r3, #1785856	; 0x1b4000
    1e38:	756d4300 	strbvc	r4, [sp, #-768]!	; 0x300
    1e3c:	5f676552 	svcpl	0x00676552
    1e40:	316c6c50 	cmncc	ip, r0, asr ip
    1e44:	5f6c7443 	svcpl	0x006c7443
    1e48:	00706d74 	rsbseq	r6, r0, r4, ror sp
    1e4c:	5f6d656d 	svcpl	0x006d656d
    1e50:	5f6b6c63 	svcpl	0x006b6c63
    1e54:	5f746573 	svcpl	0x00746573
    1e58:	5f6c6c70 	svcpl	0x006c6c70
    1e5c:	74636166 	strbtvc	r6, [r3], #-358	; 0x166
    1e60:	6d00726f 	sfmvs	f7, 4, [r0, #-444]	; 0xfffffe44
    1e64:	635f6d65 	cmpvs	pc, #6464	; 0x1940
    1e68:	675f6b6c 	ldrbvs	r6, [pc, -ip, ror #22]
    1e6c:	635f7465 	cmpvs	pc, #1694498816	; 0x65000000
    1e70:	665f7570 			; <UNDEFINED> instruction: 0x665f7570
    1e74:	00716572 	rsbseq	r6, r1, r2, ror r5
    1e78:	5f6d656d 	svcpl	0x006d656d
    1e7c:	5f6b6c63 	svcpl	0x006b6c63
    1e80:	64746567 	ldrbtvs	r6, [r4], #-1383	; 0x567
    1e84:	63007669 	movwvs	r7, #1641	; 0x669
    1e88:	725f7563 	subsvc	r7, pc, #415236096	; 0x18c00000
    1e8c:	625f6765 	subsvs	r6, pc, #26476544	; 0x1940000
    1e90:	006b6361 	rsbeq	r6, fp, r1, ror #6
    1e94:	5f6d656d 	svcpl	0x006d656d
    1e98:	5f6b6c63 	svcpl	0x006b6c63
    1e9c:	5f746567 	svcpl	0x00746567
    1ea0:	5f6c6c70 	svcpl	0x006c6c70
    1ea4:	74636166 	strbtvc	r6, [r3], #-358	; 0x166
    1ea8:	7200726f 	andvc	r7, r0, #-268435450	; 0xf0000006
    1eac:	765f6765 	ldrbvc	r6, [pc], -r5, ror #14
    1eb0:	6d006c61 	stcvs	12, cr6, [r0, #-388]	; 0xfffffe7c
    1eb4:	635f6d65 	cmpvs	pc, #6464	; 0x1940
    1eb8:	735f6b6c 	cmpvc	pc, #110592	; 0x1b000
    1ebc:	00657661 	rsbeq	r7, r5, r1, ror #12
    1ec0:	5f6d656d 	svcpl	0x006d656d
    1ec4:	5f6b6c63 	svcpl	0x006b6c63
    1ec8:	64746573 	ldrbtvs	r6, [r4], #-1395	; 0x573
    1ecc:	6d007669 	stcvs	6, cr7, [r0, #-420]	; 0xfffffe5c
    1ed0:	675f6d65 	ldrbvs	r6, [pc, -r5, ror #26]
    1ed4:	625f7465 	subsvs	r7, pc, #1694498816	; 0x65000000
    1ed8:	63700061 	cmnvs	r0, #97	; 0x61
    1edc:	735f6b6c 	cmpvc	pc, #110592	; 0x1b000
    1ee0:	65746174 	ldrbvs	r6, [r4, #-372]!	; 0x174
    1ee4:	6d656d00 	stclvs	13, cr6, [r5, #-0]
    1ee8:	6b6c635f 	blvs	1b1ac6c <__bss_end+0x1b1771c>
    1eec:	7365725f 	cmnvc	r5, #-268435451	; 0xf0000005
    1ef0:	65726f74 	ldrbvs	r6, [r2, #-3956]!	; 0xf74
    1ef4:	756d4300 	strbvc	r4, [sp, #-768]!	; 0x300
    1ef8:	5f676552 	svcpl	0x00676552
    1efc:	43737953 	cmnmi	r3, #1359872	; 0x14c000
    1f00:	69446b6c 	stmdbvs	r4, {r2, r3, r5, r6, r8, r9, fp, sp, lr}^
    1f04:	6d745f76 	ldclvs	15, cr5, [r4, #-472]!	; 0xfffffe28
    1f08:	Address 0x00001f08 is out of bounds.


Disassembly of section .comment:

00000000 <.comment>:
   0:	3a434347 	bcc	10d0d24 <__bss_end+0x10cd7d4>
   4:	72632820 	rsbvc	r2, r3, #2097152	; 0x200000
   8:	7473736f 	ldrbtvc	r7, [r3], #-879	; 0x36f
   c:	2d6c6f6f 	stclcs	15, cr6, [ip, #-444]!	; 0xfffffe44
  10:	6c20474e 	stcvs	7, cr4, [r0], #-312	; 0xfffffec8
  14:	72616e69 	rsbvc	r6, r1, #1680	; 0x690
  18:	2e312d6f 	cdpcs	13, 3, cr2, cr1, cr15, {3}
  1c:	312e3331 	teqcc	lr, r1, lsr r3
  20:	3130322d 	teqcc	r0, sp, lsr #4
  24:	32302e32 	eorscc	r2, r0, #800	; 0x320
  28:	3130322d 	teqcc	r0, sp, lsr #4
  2c:	32323032 	eorscc	r3, r2, #50	; 0x32
  30:	202d2032 	eorcs	r2, sp, r2, lsr r0
  34:	616e694c 	cmnvs	lr, ip, asr #18
  38:	47206f72 			; <UNDEFINED> instruction: 0x47206f72
  3c:	32204343 	eorcc	r4, r0, #201326593	; 0xc000001
  40:	2e323130 	mrccs	1, 1, r3, cr2, cr0, {1}
  44:	20293230 	eorcs	r3, r9, r0, lsr r2
  48:	2e362e34 	mrccs	14, 1, r2, cr6, cr4, {1}
  4c:	30322033 	eorscc	r2, r2, r3, lsr r0
  50:	32303231 	eorscc	r3, r0, #268435459	; 0x10000003
  54:	28203130 	stmdacs	r0!, {r4, r5, r8, ip, sp}
  58:	72657270 	rsbvc	r7, r5, #7
  5c:	61656c65 	cmnvs	r5, r5, ror #24
  60:	00296573 	eoreq	r6, r9, r3, ror r5

Disassembly of section .ARM.attributes:

00000000 <.ARM.attributes>:
   0:	00003041 	andeq	r3, r0, r1, asr #32
   4:	61656100 	cmnvs	r5, r0, lsl #2
   8:	01006962 	tsteq	r0, r2, ror #18
   c:	00000026 	andeq	r0, r0, r6, lsr #32
  10:	412d3705 	teqmi	sp, r5, lsl #14
  14:	070a0600 	streq	r0, [sl, -r0, lsl #12]
  18:	09010841 	stmdbeq	r1, {r0, r6, fp}
  1c:	12040a02 	andne	r0, r4, #8192	; 0x2000
  20:	15011404 	strne	r1, [r1, #-1028]	; 0x404
  24:	18031701 	stmdane	r3, {r0, r8, r9, sl, ip}
  28:	1b021a01 	blne	86834 <__bss_end+0x832e4>
  2c:	2c021e03 	stccs	14, cr1, [r2], {3}
  30:	Address 0x00000030 is out of bounds.


Disassembly of section .debug_aranges:

00000000 <.debug_aranges>:
   0:	0000001c 	andeq	r0, r0, ip, lsl r0
   4:	01b40002 			; <UNDEFINED> instruction: 0x01b40002
   8:	00040000 	andeq	r0, r4, r0
   c:	00000000 	andeq	r0, r0, r0
  10:	00000030 	andeq	r0, r0, r0, lsr r0
  14:	0000005c 	andeq	r0, r0, ip, asr r0
	...
  20:	0000001c 	andeq	r0, r0, ip, lsl r0
  24:	02560002 	subseq	r0, r6, #2
  28:	00040000 	andeq	r0, r4, r0
  2c:	00000000 	andeq	r0, r0, r0
  30:	0000008c 	andeq	r0, r0, ip, lsl #1
  34:	00000028 	andeq	r0, r0, r8, lsr #32
	...
  40:	0000001c 	andeq	r0, r0, ip, lsl r0
  44:	03920002 	orrseq	r0, r2, #2
  48:	00040000 	andeq	r0, r4, r0
  4c:	00000000 	andeq	r0, r0, r0
  50:	000000b4 	strheq	r0, [r0], -r4
  54:	00000028 	andeq	r0, r0, r8, lsr #32
	...
  60:	0000001c 	andeq	r0, r0, ip, lsl r0
  64:	05750002 	ldrbeq	r0, [r5, #-2]!
  68:	00040000 	andeq	r0, r4, r0
  6c:	00000000 	andeq	r0, r0, r0
  70:	000000dc 	ldrdeq	r0, [r0], -ip
  74:	000002a4 	andeq	r0, r0, r4, lsr #5
	...
  80:	0000001c 	andeq	r0, r0, ip, lsl r0
  84:	16350002 	ldrtne	r0, [r5], -r2
  88:	00040000 	andeq	r0, r4, r0
  8c:	00000000 	andeq	r0, r0, r0
  90:	00000380 	andeq	r0, r0, r0, lsl #7
  94:	00000378 	andeq	r0, r0, r8, ror r3
	...
  a0:	0000001c 	andeq	r0, r0, ip, lsl r0
  a4:	1a160002 	bne	5800b4 <__bss_end+0x57cb64>
  a8:	00040000 	andeq	r0, r4, r0
  ac:	00000000 	andeq	r0, r0, r0
  b0:	000006f8 	strdeq	r0, [r0], -r8
  b4:	00000200 	andeq	r0, r0, r0, lsl #4
	...
  c0:	0000001c 	andeq	r0, r0, ip, lsl r0
  c4:	1f100002 	svcne	0x00100002
  c8:	00040000 	andeq	r0, r4, r0
  cc:	00000000 	andeq	r0, r0, r0
  d0:	00000900 	andeq	r0, r0, r0, lsl #18
  d4:	000000a0 	andeq	r0, r0, r0, lsr #1
	...
  e0:	0000001c 	andeq	r0, r0, ip, lsl r0
  e4:	205f0002 	subscs	r0, pc, r2
  e8:	00040000 	andeq	r0, r4, r0
  ec:	00000000 	andeq	r0, r0, r0
  f0:	000009a0 	andeq	r0, r0, r0, lsr #19
  f4:	0000054c 	andeq	r0, r0, ip, asr #10
	...
 100:	0000001c 	andeq	r0, r0, ip, lsl r0
 104:	20fe0002 	rscscs	r0, lr, r2
 108:	00040000 	andeq	r0, r4, r0
 10c:	00000000 	andeq	r0, r0, r0
 110:	00000f00 	andeq	r0, r0, r0, lsl #30
 114:	000007b0 			; <UNDEFINED> instruction: 0x000007b0
	...
 120:	0000001c 	andeq	r0, r0, ip, lsl r0
 124:	26920002 	ldrcs	r0, [r2], r2
 128:	00040000 	andeq	r0, r4, r0
 12c:	00000000 	andeq	r0, r0, r0
 130:	000016b0 			; <UNDEFINED> instruction: 0x000016b0
 134:	00000544 	andeq	r0, r0, r4, asr #10
	...
 140:	0000001c 	andeq	r0, r0, ip, lsl r0
 144:	384f0002 	stmdacc	pc, {r1}^	; <UNPREDICTABLE>
 148:	00040000 	andeq	r0, r4, r0
 14c:	00000000 	andeq	r0, r0, r0
 150:	00001bf4 	strdeq	r1, [r0], -r4
 154:	000007ec 	andeq	r0, r0, ip, ror #15
	...
 160:	0000001c 	andeq	r0, r0, ip, lsl r0
 164:	40930002 	addsmi	r0, r3, r2
 168:	00040000 	andeq	r0, r4, r0
 16c:	00000000 	andeq	r0, r0, r0
 170:	000023e0 	andeq	r2, r0, r0, ror #7
 174:	000001dc 	ldrdeq	r0, [r0], -ip
	...
 180:	0000001c 	andeq	r0, r0, ip, lsl r0
 184:	412e0002 	teqmi	lr, r2
 188:	00040000 	andeq	r0, r4, r0
 18c:	00000000 	andeq	r0, r0, r0
 190:	000025bc 			; <UNDEFINED> instruction: 0x000025bc
 194:	00000058 	andeq	r0, r0, r8, asr r0
	...
 1a0:	0000001c 	andeq	r0, r0, ip, lsl r0
 1a4:	42280002 	eormi	r0, r8, #2
 1a8:	00040000 	andeq	r0, r4, r0
 1ac:	00000000 	andeq	r0, r0, r0
 1b0:	00002614 	andeq	r2, r0, r4, lsl r6
 1b4:	0000019c 	muleq	r0, ip, r1
	...
 1c0:	0000001c 	andeq	r0, r0, ip, lsl r0
 1c4:	44f90002 	ldrbtmi	r0, [r9], #2
 1c8:	00040000 	andeq	r0, r4, r0
 1cc:	00000000 	andeq	r0, r0, r0
 1d0:	000027b0 			; <UNDEFINED> instruction: 0x000027b0
 1d4:	000000a0 	andeq	r0, r0, r0, lsr #1
	...
 1e0:	0000001c 	andeq	r0, r0, ip, lsl r0
 1e4:	46630002 	strbtmi	r0, [r3], -r2
 1e8:	00040000 	andeq	r0, r4, r0
 1ec:	00000000 	andeq	r0, r0, r0
 1f0:	00002850 	andeq	r2, r0, r0, asr r8
 1f4:	000001e8 	andeq	r0, r0, r8, ror #3
	...
 200:	0000001c 	andeq	r0, r0, ip, lsl r0
 204:	4aef0002 	bmi	ffbc0214 <__bss_end+0xffbbccc4>
 208:	00040000 	andeq	r0, r4, r0
 20c:	00000000 	andeq	r0, r0, r0
 210:	00002a38 	andeq	r2, r0, r8, lsr sl
 214:	00000058 	andeq	r0, r0, r8, asr r0
	...
 220:	0000001c 	andeq	r0, r0, ip, lsl r0
 224:	4ca90002 	stcmi	0, cr0, [r9], #8
 228:	00040000 	andeq	r0, r4, r0
 22c:	00000000 	andeq	r0, r0, r0
 230:	00002a90 	muleq	r0, r0, sl
 234:	00000178 	andeq	r0, r0, r8, ror r1
	...
 240:	0000001c 	andeq	r0, r0, ip, lsl r0
 244:	4fac0002 	svcmi	0x00ac0002
 248:	00040000 	andeq	r0, r4, r0
 24c:	00000000 	andeq	r0, r0, r0
 250:	00002c08 	andeq	r2, r0, r8, lsl #24
 254:	000003a4 	andeq	r0, r0, r4, lsr #7
	...

Disassembly of section .debug_loc:

00000000 <.debug_loc>:
       0:	00000000 	andeq	r0, r0, r0
       4:	00000010 	andeq	r0, r0, r0, lsl r0
       8:	00500001 	subseq	r0, r0, r1
	...
      14:	14000000 	strne	r0, [r0], #-0
      18:	01000000 	mrseq	r0, (UNDEF: 0)
      1c:	00005100 	andeq	r5, r0, r0, lsl #2
	...
      28:	00040000 	andeq	r0, r4, r0
      2c:	00010000 	andeq	r0, r1, r0
      30:	00000452 	andeq	r0, r0, r2, asr r4
      34:	00000800 	andeq	r0, r0, r0, lsl #16
      38:	72000300 	andvc	r0, r0, #0
      3c:	00089f7d 	andeq	r9, r8, sp, ror pc
      40:	00140000 	andseq	r0, r4, r0
      44:	00010000 	andeq	r0, r1, r0
      48:	00000052 	andeq	r0, r0, r2, asr r0
      4c:	00000000 	andeq	r0, r0, r0
      50:	00000800 	andeq	r0, r0, r0, lsl #16
      54:	00001400 	andeq	r1, r0, r0, lsl #8
      58:	51000100 	mrspl	r0, (UNDEF: 16)
	...
      68:	00000004 	andeq	r0, r0, r4
      6c:	007d0002 	rsbseq	r0, sp, r2
      70:	00000004 	andeq	r0, r0, r4
      74:	00000138 	andeq	r0, r0, r8, lsr r1
      78:	107d0002 	rsbsne	r0, sp, r2
	...
      84:	00000138 	andeq	r0, r0, r8, lsr r1
      88:	0000013c 	andeq	r0, r0, ip, lsr r1
      8c:	007d0002 	rsbseq	r0, sp, r2
      90:	0000013c 	andeq	r0, r0, ip, lsr r1
      94:	000002a4 	andeq	r0, r0, r4, lsr #5
      98:	107d0002 	rsbsne	r0, sp, r2
	...
      a4:	00000174 	andeq	r0, r0, r4, ror r1
      a8:	00000177 	andeq	r0, r0, r7, ror r1
      ac:	77500001 	ldrbvc	r0, [r0, -r1]
      b0:	24000001 	strcs	r0, [r0], #-1
      b4:	01000002 	tsteq	r0, r2
      b8:	02545400 	subseq	r5, r4, #0
      bc:	02a40000 	adceq	r0, r4, #0
      c0:	00010000 	andeq	r0, r1, r0
      c4:	00000054 	andeq	r0, r0, r4, asr r0
      c8:	00000000 	andeq	r0, r0, r0
      cc:	00013800 	andeq	r3, r1, r0, lsl #16
      d0:	00014000 	andeq	r4, r1, r0
      d4:	30000200 	andcc	r0, r0, r0, lsl #4
      d8:	0001409f 	muleq	r1, pc, r0	; <UNPREDICTABLE>
      dc:	00014400 	andeq	r4, r1, r0, lsl #8
      e0:	70000500 	andvc	r0, r0, r0, lsl #10
      e4:	9f1a3300 	svcls	0x001a3300
      e8:	00000144 	andeq	r0, r0, r4, asr #2
      ec:	00000168 	andeq	r0, r0, r8, ror #2
      f0:	68500001 	ldmdavs	r0, {r0}^
      f4:	6f000001 	svcvs	0x00000001
      f8:	02000001 	andeq	r0, r0, #1
      fc:	247c7300 	ldrbtcs	r7, [ip], #-768	; 0x300
     100:	54000002 	strpl	r0, [r0], #-2
     104:	01000002 	tsteq	r0, r2
     108:	00005000 	andeq	r5, r0, r0
	...
     114:	00040000 	andeq	r0, r4, r0
     118:	00020000 	andeq	r0, r2, r0
     11c:	0004007d 	andeq	r0, r4, sp, ror r0
     120:	00200000 	eoreq	r0, r0, r0
     124:	00020000 	andeq	r0, r2, r0
     128:	0000087d 	andeq	r0, r0, sp, ror r8
     12c:	00000000 	andeq	r0, r0, r0
     130:	00700000 	rsbseq	r0, r0, r0
     134:	00740000 	rsbseq	r0, r4, r0
     138:	00020000 	andeq	r0, r2, r0
     13c:	0074007d 	rsbseq	r0, r4, sp, ror r0
     140:	01040000 	mrseq	r0, (UNDEF: 4)
     144:	00020000 	andeq	r0, r2, r0
     148:	0000087d 	andeq	r0, r0, sp, ror r8
     14c:	00000000 	andeq	r0, r0, r0
     150:	00700000 	rsbseq	r0, r0, r0
     154:	00a00000 	adceq	r0, r0, r0
     158:	00020000 	andeq	r0, r2, r0
     15c:	00009f31 	andeq	r9, r0, r1, lsr pc
     160:	00000000 	andeq	r0, r0, r0
     164:	01080000 	mrseq	r0, (UNDEF: 8)
     168:	010c0000 	mrseq	r0, (UNDEF: 12)
     16c:	00020000 	andeq	r0, r2, r0
     170:	010c007d 	tsteq	ip, sp, ror r0
     174:	01100000 	tsteq	r0, r0
     178:	00020000 	andeq	r0, r2, r0
     17c:	0110087d 	tsteq	r0, sp, ror r8
     180:	019c0000 	orrseq	r0, ip, r0
     184:	00020000 	andeq	r0, r2, r0
     188:	0000107d 	andeq	r1, r0, sp, ror r0
     18c:	00000000 	andeq	r0, r0, r0
     190:	01080000 	mrseq	r0, (UNDEF: 8)
     194:	011c0000 	tsteq	ip, r0
     198:	00010000 	andeq	r0, r1, r0
     19c:	00011c50 	andeq	r1, r1, r0, asr ip
     1a0:	00019c00 	andeq	r9, r1, r0, lsl #24
     1a4:	91000200 	mrsls	r0, R8_usr
     1a8:	0000006c 	andeq	r0, r0, ip, rrx
     1ac:	00000000 	andeq	r0, r0, r0
     1b0:	00019c00 	andeq	r9, r1, r0, lsl #24
     1b4:	0001a000 	andeq	sl, r1, r0
     1b8:	7d000200 	sfmvc	f0, 4, [r0, #-0]
     1bc:	0001a000 	andeq	sl, r1, r0
     1c0:	0001f000 	andeq	pc, r1, r0
     1c4:	7d000200 	sfmvc	f0, 4, [r0, #-0]
     1c8:	00000008 	andeq	r0, r0, r8
     1cc:	00000000 	andeq	r0, r0, r0
     1d0:	00019c00 	andeq	r9, r1, r0, lsl #24
     1d4:	0001e400 	andeq	lr, r1, r0, lsl #8
     1d8:	30000200 	andcc	r0, r0, r0, lsl #4
     1dc:	0001e49f 	muleq	r1, pc, r4	; <UNPREDICTABLE>
     1e0:	0001f000 	andeq	pc, r1, r0
     1e4:	03000c00 	movweq	r0, #3072	; 0xc00
     1e8:	00003170 	andeq	r3, r0, r0, ror r1
     1ec:	24480194 	strbcs	r0, [r8], #-404	; 0x194
     1f0:	009f2548 	addseq	r2, pc, r8, asr #10
     1f4:	00000000 	andeq	r0, r0, r0
     1f8:	f0000000 			; <UNDEFINED> instruction: 0xf0000000
     1fc:	f4000001 	vst4.8	{d0-d3}, [r0], r1
     200:	02000001 	andeq	r0, r0, #1
     204:	f4007d00 			; <UNDEFINED> instruction: 0xf4007d00
     208:	68000001 	stmdavs	r0, {r0}
     20c:	02000002 	andeq	r0, r0, #2
     210:	00107d00 	andseq	r7, r0, r0, lsl #26
     214:	00000000 	andeq	r0, r0, r0
     218:	f0000000 			; <UNDEFINED> instruction: 0xf0000000
     21c:	00000001 	andeq	r0, r0, r1
     220:	02000002 	andeq	r0, r0, #2
     224:	349f3100 	ldrcc	r3, [pc], #256	; 22c <set_pll+0x18>
     228:	40000002 	andmi	r0, r0, r2
     22c:	01000002 	tsteq	r0, r2
     230:	00005400 	andeq	r5, r0, r0, lsl #8
     234:	00000000 	andeq	r0, r0, r0
     238:	01f00000 	mvnseq	r0, r0
     23c:	02000000 	andeq	r0, r0, #0
     240:	00020000 	andeq	r0, r2, r0
     244:	02209f30 	eoreq	r9, r0, #192	; 0xc0
     248:	02330000 	eorseq	r0, r3, #0
     24c:	000c0000 	andeq	r0, ip, r0
     250:	00317003 	eorseq	r7, r1, r3
     254:	48019400 	stmdami	r1, {sl, ip, pc}
     258:	9f254824 	svcls	0x00254824
	...
     264:	00000268 	andeq	r0, r0, r8, ror #4
     268:	0000026c 	andeq	r0, r0, ip, ror #4
     26c:	007d0002 	rsbseq	r0, sp, r2
     270:	0000026c 	andeq	r0, r0, ip, ror #4
     274:	00000270 	andeq	r0, r0, r0, ror r2
     278:	0c7d0002 	ldcleq	0, cr0, [sp], #-8
     27c:	00000270 	andeq	r0, r0, r0, ror r2
     280:	000002fc 	strdeq	r0, [r0], -ip
     284:	187d0002 	ldmdane	sp!, {r1}^
	...
     290:	00000268 	andeq	r0, r0, r8, ror #4
     294:	0000027c 	andeq	r0, r0, ip, ror r2
     298:	7c500001 	mrrcvc	0, 0, r0, r0, cr1	; <UNPREDICTABLE>
     29c:	fc000002 	stc2	0, cr0, [r0], {2}
     2a0:	02000002 	andeq	r0, r0, #2
     2a4:	00649100 	rsbeq	r9, r4, r0, lsl #2
     2a8:	00000000 	andeq	r0, r0, r0
     2ac:	44000000 	strmi	r0, [r0], #-0
     2b0:	48000003 	stmdami	r0, {r0, r1}
     2b4:	02000003 	andeq	r0, r0, #3
     2b8:	48007d00 	stmdami	r0, {r8, sl, fp, ip, sp, lr}
     2bc:	78000003 	stmdavc	r0, {r0, r1}
     2c0:	02000003 	andeq	r0, r0, #3
     2c4:	00107d00 	andseq	r7, r0, r0, lsl #26
     2c8:	00000000 	andeq	r0, r0, r0
     2cc:	44000000 	strmi	r0, [r0], #-0
     2d0:	5c000003 	stcpl	0, cr0, [r0], {3}
     2d4:	01000003 	tsteq	r0, r3
     2d8:	00005000 	andeq	r5, r0, r0
     2dc:	00000000 	andeq	r0, r0, r0
     2e0:	03600000 	cmneq	r0, #0
     2e4:	03700000 	cmneq	r0, #0
     2e8:	00010000 	andeq	r0, r1, r0
     2ec:	00037056 	andeq	r7, r3, r6, asr r0
     2f0:	00037800 	andeq	r7, r3, r0, lsl #16
     2f4:	55000100 	strpl	r0, [r0, #-256]	; 0x100
	...
     304:	00000008 	andeq	r0, r0, r8
     308:	00500001 	subseq	r0, r0, r1
	...
     314:	0c000000 	stceq	0, cr0, [r0], {-0}
     318:	02000000 	andeq	r0, r0, #0
     31c:	0c9f3100 	ldfeqs	f3, [pc], {0}
     320:	14000000 	strne	r0, [r0], #-0
     324:	01000000 	mrseq	r0, (UNDEF: 0)
     328:	00145000 	andseq	r5, r4, r0
     32c:	00180000 	andseq	r0, r8, r0
     330:	00050000 	andeq	r0, r5, r0
     334:	21400070 	hvccs	0
     338:	0000189f 	muleq	r0, pc, r8	; <UNPREDICTABLE>
     33c:	00001c00 	andeq	r1, r0, r0, lsl #24
     340:	50000100 	andpl	r0, r0, r0, lsl #2
     344:	0000001c 	andeq	r0, r0, ip, lsl r0
     348:	00000034 	andeq	r0, r0, r4, lsr r0
     34c:	049e0006 	ldreq	r0, [lr], #6
     350:	8000000f 	andhi	r0, r0, pc
	...
     35c:	0000007c 	andeq	r0, r0, ip, ror r0
     360:	00000080 	andeq	r0, r0, r0, lsl #1
     364:	9f300002 	svcls	0x00300002
     368:	00000080 	andeq	r0, r0, r0, lsl #1
     36c:	00000084 	andeq	r0, r0, r4, lsl #1
     370:	00730005 	rsbseq	r0, r3, r5
     374:	849f2134 	ldrhi	r2, [pc], #308	; 37c <set_pll+0x168>
     378:	8c000000 	stchi	0, cr0, [r0], {-0}
     37c:	01000000 	mrseq	r0, (UNDEF: 0)
     380:	00005300 	andeq	r5, r0, r0, lsl #6
     384:	00000000 	andeq	r0, r0, r0
     388:	008c0000 	addeq	r0, ip, r0
     38c:	00900000 	addseq	r0, r0, r0
     390:	00020000 	andeq	r0, r2, r0
     394:	0090007d 	addseq	r0, r0, sp, ror r0
     398:	00c00000 	sbceq	r0, r0, r0
     39c:	00020000 	andeq	r0, r2, r0
     3a0:	0000087d 	andeq	r0, r0, sp, ror r8
     3a4:	00000000 	andeq	r0, r0, r0
     3a8:	008c0000 	addeq	r0, ip, r0
     3ac:	00940000 	addseq	r0, r4, r0
     3b0:	00020000 	andeq	r0, r2, r0
     3b4:	00009f30 	andeq	r9, r0, r0, lsr pc
     3b8:	00000000 	andeq	r0, r0, r0
     3bc:	008c0000 	addeq	r0, ip, r0
     3c0:	00980000 	addseq	r0, r8, r0
     3c4:	00020000 	andeq	r0, r2, r0
     3c8:	00009f30 	andeq	r9, r0, r0, lsr pc
     3cc:	00000000 	andeq	r0, r0, r0
     3d0:	00940000 	addseq	r0, r4, r0
     3d4:	00a40000 	adceq	r0, r4, r0
     3d8:	00010000 	andeq	r0, r1, r0
     3dc:	00000052 	andeq	r0, r0, r2, asr r0
     3e0:	00000000 	andeq	r0, r0, r0
     3e4:	00009800 	andeq	r9, r0, r0, lsl #16
     3e8:	0000a800 	andeq	sl, r0, r0, lsl #16
     3ec:	53000100 	movwpl	r0, #256	; 0x100
	...
     3f8:	000000c0 	andeq	r0, r0, r0, asr #1
     3fc:	000000c4 	andeq	r0, r0, r4, asr #1
     400:	007d0002 	rsbseq	r0, sp, r2
     404:	000000c4 	andeq	r0, r0, r4, asr #1
     408:	00000148 	andeq	r0, r0, r8, asr #2
     40c:	107d0002 	rsbsne	r0, sp, r2
	...
     418:	000000c0 	andeq	r0, r0, r0, asr #1
     41c:	000000d0 	ldrdeq	r0, [r0], -r0	; <UNPREDICTABLE>
     420:	d0500001 	subsle	r0, r0, r1
     424:	d8000000 	stmdale	r0, {}	; <UNPREDICTABLE>
     428:	01000000 	mrseq	r0, (UNDEF: 0)
     42c:	00e45500 	rsceq	r5, r4, r0, lsl #10
     430:	00f80000 	rscseq	r0, r8, r0
     434:	00010000 	andeq	r0, r1, r0
     438:	00000055 	andeq	r0, r0, r5, asr r0
     43c:	00000000 	andeq	r0, r0, r0
     440:	0000c000 	andeq	ip, r0, r0
     444:	0000d800 	andeq	sp, r0, r0, lsl #16
     448:	30000200 	andcc	r0, r0, r0, lsl #4
     44c:	0000e49f 	muleq	r0, pc, r4	; <UNPREDICTABLE>
     450:	0000ec00 	andeq	lr, r0, r0, lsl #24
     454:	30000200 	andcc	r0, r0, r0, lsl #4
     458:	0000ec9f 	muleq	r0, pc, ip	; <UNPREDICTABLE>
     45c:	0000f800 	andeq	pc, r0, r0, lsl #16
     460:	70000600 	andvc	r0, r0, r0, lsl #12
     464:	1e007501 	cfsh32ne	mvfx7, mvfx0, #1
     468:	0000009f 	muleq	r0, pc, r0	; <UNPREDICTABLE>
     46c:	00000000 	andeq	r0, r0, r0
     470:	0000c000 	andeq	ip, r0, r0
     474:	0000d800 	andeq	sp, r0, r0, lsl #16
     478:	30000200 	andcc	r0, r0, r0, lsl #4
     47c:	0000e49f 	muleq	r0, pc, r4	; <UNPREDICTABLE>
     480:	0000f000 	andeq	pc, r0, r0
     484:	30000200 	andcc	r0, r0, r0, lsl #4
     488:	00012c9f 	muleq	r1, pc, ip	; <UNPREDICTABLE>
     48c:	00013000 	andeq	r3, r1, r0
     490:	53000100 	movwpl	r0, #256	; 0x100
     494:	00000134 	andeq	r0, r0, r4, lsr r1
     498:	00000138 	andeq	r0, r0, r8, lsr r1
     49c:	00530001 	subseq	r0, r3, r1
     4a0:	00000000 	andeq	r0, r0, r0
     4a4:	c0000000 	andgt	r0, r0, r0
     4a8:	d8000000 	stmdale	r0, {}	; <UNPREDICTABLE>
     4ac:	02000000 	andeq	r0, r0, #0
     4b0:	e49f3000 	ldr	r3, [pc], #0	; 4b8 <save_mem_status+0x30>
     4b4:	00000000 	andeq	r0, r0, r0
     4b8:	02000001 	andeq	r0, r0, #1
     4bc:	009f3000 	addseq	r3, pc, r0
     4c0:	48000001 	stmdami	r0, {r0}
     4c4:	01000001 	tsteq	r0, r1
     4c8:	00005500 	andeq	r5, r0, r0, lsl #10
     4cc:	00000000 	andeq	r0, r0, r0
     4d0:	00c00000 	sbceq	r0, r0, r0
     4d4:	00d80000 	sbcseq	r0, r8, r0
     4d8:	00020000 	andeq	r0, r2, r0
     4dc:	00e49f30 	rsceq	r9, r4, r0, lsr pc
     4e0:	01040000 	mrseq	r0, (UNDEF: 4)
     4e4:	00020000 	andeq	r0, r2, r0
     4e8:	01049f30 	tsteq	r4, r0, lsr pc
     4ec:	01080000 	mrseq	r0, (UNDEF: 8)
     4f0:	00010000 	andeq	r0, r1, r0
     4f4:	00000052 	andeq	r0, r0, r2, asr r0
     4f8:	00000000 	andeq	r0, r0, r0
     4fc:	00011000 	andeq	r1, r1, r0
     500:	00013000 	andeq	r3, r1, r0
     504:	30000200 	andcc	r0, r0, r0, lsl #4
     508:	0000009f 	muleq	r0, pc, r0	; <UNPREDICTABLE>
     50c:	00000000 	andeq	r0, r0, r0
     510:	00011000 	andeq	r1, r1, r0
     514:	00013000 	andeq	r3, r1, r0
     518:	31000200 	mrscc	r0, R8_usr
     51c:	0000009f 	muleq	r0, pc, r0	; <UNPREDICTABLE>
     520:	00000000 	andeq	r0, r0, r0
     524:	00011000 	andeq	r1, r1, r0
     528:	00011800 	andeq	r1, r1, r0, lsl #16
     52c:	47000200 	strmi	r0, [r0, -r0, lsl #4]
     530:	0001189f 	muleq	r1, pc, r8	; <UNPREDICTABLE>
     534:	00013000 	andeq	r3, r1, r0
     538:	9e000600 	cfmadd32ls	mvax0, mvfx0, mvfx0, mvfx0
     53c:	00000f04 	andeq	r0, r0, r4, lsl #30
     540:	00000080 	andeq	r0, r0, r0, lsl #1
     544:	00000000 	andeq	r0, r0, r0
     548:	00013400 	andeq	r3, r1, r0, lsl #8
     54c:	00013800 	andeq	r3, r1, r0, lsl #16
     550:	53000100 	movwpl	r0, #256	; 0x100
	...
     55c:	00000148 	andeq	r0, r0, r8, asr #2
     560:	00000150 	andeq	r0, r0, r0, asr r1
     564:	007d0002 	rsbseq	r0, sp, r2
     568:	00000150 	andeq	r0, r0, r0, asr r1
     56c:	0000017c 	andeq	r0, r0, ip, ror r1
     570:	087d0002 	ldmdaeq	sp!, {r1}^
	...
     57c:	00000148 	andeq	r0, r0, r8, asr #2
     580:	00000158 	andeq	r0, r0, r8, asr r1
     584:	58500001 	ldmdapl	r0, {r0}^
     588:	60000001 	andvs	r0, r0, r1
     58c:	01000001 	tsteq	r0, r1
     590:	01605400 	cmneq	r0, r0, lsl #8
     594:	01640000 	cmneq	r4, r0
     598:	00030000 	andeq	r0, r3, r0
     59c:	649f0a74 	ldrvs	r0, [pc], #2676	; 5a4 <show_mem_status+0x34>
     5a0:	7c000001 	stcvc	0, cr0, [r0], {1}
     5a4:	01000001 	tsteq	r0, r1
     5a8:	00005400 	andeq	r5, r0, r0, lsl #8
     5ac:	00000000 	andeq	r0, r0, r0
     5b0:	017c0000 	cmneq	ip, r0
     5b4:	01840000 	orreq	r0, r4, r0
     5b8:	00010000 	andeq	r0, r1, r0
     5bc:	00000050 	andeq	r0, r0, r0, asr r0
     5c0:	00000000 	andeq	r0, r0, r0
     5c4:	00017c00 	andeq	r7, r1, r0, lsl #24
     5c8:	00018800 	andeq	r8, r1, r0, lsl #16
     5cc:	31000200 	mrscc	r0, R8_usr
     5d0:	0001889f 	muleq	r1, pc, r8	; <UNPREDICTABLE>
     5d4:	00019000 	andeq	r9, r1, r0
     5d8:	50000100 	andpl	r0, r0, r0, lsl #2
     5dc:	00000190 	muleq	r0, r0, r1
     5e0:	00000194 	muleq	r0, r4, r1
     5e4:	00700005 	rsbseq	r0, r0, r5
     5e8:	949f2140 	ldrls	r2, [pc], #320	; 5f0 <save_mem_status_nommu+0x8>
     5ec:	98000001 	stmdals	r0, {r0}
     5f0:	01000001 	tsteq	r0, r1
     5f4:	01985000 	orrseq	r5, r8, r0
     5f8:	01a80000 			; <UNDEFINED> instruction: 0x01a80000
     5fc:	00060000 	andeq	r0, r6, r0
     600:	000f049e 	muleq	pc, lr, r4	; <UNPREDICTABLE>
     604:	00008000 	andeq	r8, r0, r0
     608:	00000000 	andeq	r0, r0, r0
     60c:	01a80000 			; <UNDEFINED> instruction: 0x01a80000
     610:	01b80000 			; <UNDEFINED> instruction: 0x01b80000
     614:	00020000 	andeq	r0, r2, r0
     618:	00009f30 	andeq	r9, r0, r0, lsr pc
     61c:	00000000 	andeq	r0, r0, r0
     620:	01d40000 	bicseq	r0, r4, r0
     624:	01d80000 	bicseq	r0, r8, r0
     628:	00010000 	andeq	r0, r1, r0
     62c:	0001f050 	andeq	pc, r1, r0, asr r0	; <UNPREDICTABLE>
     630:	00020000 	andeq	r0, r2, r0
     634:	70000300 	andvc	r0, r0, r0, lsl #6
     638:	00009f02 	andeq	r9, r0, r2, lsl #30
     63c:	00000000 	andeq	r0, r0, r0
     640:	01d40000 	bicseq	r0, r4, r0
     644:	01e80000 	mvneq	r0, r0
     648:	00020000 	andeq	r0, r2, r0
     64c:	01e89f30 	mvneq	r9, r0, lsr pc
     650:	02000000 	andeq	r0, r0, #0
     654:	00010000 	andeq	r0, r1, r0
     658:	00000053 	andeq	r0, r0, r3, asr r0
     65c:	00000000 	andeq	r0, r0, r0
     660:	0001d400 	andeq	sp, r1, r0, lsl #8
     664:	0001f000 	andeq	pc, r1, r0
     668:	30000200 	andcc	r0, r0, r0, lsl #4
     66c:	0001f09f 	muleq	r1, pc, r0	; <UNPREDICTABLE>
     670:	00020000 	andeq	r0, r2, r0
     674:	50000100 	andpl	r0, r0, r0, lsl #2
	...
     680:	000001d4 	ldrdeq	r0, [r0], -r4
     684:	000001d8 	ldrdeq	r0, [r0], -r8
     688:	d8500001 	ldmdale	r0, {r0}^
     68c:	00000001 	andeq	r0, r0, r1
     690:	03000002 	movweq	r0, #2
     694:	9f027000 	svcls	0x00027000
	...
     6a0:	000006d4 	ldrdeq	r0, [r0], -r4
     6a4:	000006d8 	ldrdeq	r0, [r0], -r8
     6a8:	00720006 	rsbseq	r0, r2, r6
     6ac:	9f1afc09 	svcls	0x001afc09
     6b0:	000006d8 	ldrdeq	r0, [r0], -r8
     6b4:	000006e0 	andeq	r0, r0, r0, ror #13
     6b8:	00520001 	subseq	r0, r2, r1
     6bc:	00000000 	andeq	r0, r0, r0
     6c0:	a0000000 	andge	r0, r0, r0
     6c4:	a4000007 	strge	r0, [r0], #-7
     6c8:	02000007 	andeq	r0, r0, #7
     6cc:	a49f3000 	ldrge	r3, [pc], #0	; 6d4 <io_high+0x10>
     6d0:	b0000007 	andlt	r0, r0, r7
     6d4:	01000007 	tsteq	r0, r7
     6d8:	00005300 	andeq	r5, r0, r0, lsl #6
	...
     6e4:	00040000 	andeq	r0, r4, r0
     6e8:	00020000 	andeq	r0, r2, r0
     6ec:	0004007d 	andeq	r0, r4, sp, ror r0
     6f0:	00a80000 	adceq	r0, r8, r0
     6f4:	00020000 	andeq	r0, r2, r0
     6f8:	0000107d 	andeq	r1, r0, sp, ror r0
	...
     704:	000f0000 	andeq	r0, pc, r0
     708:	00010000 	andeq	r0, r1, r0
     70c:	00000f50 	andeq	r0, r0, r0, asr pc
     710:	0000a800 	andeq	sl, r0, r0, lsl #16
     714:	54000100 	strpl	r0, [r0], #-256	; 0x100
	...
     724:	0000000f 	andeq	r0, r0, pc
     728:	0f510001 	svceq	0x00510001
     72c:	a8000000 	stmdage	r0, {}	; <UNPREDICTABLE>
     730:	01000000 	mrseq	r0, (UNDEF: 0)
     734:	00005500 	andeq	r5, r0, r0, lsl #10
	...
     740:	00480000 	subeq	r0, r8, r0
     744:	00020000 	andeq	r0, r2, r0
     748:	00489f30 	subeq	r9, r8, r0, lsr pc
     74c:	007c0000 	rsbseq	r0, ip, r0
     750:	00010000 	andeq	r0, r1, r0
     754:	00007c53 	andeq	r7, r0, r3, asr ip
     758:	00009c00 	andeq	r9, r0, r0, lsl #24
     75c:	30000200 	andcc	r0, r0, r0, lsl #4
     760:	0000a09f 	muleq	r0, pc, r0	; <UNPREDICTABLE>
     764:	0000a800 	andeq	sl, r0, r0, lsl #16
     768:	9e000600 	cfmadd32ls	mvax0, mvfx0, mvfx0, mvfx0
     76c:	c208b404 	andgt	fp, r8, #67108864	; 0x4000000
     770:	000000f1 	strdeq	r0, [r0], -r1
	...
     77c:	00004800 	andeq	r4, r0, r0, lsl #16
     780:	30000200 	andcc	r0, r0, r0, lsl #4
     784:	00007c9f 	muleq	r0, pc, ip	; <UNPREDICTABLE>
     788:	0000a800 	andeq	sl, r0, r0, lsl #16
     78c:	30000200 	andcc	r0, r0, r0, lsl #4
     790:	0000009f 	muleq	r0, pc, r0	; <UNPREDICTABLE>
	...
     79c:	00004800 	andeq	r4, r0, r0, lsl #16
     7a0:	30000200 	andcc	r0, r0, r0, lsl #4
     7a4:	0000489f 	muleq	r0, pc, r8	; <UNPREDICTABLE>
     7a8:	00006c00 	andeq	r6, r0, r0, lsl #24
     7ac:	52000100 	andpl	r0, r0, #0
     7b0:	0000007c 	andeq	r0, r0, ip, ror r0
     7b4:	000000a8 	andeq	r0, r0, r8, lsr #1
     7b8:	9f300002 	svcls	0x00300002
	...
     7c4:	000000a8 	andeq	r0, r0, r8, lsr #1
     7c8:	000000ac 	andeq	r0, r0, ip, lsr #1
     7cc:	007d0002 	rsbseq	r0, sp, r2
     7d0:	000000ac 	andeq	r0, r0, ip, lsr #1
     7d4:	00000154 	andeq	r0, r0, r4, asr r1
     7d8:	107d0002 	rsbsne	r0, sp, r2
	...
     7e4:	000000a8 	andeq	r0, r0, r8, lsr #1
     7e8:	000000b3 	strheq	r0, [r0], -r3
     7ec:	b3500001 	cmplt	r0, #1
     7f0:	e8000000 	stmda	r0, {}	; <UNPREDICTABLE>
     7f4:	01000000 	mrseq	r0, (UNDEF: 0)
     7f8:	00005400 	andeq	r5, r0, r0, lsl #8
     7fc:	00000000 	andeq	r0, r0, r0
     800:	00a80000 	adceq	r0, r8, r0
     804:	00cc0000 	sbceq	r0, ip, r0
     808:	00020000 	andeq	r0, r2, r0
     80c:	00cc9f30 	sbceq	r9, ip, r0, lsr pc
     810:	00df0000 	sbcseq	r0, pc, r0
     814:	00010000 	andeq	r0, r1, r0
     818:	00000050 	andeq	r0, r0, r0, asr r0
     81c:	00000000 	andeq	r0, r0, r0
     820:	0000a800 	andeq	sl, r0, r0, lsl #16
     824:	0000fc00 	andeq	pc, r0, r0, lsl #24
     828:	30000200 	andcc	r0, r0, r0, lsl #4
     82c:	0000fc9f 	muleq	r0, pc, ip	; <UNPREDICTABLE>
     830:	00012300 	andeq	r2, r1, r0, lsl #6
     834:	50000100 	andpl	r0, r0, r0, lsl #2
     838:	00000123 	andeq	r0, r0, r3, lsr #2
     83c:	00000154 	andeq	r0, r0, r4, asr r1
     840:	00550001 	subseq	r0, r5, r1
     844:	00000000 	andeq	r0, r0, r0
     848:	a8000000 	stmdage	r0, {}	; <UNPREDICTABLE>
     84c:	08000000 	stmdaeq	r0, {}	; <UNPREDICTABLE>
     850:	02000001 	andeq	r0, r0, #1
     854:	089f3000 	ldmeq	pc, {ip, sp}	; <UNPREDICTABLE>
     858:	2c000001 	stccs	0, cr0, [r0], {1}
     85c:	06000001 	streq	r0, [r0], -r1
     860:	02d80c00 	sbcseq	r0, r8, #0
     864:	2c9f01c2 	ldfcss	f0, [pc], {194}	; 0xc2
     868:	54000001 	strpl	r0, [r0], #-1
     86c:	06000001 	streq	r0, [r0], -r1
     870:	006c0c00 	rsbeq	r0, ip, r0, lsl #24
     874:	009f01c2 	addseq	r0, pc, r2, asr #3
     878:	00000000 	andeq	r0, r0, r0
     87c:	a8000000 	stmdage	r0, {}	; <UNPREDICTABLE>
     880:	b4000000 	strlt	r0, [r0], #-0
     884:	02000000 	andeq	r0, r0, #0
     888:	b49f3000 	ldrlt	r3, [pc], #0	; 890 <init_event_counter+0x1c>
     88c:	c8000000 	stmdagt	r0, {}	; <UNPREDICTABLE>
     890:	01000000 	mrseq	r0, (UNDEF: 0)
     894:	00005000 	andeq	r5, r0, r0
     898:	00000000 	andeq	r0, r0, r0
     89c:	00b80000 	adcseq	r0, r8, r0
     8a0:	00d80000 	sbcseq	r0, r8, r0
     8a4:	00010000 	andeq	r0, r1, r0
     8a8:	00000053 	andeq	r0, r0, r3, asr r0
     8ac:	00000000 	andeq	r0, r0, r0
     8b0:	00019400 	andeq	r9, r1, r0, lsl #8
     8b4:	00019800 	andeq	r9, r1, r0, lsl #16
     8b8:	7d000200 	sfmvc	f0, 4, [r0, #-0]
     8bc:	00019800 	andeq	r9, r1, r0, lsl #16
     8c0:	00021800 	andeq	r1, r2, r0, lsl #16
     8c4:	7d000200 	sfmvc	f0, 4, [r0, #-0]
     8c8:	00000010 	andeq	r0, r0, r0, lsl r0
     8cc:	00000000 	andeq	r0, r0, r0
     8d0:	00019400 	andeq	r9, r1, r0, lsl #8
     8d4:	0001a000 	andeq	sl, r1, r0
     8d8:	50000100 	andpl	r0, r0, r0, lsl #2
     8dc:	000001a0 	andeq	r0, r0, r0, lsr #3
     8e0:	000001a3 	andeq	r0, r0, r3, lsr #3
     8e4:	00510001 	subseq	r0, r1, r1
     8e8:	00000000 	andeq	r0, r0, r0
     8ec:	94000000 	strls	r0, [r0], #-0
     8f0:	c0000001 	andgt	r0, r0, r1
     8f4:	02000001 	andeq	r0, r0, #1
     8f8:	c09f3000 	addsgt	r3, pc, r0
     8fc:	e8000001 	stmda	r0, {r0}
     900:	05000001 	streq	r0, [r0, #-1]
     904:	44007300 	strmi	r7, [r0], #-768	; 0x300
     908:	00009f25 	andeq	r9, r0, r5, lsr #30
     90c:	00000000 	andeq	r0, r0, r0
     910:	01940000 	orrseq	r0, r4, r0
     914:	01c80000 	biceq	r0, r8, r0
     918:	00020000 	andeq	r0, r2, r0
     91c:	01c89f30 	biceq	r9, r8, r0, lsr pc
     920:	01e00000 	mvneq	r0, r0
     924:	00010000 	andeq	r0, r1, r0
     928:	00000050 	andeq	r0, r0, r0, asr r0
     92c:	00000000 	andeq	r0, r0, r0
     930:	00019400 	andeq	r9, r1, r0, lsl #8
     934:	0001ac00 	andeq	sl, r1, r0, lsl #24
     938:	30000200 	andcc	r0, r0, r0, lsl #4
     93c:	0001ac9f 	muleq	r1, pc, ip	; <UNPREDICTABLE>
     940:	0001b400 	andeq	fp, r1, r0, lsl #8
     944:	50000100 	andpl	r0, r0, r0, lsl #2
     948:	000001b4 			; <UNDEFINED> instruction: 0x000001b4
     94c:	000001c8 	andeq	r0, r0, r8, asr #3
     950:	80700005 	rsbshi	r0, r0, r5
     954:	009f47e0 	addseq	r4, pc, r0, ror #15
     958:	00000000 	andeq	r0, r0, r0
     95c:	18000000 	stmdane	r0, {}	; <UNPREDICTABLE>
     960:	20000002 	andcs	r0, r0, r2
     964:	02000002 	andeq	r0, r0, #2
     968:	20007d00 	andcs	r7, r0, r0, lsl #26
     96c:	c8000002 	stmdagt	r0, {r1}
     970:	02000002 	andeq	r0, r0, #2
     974:	00047d00 	andeq	r7, r4, r0, lsl #26
     978:	00000000 	andeq	r0, r0, r0
     97c:	18000000 	stmdane	r0, {}	; <UNPREDICTABLE>
     980:	2c000002 	stccs	0, cr0, [r0], {2}
     984:	01000002 	tsteq	r0, r2
     988:	02305000 	eorseq	r5, r0, #0
     98c:	02440000 	subeq	r0, r4, #0
     990:	00010000 	andeq	r0, r1, r0
     994:	00024450 	andeq	r4, r2, r0, asr r4
     998:	00024c00 	andeq	r4, r2, r0, lsl #24
     99c:	70000300 	andvc	r0, r0, r0, lsl #6
     9a0:	00009f01 	andeq	r9, r0, r1, lsl #30
     9a4:	00000000 	andeq	r0, r0, r0
     9a8:	02580000 	subseq	r0, r8, #0
     9ac:	028c0000 	addeq	r0, ip, #0
     9b0:	00010000 	andeq	r0, r1, r0
     9b4:	0000005c 	andeq	r0, r0, ip, asr r0
     9b8:	00000000 	andeq	r0, r0, r0
     9bc:	0002c800 	andeq	ip, r2, r0, lsl #16
     9c0:	0002d000 	andeq	sp, r2, r0
     9c4:	7d000200 	sfmvc	f0, 4, [r0, #-0]
     9c8:	0002d000 	andeq	sp, r2, r0
     9cc:	00035400 	andeq	r5, r3, r0, lsl #8
     9d0:	7d000200 	sfmvc	f0, 4, [r0, #-0]
     9d4:	00000004 	andeq	r0, r0, r4
     9d8:	00000000 	andeq	r0, r0, r0
     9dc:	0002c800 	andeq	ip, r2, r0, lsl #16
     9e0:	0002dc00 	andeq	sp, r2, r0, lsl #24
     9e4:	50000100 	andpl	r0, r0, r0, lsl #2
	...
     9f0:	000002c8 	andeq	r0, r0, r8, asr #5
     9f4:	000002e0 	andeq	r0, r0, r0, ror #5
     9f8:	9f300002 	svcls	0x00300002
     9fc:	000002e8 	andeq	r0, r0, r8, ror #5
     a00:	00000300 	andeq	r0, r0, r0, lsl #6
     a04:	9f300002 	svcls	0x00300002
     a08:	00000344 	andeq	r0, r0, r4, asr #6
     a0c:	00000354 	andeq	r0, r0, r4, asr r3
     a10:	00540001 	subseq	r0, r4, r1
     a14:	00000000 	andeq	r0, r0, r0
     a18:	c8000000 	stmdagt	r0, {}	; <UNPREDICTABLE>
     a1c:	e0000002 	and	r0, r0, r2
     a20:	02000002 	andeq	r0, r0, #2
     a24:	e89f3000 	ldm	pc, {ip, sp}	; <UNPREDICTABLE>
     a28:	00000002 	andeq	r0, r0, r2
     a2c:	02000003 	andeq	r0, r0, #3
     a30:	009f3000 	addseq	r3, pc, r0
     a34:	00000000 	andeq	r0, r0, r0
     a38:	08000000 	stmdaeq	r0, {}	; <UNPREDICTABLE>
     a3c:	0c000003 	stceq	0, cr0, [r0], {3}
     a40:	01000003 	tsteq	r0, r3
     a44:	030c5300 	movweq	r5, #49920	; 0xc300
     a48:	03100000 	tsteq	r0, #0
     a4c:	00030000 	andeq	r0, r3, r0
     a50:	109f0173 	addsne	r0, pc, r3, ror r1	; <UNPREDICTABLE>
     a54:	24000003 	strcs	r0, [r0], #-3
     a58:	01000003 	tsteq	r0, r3
     a5c:	00005300 	andeq	r5, r0, r0, lsl #6
     a60:	00000000 	andeq	r0, r0, r0
     a64:	037c0000 	cmneq	ip, #0
     a68:	03800000 	orreq	r0, r0, #0
     a6c:	00020000 	andeq	r0, r2, r0
     a70:	0380007d 	orreq	r0, r0, #125	; 0x7d
     a74:	04080000 	streq	r0, [r8], #-0
     a78:	00020000 	andeq	r0, r2, r0
     a7c:	0000107d 	andeq	r1, r0, sp, ror r0
     a80:	00000000 	andeq	r0, r0, r0
     a84:	037c0000 	cmneq	ip, #0
     a88:	03940000 	orrseq	r0, r4, #0
     a8c:	00010000 	andeq	r0, r1, r0
     a90:	00039450 	andeq	r9, r3, r0, asr r4
     a94:	00039b00 	andeq	r9, r3, r0, lsl #22
     a98:	51000100 	mrspl	r0, (UNDEF: 16)
	...
     aa4:	0000037c 	andeq	r0, r0, ip, ror r3
     aa8:	000003a4 	andeq	r0, r0, r4, lsr #7
     aac:	9f300002 	svcls	0x00300002
     ab0:	000003a4 	andeq	r0, r0, r4, lsr #7
     ab4:	000003ac 	andeq	r0, r0, ip, lsr #7
     ab8:	ac500001 	mrrcge	0, 0, r0, r0, cr1	; <UNPREDICTABLE>
     abc:	c0000003 	andgt	r0, r0, r3
     ac0:	05000003 	streq	r0, [r0, #-3]
     ac4:	e0807000 	add	r7, r0, r0
     ac8:	00009f47 	andeq	r9, r0, r7, asr #30
     acc:	00000000 	andeq	r0, r0, r0
     ad0:	037c0000 	cmneq	ip, #0
     ad4:	03b80000 			; <UNDEFINED> instruction: 0x03b80000
     ad8:	00020000 	andeq	r0, r2, r0
     adc:	03b89f30 			; <UNDEFINED> instruction: 0x03b89f30
     ae0:	03d80000 	bicseq	r0, r8, #0
     ae4:	00050000 	andeq	r0, r5, r0
     ae8:	25440073 	strbcs	r0, [r4, #-115]	; 0x73
     aec:	0000009f 	muleq	r0, pc, r0	; <UNPREDICTABLE>
     af0:	00000000 	andeq	r0, r0, r0
     af4:	00037c00 	andeq	r7, r3, r0, lsl #24
     af8:	0003c000 	andeq	ip, r3, r0
     afc:	30000200 	andcc	r0, r0, r0, lsl #4
     b00:	0003c09f 	muleq	r3, pc, r0	; <UNPREDICTABLE>
     b04:	0003d000 	andeq	sp, r3, r0
     b08:	50000100 	andpl	r0, r0, r0, lsl #2
	...
     b14:	00000408 	andeq	r0, r0, r8, lsl #8
     b18:	00000410 	andeq	r0, r0, r0, lsl r4
     b1c:	007d0002 	rsbseq	r0, sp, r2
     b20:	00000410 	andeq	r0, r0, r0, lsl r4
     b24:	000004b8 			; <UNDEFINED> instruction: 0x000004b8
     b28:	047d0002 	ldrbteq	r0, [sp], #-2
	...
     b34:	00000408 	andeq	r0, r0, r8, lsl #8
     b38:	0000041c 	andeq	r0, r0, ip, lsl r4
     b3c:	20500001 	subscs	r0, r0, r1
     b40:	34000004 	strcc	r0, [r0], #-4
     b44:	01000004 	tsteq	r0, r4
     b48:	04345000 	ldrteq	r5, [r4], #-0
     b4c:	043c0000 	ldrteq	r0, [ip], #-0
     b50:	00030000 	andeq	r0, r3, r0
     b54:	009f0170 	addseq	r0, pc, r0, ror r1	; <UNPREDICTABLE>
     b58:	00000000 	andeq	r0, r0, r0
     b5c:	48000000 	stmdami	r0, {}	; <UNPREDICTABLE>
     b60:	7c000004 	stcvc	0, cr0, [r0], {4}
     b64:	01000004 	tsteq	r0, r4
     b68:	00005c00 	andeq	r5, r0, r0, lsl #24
     b6c:	00000000 	andeq	r0, r0, r0
     b70:	04b80000 	ldrteq	r0, [r8], #0
     b74:	04c00000 	strbeq	r0, [r0], #0
     b78:	00020000 	andeq	r0, r2, r0
     b7c:	04c0007d 	strbeq	r0, [r0], #125	; 0x7d
     b80:	05440000 	strbeq	r0, [r4, #-0]
     b84:	00020000 	andeq	r0, r2, r0
     b88:	0000047d 	andeq	r0, r0, sp, ror r4
     b8c:	00000000 	andeq	r0, r0, r0
     b90:	04b80000 	ldrteq	r0, [r8], #0
     b94:	04cc0000 	strbeq	r0, [ip], #0
     b98:	00010000 	andeq	r0, r1, r0
     b9c:	00000050 	andeq	r0, r0, r0, asr r0
     ba0:	00000000 	andeq	r0, r0, r0
     ba4:	0004b800 	andeq	fp, r4, r0, lsl #16
     ba8:	0004d000 	andeq	sp, r4, r0
     bac:	30000200 	andcc	r0, r0, r0, lsl #4
     bb0:	0004d89f 	muleq	r4, pc, r8	; <UNPREDICTABLE>
     bb4:	0004f000 	andeq	pc, r4, r0
     bb8:	30000200 	andcc	r0, r0, r0, lsl #4
     bbc:	0005349f 	muleq	r5, pc, r4	; <UNPREDICTABLE>
     bc0:	00054400 	andeq	r4, r5, r0, lsl #8
     bc4:	54000100 	strpl	r0, [r0], #-256	; 0x100
	...
     bd0:	000004b8 			; <UNDEFINED> instruction: 0x000004b8
     bd4:	000004d0 	ldrdeq	r0, [r0], -r0	; <UNPREDICTABLE>
     bd8:	9f300002 	svcls	0x00300002
     bdc:	000004d8 	ldrdeq	r0, [r0], -r8
     be0:	000004f0 	strdeq	r0, [r0], -r0	; <UNPREDICTABLE>
     be4:	9f300002 	svcls	0x00300002
	...
     bf0:	000004f8 	strdeq	r0, [r0], -r8
     bf4:	000004fc 	strdeq	r0, [r0], -ip
     bf8:	fc530001 	mrrc2	0, 0, r0, r3, cr1
     bfc:	00000004 	andeq	r0, r0, r4
     c00:	03000005 	movweq	r0, #5
     c04:	9f017300 	svcls	0x00017300
     c08:	00000500 	andeq	r0, r0, r0, lsl #10
     c0c:	00000514 	andeq	r0, r0, r4, lsl r5
     c10:	00530001 	subseq	r0, r3, r1
	...
     c1c:	04000000 	streq	r0, [r0], #-0
     c20:	02000000 	andeq	r0, r0, #0
     c24:	04007d00 	streq	r7, [r0], #-3328	; 0xd00
     c28:	1c000000 	stcne	0, cr0, [r0], {-0}
     c2c:	02000000 	andeq	r0, r0, #0
     c30:	1c1c7d00 	ldcne	13, cr7, [ip], {-0}
     c34:	bc000000 	stclt	0, cr0, [r0], {-0}
     c38:	03000000 	movweq	r0, #0
     c3c:	00c87d00 	sbceq	r7, r8, r0, lsl #26
	...
     c4c:	0000002c 	andeq	r0, r0, ip, lsr #32
     c50:	2c500001 	mrrccs	0, 0, r0, r0, cr1	; <UNPREDICTABLE>
     c54:	4c000000 	stcmi	0, cr0, [r0], {-0}
     c58:	01000000 	mrseq	r0, (UNDEF: 0)
     c5c:	004c5400 	subeq	r5, ip, r0, lsl #8
     c60:	00500000 	subseq	r0, r0, r0
     c64:	00010000 	andeq	r0, r1, r0
     c68:	00007850 	andeq	r7, r0, r0, asr r8
     c6c:	0000ac00 	andeq	sl, r0, r0, lsl #24
     c70:	50000100 	andpl	r0, r0, r0, lsl #2
	...
     c80:	0000002c 	andeq	r0, r0, ip, lsr #32
     c84:	2c510001 	mrrccs	0, 0, r0, r1, cr1
     c88:	bc000000 	stclt	0, cr0, [r0], {-0}
     c8c:	01000000 	mrseq	r0, (UNDEF: 0)
     c90:	00005700 	andeq	r5, r0, r0, lsl #14
	...
     c9c:	002c0000 	eoreq	r0, ip, r0
     ca0:	00010000 	andeq	r0, r1, r0
     ca4:	00002c52 	andeq	r2, r0, r2, asr ip
     ca8:	0000bc00 	andeq	fp, r0, r0, lsl #24
     cac:	55000100 	strpl	r0, [r0, #-256]	; 0x100
	...
     cb8:	0000004c 	andeq	r0, r0, ip, asr #32
     cbc:	00000050 	andeq	r0, r0, r0, asr r0
     cc0:	80530001 	subshi	r0, r3, r1
     cc4:	84000000 	strhi	r0, [r0], #-0
     cc8:	01000000 	mrseq	r0, (UNDEF: 0)
     ccc:	00845300 	addeq	r5, r4, r0, lsl #6
     cd0:	00900000 	addseq	r0, r0, r0
     cd4:	00010000 	andeq	r0, r1, r0
     cd8:	00000058 	andeq	r0, r0, r8, asr r0
     cdc:	00000000 	andeq	r0, r0, r0
     ce0:	00008400 	andeq	r8, r0, r0, lsl #8
     ce4:	00009000 	andeq	r9, r0, r0
     ce8:	30000200 	andcc	r0, r0, r0, lsl #4
     cec:	0000009f 	muleq	r0, pc, r0	; <UNPREDICTABLE>
     cf0:	00000000 	andeq	r0, r0, r0
     cf4:	0000bc00 	andeq	fp, r0, r0, lsl #24
     cf8:	0000c000 	andeq	ip, r0, r0
     cfc:	7d000200 	sfmvc	f0, 4, [r0, #-0]
     d00:	0000c000 	andeq	ip, r0, r0
     d04:	0000d800 	andeq	sp, r0, r0, lsl #16
     d08:	7d000200 	sfmvc	f0, 4, [r0, #-0]
     d0c:	0000d810 	andeq	sp, r0, r0, lsl r8
     d10:	00016400 	andeq	r6, r1, r0, lsl #8
     d14:	7d000200 	sfmvc	f0, 4, [r0, #-0]
     d18:	00000028 	andeq	r0, r0, r8, lsr #32
     d1c:	00000000 	andeq	r0, r0, r0
     d20:	0000bc00 	andeq	fp, r0, r0, lsl #24
     d24:	0000e000 	andeq	lr, r0, r0
     d28:	50000100 	andpl	r0, r0, r0, lsl #2
     d2c:	000000e0 	andeq	r0, r0, r0, ror #1
     d30:	00000114 	andeq	r0, r0, r4, lsl r1
     d34:	00550001 	subseq	r0, r5, r1
     d38:	00000000 	andeq	r0, r0, r0
     d3c:	bc000000 	stclt	0, cr0, [r0], {-0}
     d40:	e0000000 	and	r0, r0, r0
     d44:	01000000 	mrseq	r0, (UNDEF: 0)
     d48:	00e05100 	rsceq	r5, r0, r0, lsl #2
     d4c:	01640000 	cmneq	r4, r0
     d50:	00010000 	andeq	r0, r1, r0
     d54:	00000057 	andeq	r0, r0, r7, asr r0
     d58:	00000000 	andeq	r0, r0, r0
     d5c:	0000bc00 	andeq	fp, r0, r0, lsl #24
     d60:	0000e000 	andeq	lr, r0, r0
     d64:	52000100 	andpl	r0, r0, #0
     d68:	000000e0 	andeq	r0, r0, r0, ror #1
     d6c:	00000164 	andeq	r0, r0, r4, ror #2
     d70:	00560001 	subseq	r0, r6, r1
	...
     d7c:	30000001 	andcc	r0, r0, r1
     d80:	01000001 	tsteq	r0, r1
     d84:	01305000 	teqeq	r0, r0
     d88:	01480000 	mrseq	r0, (UNDEF: 72)
     d8c:	00010000 	andeq	r0, r1, r0
     d90:	00014851 	andeq	r4, r1, r1, asr r8
     d94:	00014c00 	andeq	r4, r1, r0, lsl #24
     d98:	71000300 	mrsvc	r0, LR_irq
     d9c:	014c9f7f 	hvceq	51711	; 0xc9ff
     da0:	01540000 	cmpeq	r4, r0
     da4:	00010000 	andeq	r0, r1, r0
     da8:	00000051 	andeq	r0, r0, r1, asr r0
     dac:	00000000 	andeq	r0, r0, r0
     db0:	00010000 	andeq	r0, r1, r0
     db4:	00012c00 	andeq	r2, r1, r0, lsl #24
     db8:	7c000300 	stcvc	3, cr0, [r0], {-0}
     dbc:	012c9f70 	teqeq	ip, r0, ror pc
     dc0:	01300000 	teqeq	r0, r0
     dc4:	00030000 	andeq	r0, r3, r0
     dc8:	009f5491 	umullseq	r5, pc, r1, r4	; <UNPREDICTABLE>
	...
     dd4:	14000001 	strne	r0, [r0], #-1
     dd8:	01000001 	tsteq	r0, r1
     ddc:	01145500 	tsteq	r4, r0, lsl #10
     de0:	01180000 	tsteq	r8, r0
     de4:	00010000 	andeq	r0, r1, r0
     de8:	00011853 	andeq	r1, r1, r3, asr r8
     dec:	00012000 	andeq	r2, r1, r0
     df0:	55000100 	strpl	r0, [r0, #-256]	; 0x100
     df4:	00000120 	andeq	r0, r0, r0, lsr #2
     df8:	00000128 	andeq	r0, r0, r8, lsr #2
     dfc:	28530001 	ldmdacs	r3, {r0}^
     e00:	30000001 	andcc	r0, r0, r1
     e04:	01000001 	tsteq	r0, r1
     e08:	01305500 	teqeq	r0, r0, lsl #10
     e0c:	01340000 	teqeq	r4, r0
     e10:	00010000 	andeq	r0, r1, r0
     e14:	00013453 	andeq	r3, r1, r3, asr r4
     e18:	00014400 	andeq	r4, r1, r0, lsl #8
     e1c:	55000100 	strpl	r0, [r0, #-256]	; 0x100
     e20:	00000144 	andeq	r0, r0, r4, asr #2
     e24:	00000154 	andeq	r0, r0, r4, asr r1
     e28:	00530001 	subseq	r0, r3, r1
	...
     e34:	14000001 	strne	r0, [r0], #-1
     e38:	01000001 	tsteq	r0, r1
     e3c:	00005500 	andeq	r5, r0, r0, lsl #10
     e40:	00000000 	andeq	r0, r0, r0
     e44:	01640000 	cmneq	r4, r0
     e48:	01680000 	cmneq	r8, r0
     e4c:	00020000 	andeq	r0, r2, r0
     e50:	0168007d 	smceq	32781	; 0x800d
     e54:	017c0000 	cmneq	ip, r0
     e58:	00020000 	andeq	r0, r2, r0
     e5c:	017c147d 	cmneq	ip, sp, ror r4
     e60:	024c0000 	subeq	r0, ip, #0
     e64:	00030000 	andeq	r0, r3, r0
     e68:	0000c07d 	andeq	ip, r0, sp, ror r0
     e6c:	00000000 	andeq	r0, r0, r0
     e70:	64000000 	strvs	r0, [r0], #-0
     e74:	84000001 	strhi	r0, [r0], #-1
     e78:	01000001 	tsteq	r0, r1
     e7c:	01845000 	orreq	r5, r4, r0
     e80:	01d80000 	bicseq	r0, r8, r0
     e84:	00010000 	andeq	r0, r1, r0
     e88:	0001d85c 	andeq	sp, r1, ip, asr r8
     e8c:	0001e800 	andeq	lr, r1, r0, lsl #16
     e90:	52000100 	andpl	r0, r0, #0
     e94:	000001e8 	andeq	r0, r0, r8, ror #3
     e98:	000001fc 	strdeq	r0, [r0], -ip
     e9c:	005c0001 	subseq	r0, ip, r1
     ea0:	00000000 	andeq	r0, r0, r0
     ea4:	64000000 	strvs	r0, [r0], #-0
     ea8:	84000001 	strhi	r0, [r0], #-1
     eac:	01000001 	tsteq	r0, r1
     eb0:	01845100 	orreq	r5, r4, r0, lsl #2
     eb4:	024c0000 	subeq	r0, ip, #0
     eb8:	00010000 	andeq	r0, r1, r0
     ebc:	00000056 	andeq	r0, r0, r6, asr r0
     ec0:	00000000 	andeq	r0, r0, r0
     ec4:	00016400 	andeq	r6, r1, r0, lsl #8
     ec8:	0001a000 	andeq	sl, r1, r0
     ecc:	30000200 	andcc	r0, r0, r0, lsl #4
     ed0:	0001a09f 	muleq	r1, pc, r0	; <UNPREDICTABLE>
     ed4:	0001b000 	andeq	fp, r1, r0
     ed8:	31000200 	mrscc	r0, R8_usr
     edc:	0001b09f 	muleq	r1, pc, r0	; <UNPREDICTABLE>
     ee0:	00020400 	andeq	r0, r2, r0, lsl #8
     ee4:	57000100 	strpl	r0, [r0, -r0, lsl #2]
	...
     ef0:	000001b0 			; <UNDEFINED> instruction: 0x000001b0
     ef4:	000001c0 	andeq	r0, r0, r0, asr #3
     ef8:	9f300002 	svcls	0x00300002
     efc:	000001c0 	andeq	r0, r0, r0, asr #3
     f00:	000001c4 	andeq	r0, r0, r4, asr #3
     f04:	d8540001 	ldmdale	r4, {r0}^
     f08:	08000001 	stmdaeq	r0, {r0}
     f0c:	01000002 	tsteq	r0, r2
     f10:	02085400 	andeq	r5, r8, #0
     f14:	02300000 	eorseq	r0, r0, #0
     f18:	00010000 	andeq	r0, r1, r0
     f1c:	00000053 	andeq	r0, r0, r3, asr r0
     f20:	00000000 	andeq	r0, r0, r0
     f24:	0001fc00 	andeq	pc, r1, r0, lsl #24
     f28:	00020800 	andeq	r0, r2, r0, lsl #16
     f2c:	30000200 	andcc	r0, r0, r0, lsl #4
     f30:	0002089f 	muleq	r2, pc, r8	; <UNPREDICTABLE>
     f34:	00021400 	andeq	r1, r2, r0, lsl #8
     f38:	57000100 	strpl	r0, [r0, -r0, lsl #2]
	...
     f44:	0000024c 	andeq	r0, r0, ip, asr #4
     f48:	00000250 	andeq	r0, r0, r0, asr r2
     f4c:	007d0002 	rsbseq	r0, sp, r2
     f50:	00000250 	andeq	r0, r0, r0, asr r2
     f54:	00000254 	andeq	r0, r0, r4, asr r2
     f58:	107d0002 	rsbsne	r0, sp, r2
     f5c:	00000254 	andeq	r0, r0, r4, asr r2
     f60:	00000258 	andeq	r0, r0, r8, asr r2
     f64:	307d0002 	rsbscc	r0, sp, r2
     f68:	00000258 	andeq	r0, r0, r8, asr r2
     f6c:	0000051c 	andeq	r0, r0, ip, lsl r5
     f70:	c87d0003 	ldmdagt	sp!, {r0, r1}^
	...
     f7c:	00024c00 	andeq	r4, r2, r0, lsl #24
     f80:	00026400 	andeq	r6, r2, r0, lsl #8
     f84:	91000200 	mrsls	r0, R8_usr
     f88:	00026470 	andeq	r6, r2, r0, ror r4
     f8c:	00028800 	andeq	r8, r2, r0, lsl #16
     f90:	91000200 	mrsls	r0, R8_usr
     f94:	00028848 	andeq	r8, r2, r8, asr #16
     f98:	0002a400 	andeq	sl, r2, r0, lsl #8
     f9c:	54000100 	strpl	r0, [r0], #-256	; 0x100
     fa0:	000002a4 	andeq	r0, r0, r4, lsr #5
     fa4:	000002bc 			; <UNDEFINED> instruction: 0x000002bc
     fa8:	01740003 	cmneq	r4, r3
     fac:	0002c49f 	muleq	r2, pc, r4	; <UNPREDICTABLE>
     fb0:	00051c00 	andeq	r1, r5, r0, lsl #24
     fb4:	54000100 	strpl	r0, [r0], #-256	; 0x100
	...
     fc0:	0000024c 	andeq	r0, r0, ip, asr #4
     fc4:	00000288 	andeq	r0, r0, r8, lsl #5
     fc8:	40030006 	andmi	r0, r3, r6
     fcc:	9f000032 	svcls	0x00000032
     fd0:	00000288 	andeq	r0, r0, r8, lsl #5
     fd4:	00000298 	muleq	r0, r8, r2
     fd8:	38550001 	ldmdacc	r5, {r0}^
     fdc:	50000003 	andpl	r0, r0, r3
     fe0:	01000003 	tsteq	r0, r3
     fe4:	03bc5500 			; <UNDEFINED> instruction: 0x03bc5500
     fe8:	03c00000 	biceq	r0, r0, #0
     fec:	00010000 	andeq	r0, r1, r0
     ff0:	00040c55 	andeq	r0, r4, r5, asr ip
     ff4:	00041000 	andeq	r1, r4, r0
     ff8:	55000100 	strpl	r0, [r0, #-256]	; 0x100
     ffc:	0000047c 	andeq	r0, r0, ip, ror r4
    1000:	00000480 	andeq	r0, r0, r0, lsl #9
    1004:	9c550001 	mrrcls	0, 0, r0, r5, cr1
    1008:	a8000004 	stmdage	r0, {r2}
    100c:	03000004 	movweq	r0, #4
    1010:	9f017500 	svcls	0x00017500
    1014:	000004a8 	andeq	r0, r0, r8, lsr #9
    1018:	000004ac 	andeq	r0, r0, ip, lsr #9
    101c:	14550001 	ldrbne	r0, [r5], #-1
    1020:	1c000005 	stcne	0, cr0, [r0], {5}
    1024:	01000005 	tsteq	r0, r5
    1028:	00005500 	andeq	r5, r0, r0, lsl #10
    102c:	00000000 	andeq	r0, r0, r0
    1030:	03d40000 	bicseq	r0, r4, #0
    1034:	04100000 	ldreq	r0, [r0], #-0
    1038:	00040000 	andeq	r0, r4, r0
    103c:	067fa491 			; <UNDEFINED> instruction: 0x067fa491
	...
    1048:	000002c0 	andeq	r0, r0, r0, asr #5
    104c:	0000032c 	andeq	r0, r0, ip, lsr #6
    1050:	50570001 	subspl	r0, r7, r1
    1054:	1c000003 	stcne	0, cr0, [r0], {3}
    1058:	01000005 	tsteq	r0, r5
    105c:	00005700 	andeq	r5, r0, r0, lsl #14
    1060:	00000000 	andeq	r0, r0, r0
    1064:	024c0000 	subeq	r0, ip, #0
    1068:	02880000 	addeq	r0, r8, #0
    106c:	00020000 	andeq	r0, r2, r0
    1070:	038c9f30 	orreq	r9, ip, #192	; 0xc0
    1074:	03a40000 			; <UNDEFINED> instruction: 0x03a40000
    1078:	00010000 	andeq	r0, r1, r0
    107c:	0003a45a 	andeq	sl, r3, sl, asr r4
    1080:	0003c000 	andeq	ip, r3, r0
    1084:	50000100 	andpl	r0, r0, r0, lsl #2
    1088:	0000044c 	andeq	r0, r0, ip, asr #8
    108c:	00000464 	andeq	r0, r0, r4, ror #8
    1090:	645a0001 	ldrbvs	r0, [sl], #-1
    1094:	80000004 	andhi	r0, r0, r4
    1098:	01000004 	tsteq	r0, r4
    109c:	04e45000 	strbteq	r5, [r4], #0
    10a0:	04fc0000 	ldrbteq	r0, [ip], #0
    10a4:	00010000 	andeq	r0, r1, r0
    10a8:	0004fc5a 	andeq	pc, r4, sl, asr ip	; <UNPREDICTABLE>
    10ac:	00051c00 	andeq	r1, r5, r0, lsl #24
    10b0:	50000100 	andpl	r0, r0, r0, lsl #2
	...
    10bc:	0000036c 	andeq	r0, r0, ip, ror #6
    10c0:	000003c0 	andeq	r0, r0, r0, asr #7
    10c4:	00560001 	subseq	r0, r6, r1
    10c8:	00000000 	andeq	r0, r0, r0
    10cc:	6c000000 	stcvs	0, cr0, [r0], {-0}
    10d0:	7c000003 	stcvc	0, cr0, [r0], {3}
    10d4:	01000003 	tsteq	r0, r3
    10d8:	037c5600 	cmneq	ip, #0
    10dc:	03800000 	orreq	r0, r0, #0
    10e0:	00010000 	andeq	r0, r1, r0
    10e4:	0003805a 	andeq	r8, r3, sl, asr r0
    10e8:	00038c00 	andeq	r8, r3, r0, lsl #24
    10ec:	7a000300 	bvc	1cf4 <print_align+0x44>
    10f0:	00009f7f 	andeq	r9, r0, pc, ror pc
    10f4:	00000000 	andeq	r0, r0, r0
    10f8:	03a40000 			; <UNDEFINED> instruction: 0x03a40000
    10fc:	03a80000 			; <UNDEFINED> instruction: 0x03a80000
    1100:	00010000 	andeq	r0, r1, r0
    1104:	00000056 	andeq	r0, r0, r6, asr r0
    1108:	00000000 	andeq	r0, r0, r0
    110c:	0003a400 	andeq	sl, r3, r0, lsl #8
    1110:	0003a800 	andeq	sl, r3, r0, lsl #16
    1114:	55000100 	strpl	r0, [r0, #-256]	; 0x100
    1118:	000003a8 	andeq	r0, r0, r8, lsr #7
    111c:	000003c0 	andeq	r0, r0, r0, asr #7
    1120:	00510001 	subseq	r0, r1, r1
    1124:	00000000 	andeq	r0, r0, r0
    1128:	a4000000 	strge	r0, [r0], #-0
    112c:	bc000003 	stclt	0, cr0, [r0], {3}
    1130:	01000003 	tsteq	r0, r3
    1134:	00005500 	andeq	r5, r0, r0, lsl #10
    1138:	00000000 	andeq	r0, r0, r0
    113c:	03d40000 	bicseq	r0, r4, #0
    1140:	03d80000 	bicseq	r0, r8, #0
    1144:	00040000 	andeq	r0, r4, r0
    1148:	067fa491 			; <UNDEFINED> instruction: 0x067fa491
	...
    1154:	000003d4 	ldrdeq	r0, [r0], -r4
    1158:	000003d8 	ldrdeq	r0, [r0], -r8
    115c:	d8550001 	ldmdale	r5, {r0}^
    1160:	10000003 	andne	r0, r0, r3
    1164:	01000004 	tsteq	r0, r4
    1168:	00005100 	andeq	r5, r0, r0, lsl #2
    116c:	00000000 	andeq	r0, r0, r0
    1170:	03d40000 	bicseq	r0, r4, #0
    1174:	040c0000 	streq	r0, [ip], #-0
    1178:	00010000 	andeq	r0, r1, r0
    117c:	00000055 	andeq	r0, r0, r5, asr r0
    1180:	00000000 	andeq	r0, r0, r0
    1184:	0003e800 	andeq	lr, r3, r0, lsl #16
    1188:	0003f800 	andeq	pc, r3, r0, lsl #16
    118c:	91000400 	tstls	r0, r0, lsl #8
    1190:	f8067fa4 			; <UNDEFINED> instruction: 0xf8067fa4
    1194:	fc000003 	stc2	0, cr0, [r0], {3}
    1198:	01000003 	tsteq	r0, r3
    119c:	03fc5300 	mvnseq	r5, #0
    11a0:	04080000 	streq	r0, [r8], #-0
    11a4:	00030000 	andeq	r0, r3, r0
    11a8:	009f7f73 	addseq	r7, pc, r3, ror pc	; <UNPREDICTABLE>
    11ac:	00000000 	andeq	r0, r0, r0
    11b0:	2c000000 	stccs	0, cr0, [r0], {-0}
    11b4:	80000004 	andhi	r0, r0, r4
    11b8:	01000004 	tsteq	r0, r4
    11bc:	00005600 	andeq	r5, r0, r0, lsl #12
    11c0:	00000000 	andeq	r0, r0, r0
    11c4:	042c0000 	strteq	r0, [ip], #-0
    11c8:	043c0000 	ldrteq	r0, [ip], #-0
    11cc:	00010000 	andeq	r0, r1, r0
    11d0:	00043c56 	andeq	r3, r4, r6, asr ip
    11d4:	00044000 	andeq	r4, r4, r0
    11d8:	5a000100 	bpl	15e0 <set_copro_default>
    11dc:	00000440 	andeq	r0, r0, r0, asr #8
    11e0:	0000044c 	andeq	r0, r0, ip, asr #8
    11e4:	7f7a0003 	svcvc	0x007a0003
    11e8:	0000009f 	muleq	r0, pc, r0	; <UNPREDICTABLE>
    11ec:	00000000 	andeq	r0, r0, r0
    11f0:	00046400 	andeq	r6, r4, r0, lsl #8
    11f4:	00046800 	andeq	r6, r4, r0, lsl #16
    11f8:	56000100 	strpl	r0, [r0], -r0, lsl #2
	...
    1204:	00000464 	andeq	r0, r0, r4, ror #8
    1208:	00000468 	andeq	r0, r0, r8, ror #8
    120c:	68550001 	ldmdavs	r5, {r0}^
    1210:	80000004 	andhi	r0, r0, r4
    1214:	01000004 	tsteq	r0, r4
    1218:	00005100 	andeq	r5, r0, r0, lsl #2
    121c:	00000000 	andeq	r0, r0, r0
    1220:	04640000 	strbteq	r0, [r4], #-0
    1224:	047c0000 	ldrbteq	r0, [ip], #-0
    1228:	00010000 	andeq	r0, r1, r0
    122c:	00000055 	andeq	r0, r0, r5, asr r0
    1230:	00000000 	andeq	r0, r0, r0
    1234:	0004c400 	andeq	ip, r4, r0, lsl #8
    1238:	0004d400 	andeq	sp, r4, r0, lsl #8
    123c:	56000100 	strpl	r0, [r0], -r0, lsl #2
    1240:	000004d4 	ldrdeq	r0, [r0], -r4
    1244:	000004d8 	ldrdeq	r0, [r0], -r8
    1248:	d85a0001 	ldmdale	sl, {r0}^
    124c:	e4000004 	str	r0, [r0], #-4
    1250:	03000004 	movweq	r0, #4
    1254:	9f7f7a00 	svcls	0x007f7a00
	...
    1260:	000004fc 	strdeq	r0, [r0], -ip
    1264:	00000500 	andeq	r0, r0, r0, lsl #10
    1268:	00560001 	subseq	r0, r6, r1
    126c:	00000000 	andeq	r0, r0, r0
    1270:	fc000000 	stc2	0, cr0, [r0], {-0}
    1274:	00000004 	andeq	r0, r0, r4
    1278:	01000005 	tsteq	r0, r5
    127c:	05005500 	streq	r5, [r0, #-1280]	; 0x500
    1280:	051c0000 	ldreq	r0, [ip, #-0]
    1284:	00010000 	andeq	r0, r1, r0
    1288:	00000051 	andeq	r0, r0, r1, asr r0
    128c:	00000000 	andeq	r0, r0, r0
    1290:	0004fc00 	andeq	pc, r4, r0, lsl #24
    1294:	00051400 	andeq	r1, r5, r0, lsl #8
    1298:	55000100 	strpl	r0, [r0, #-256]	; 0x100
	...
    12a4:	0000051c 	andeq	r0, r0, ip, lsl r5
    12a8:	00000520 	andeq	r0, r0, r0, lsr #10
    12ac:	007d0002 	rsbseq	r0, sp, r2
    12b0:	00000520 	andeq	r0, r0, r0, lsr #10
    12b4:	00000524 	andeq	r0, r0, r4, lsr #10
    12b8:	107d0002 	rsbsne	r0, sp, r2
    12bc:	00000524 	andeq	r0, r0, r4, lsr #10
    12c0:	00000528 	andeq	r0, r0, r8, lsr #10
    12c4:	307d0002 	rsbscc	r0, sp, r2
    12c8:	00000528 	andeq	r0, r0, r8, lsr #10
    12cc:	000007ec 	andeq	r0, r0, ip, ror #15
    12d0:	c87d0003 	ldmdagt	sp!, {r0, r1}^
	...
    12dc:	00051c00 	andeq	r1, r5, r0, lsl #24
    12e0:	00053400 	andeq	r3, r5, r0, lsl #8
    12e4:	91000200 	mrsls	r0, R8_usr
    12e8:	00053470 	andeq	r3, r5, r0, ror r4
    12ec:	00055800 	andeq	r5, r5, r0, lsl #16
    12f0:	91000200 	mrsls	r0, R8_usr
    12f4:	00055848 	andeq	r5, r5, r8, asr #16
    12f8:	00057400 	andeq	r7, r5, r0, lsl #8
    12fc:	54000100 	strpl	r0, [r0], #-256	; 0x100
    1300:	00000574 	andeq	r0, r0, r4, ror r5
    1304:	0000058c 	andeq	r0, r0, ip, lsl #11
    1308:	01740003 	cmneq	r4, r3
    130c:	0005949f 	muleq	r5, pc, r4	; <UNPREDICTABLE>
    1310:	0007ec00 	andeq	lr, r7, r0, lsl #24
    1314:	54000100 	strpl	r0, [r0], #-256	; 0x100
	...
    1320:	0000051c 	andeq	r0, r0, ip, lsl r5
    1324:	00000558 	andeq	r0, r0, r8, asr r5
    1328:	40030006 	andmi	r0, r3, r6
    132c:	9f000032 	svcls	0x00000032
    1330:	00000558 	andeq	r0, r0, r8, asr r5
    1334:	00000568 	andeq	r0, r0, r8, ror #10
    1338:	08550001 	ldmdaeq	r5, {r0}^
    133c:	20000006 	andcs	r0, r0, r6
    1340:	01000006 	tsteq	r0, r6
    1344:	068c5500 	streq	r5, [ip], r0, lsl #10
    1348:	06900000 	ldreq	r0, [r0], r0
    134c:	00010000 	andeq	r0, r1, r0
    1350:	0006dc55 	andeq	sp, r6, r5, asr ip
    1354:	0006e000 	andeq	lr, r6, r0
    1358:	55000100 	strpl	r0, [r0, #-256]	; 0x100
    135c:	0000074c 	andeq	r0, r0, ip, asr #14
    1360:	00000750 	andeq	r0, r0, r0, asr r7
    1364:	6c550001 	mrrcvs	0, 0, r0, r5, cr1
    1368:	78000007 	stmdavc	r0, {r0, r1, r2}
    136c:	03000007 	movweq	r0, #7
    1370:	9f017500 	svcls	0x00017500
    1374:	00000778 	andeq	r0, r0, r8, ror r7
    1378:	0000077c 	andeq	r0, r0, ip, ror r7
    137c:	e4550001 	ldrb	r0, [r5], #-1
    1380:	ec000007 	stc	0, cr0, [r0], {7}
    1384:	01000007 	tsteq	r0, r7
    1388:	00005500 	andeq	r5, r0, r0, lsl #10
    138c:	00000000 	andeq	r0, r0, r0
    1390:	06a40000 	strteq	r0, [r4], r0
    1394:	06e00000 	strbteq	r0, [r0], r0
    1398:	00040000 	andeq	r0, r4, r0
    139c:	067fa491 			; <UNDEFINED> instruction: 0x067fa491
	...
    13a8:	00000590 	muleq	r0, r0, r5
    13ac:	000005fc 	strdeq	r0, [r0], -ip
    13b0:	20570001 	subscs	r0, r7, r1
    13b4:	ec000006 	stc	0, cr0, [r0], {6}
    13b8:	01000007 	tsteq	r0, r7
    13bc:	00005700 	andeq	r5, r0, r0, lsl #14
    13c0:	00000000 	andeq	r0, r0, r0
    13c4:	051c0000 	ldreq	r0, [ip, #-0]
    13c8:	05580000 	ldrbeq	r0, [r8, #-0]
    13cc:	00020000 	andeq	r0, r2, r0
    13d0:	065c9f30 	uasxeq	r9, ip, r0
    13d4:	06740000 	ldrbteq	r0, [r4], -r0
    13d8:	00010000 	andeq	r0, r1, r0
    13dc:	0006745a 	andeq	r7, r6, sl, asr r4
    13e0:	00069000 	andeq	r9, r6, r0
    13e4:	50000100 	andpl	r0, r0, r0, lsl #2
    13e8:	0000071c 	andeq	r0, r0, ip, lsl r7
    13ec:	00000734 	andeq	r0, r0, r4, lsr r7
    13f0:	345a0001 	ldrbcc	r0, [sl], #-1
    13f4:	50000007 	andpl	r0, r0, r7
    13f8:	01000007 	tsteq	r0, r7
    13fc:	07b45000 	ldreq	r5, [r4, r0]!
    1400:	07cc0000 	strbeq	r0, [ip, r0]
    1404:	00010000 	andeq	r0, r1, r0
    1408:	0007cc5a 	andeq	ip, r7, sl, asr ip
    140c:	0007ec00 	andeq	lr, r7, r0, lsl #24
    1410:	50000100 	andpl	r0, r0, r0, lsl #2
	...
    141c:	0000063c 	andeq	r0, r0, ip, lsr r6
    1420:	00000690 	muleq	r0, r0, r6
    1424:	00560001 	subseq	r0, r6, r1
    1428:	00000000 	andeq	r0, r0, r0
    142c:	3c000000 	stccc	0, cr0, [r0], {-0}
    1430:	4c000006 	stcmi	0, cr0, [r0], {6}
    1434:	01000006 	tsteq	r0, r6
    1438:	064c5600 	strbeq	r5, [ip], -r0, lsl #12
    143c:	06500000 	ldrbeq	r0, [r0], -r0
    1440:	00010000 	andeq	r0, r1, r0
    1444:	0006505a 	andeq	r5, r6, sl, asr r0
    1448:	00065c00 	andeq	r5, r6, r0, lsl #24
    144c:	7a000300 	bvc	2054 <printk+0x214>
    1450:	00009f7f 	andeq	r9, r0, pc, ror pc
    1454:	00000000 	andeq	r0, r0, r0
    1458:	06740000 	ldrbteq	r0, [r4], -r0
    145c:	06780000 	ldrbteq	r0, [r8], -r0
    1460:	00010000 	andeq	r0, r1, r0
    1464:	00000056 	andeq	r0, r0, r6, asr r0
    1468:	00000000 	andeq	r0, r0, r0
    146c:	00067400 	andeq	r7, r6, r0, lsl #8
    1470:	00067800 	andeq	r7, r6, r0, lsl #16
    1474:	55000100 	strpl	r0, [r0, #-256]	; 0x100
    1478:	00000678 	andeq	r0, r0, r8, ror r6
    147c:	00000690 	muleq	r0, r0, r6
    1480:	00510001 	subseq	r0, r1, r1
    1484:	00000000 	andeq	r0, r0, r0
    1488:	74000000 	strvc	r0, [r0], #-0
    148c:	8c000006 	stchi	0, cr0, [r0], {6}
    1490:	01000006 	tsteq	r0, r6
    1494:	00005500 	andeq	r5, r0, r0, lsl #10
    1498:	00000000 	andeq	r0, r0, r0
    149c:	06a40000 	strteq	r0, [r4], r0
    14a0:	06a80000 	strteq	r0, [r8], r0
    14a4:	00040000 	andeq	r0, r4, r0
    14a8:	067fa491 			; <UNDEFINED> instruction: 0x067fa491
	...
    14b4:	000006a4 	andeq	r0, r0, r4, lsr #13
    14b8:	000006a8 	andeq	r0, r0, r8, lsr #13
    14bc:	a8550001 	ldmdage	r5, {r0}^
    14c0:	e0000006 	and	r0, r0, r6
    14c4:	01000006 	tsteq	r0, r6
    14c8:	00005100 	andeq	r5, r0, r0, lsl #2
    14cc:	00000000 	andeq	r0, r0, r0
    14d0:	06a40000 	strteq	r0, [r4], r0
    14d4:	06dc0000 	ldrbeq	r0, [ip], r0
    14d8:	00010000 	andeq	r0, r1, r0
    14dc:	00000055 	andeq	r0, r0, r5, asr r0
    14e0:	00000000 	andeq	r0, r0, r0
    14e4:	0006b800 	andeq	fp, r6, r0, lsl #16
    14e8:	0006c800 	andeq	ip, r6, r0, lsl #16
    14ec:	91000400 	tstls	r0, r0, lsl #8
    14f0:	c8067fa4 	stmdagt	r6, {r2, r5, r7, r8, r9, sl, fp, ip, sp, lr}
    14f4:	cc000006 	stcgt	0, cr0, [r0], {6}
    14f8:	01000006 	tsteq	r0, r6
    14fc:	06cc5300 	strbeq	r5, [ip], r0, lsl #6
    1500:	06d80000 	ldrbeq	r0, [r8], r0
    1504:	00030000 	andeq	r0, r3, r0
    1508:	009f7f73 	addseq	r7, pc, r3, ror pc	; <UNPREDICTABLE>
    150c:	00000000 	andeq	r0, r0, r0
    1510:	fc000000 	stc2	0, cr0, [r0], {-0}
    1514:	50000006 	andpl	r0, r0, r6
    1518:	01000007 	tsteq	r0, r7
    151c:	00005600 	andeq	r5, r0, r0, lsl #12
    1520:	00000000 	andeq	r0, r0, r0
    1524:	06fc0000 	ldrbteq	r0, [ip], r0
    1528:	070c0000 	streq	r0, [ip, -r0]
    152c:	00010000 	andeq	r0, r1, r0
    1530:	00070c56 	andeq	r0, r7, r6, asr ip
    1534:	00071000 	andeq	r1, r7, r0
    1538:	5a000100 	bpl	1940 <serial_puts_nommu+0x78>
    153c:	00000710 	andeq	r0, r0, r0, lsl r7
    1540:	0000071c 	andeq	r0, r0, ip, lsl r7
    1544:	7f7a0003 	svcvc	0x007a0003
    1548:	0000009f 	muleq	r0, pc, r0	; <UNPREDICTABLE>
    154c:	00000000 	andeq	r0, r0, r0
    1550:	00073400 	andeq	r3, r7, r0, lsl #8
    1554:	00073800 	andeq	r3, r7, r0, lsl #16
    1558:	56000100 	strpl	r0, [r0], -r0, lsl #2
	...
    1564:	00000734 	andeq	r0, r0, r4, lsr r7
    1568:	00000738 	andeq	r0, r0, r8, lsr r7
    156c:	38550001 	ldmdacc	r5, {r0}^
    1570:	50000007 	andpl	r0, r0, r7
    1574:	01000007 	tsteq	r0, r7
    1578:	00005100 	andeq	r5, r0, r0, lsl #2
    157c:	00000000 	andeq	r0, r0, r0
    1580:	07340000 	ldreq	r0, [r4, -r0]!
    1584:	074c0000 	strbeq	r0, [ip, -r0]
    1588:	00010000 	andeq	r0, r1, r0
    158c:	00000055 	andeq	r0, r0, r5, asr r0
    1590:	00000000 	andeq	r0, r0, r0
    1594:	00079400 	andeq	r9, r7, r0, lsl #8
    1598:	0007a400 	andeq	sl, r7, r0, lsl #8
    159c:	56000100 	strpl	r0, [r0], -r0, lsl #2
    15a0:	000007a4 	andeq	r0, r0, r4, lsr #15
    15a4:	000007a8 	andeq	r0, r0, r8, lsr #15
    15a8:	a85a0001 	ldmdage	sl, {r0}^
    15ac:	b4000007 	strlt	r0, [r0], #-7
    15b0:	03000007 	movweq	r0, #7
    15b4:	9f7f7a00 	svcls	0x007f7a00
	...
    15c0:	000007cc 	andeq	r0, r0, ip, asr #15
    15c4:	000007d0 	ldrdeq	r0, [r0], -r0	; <UNPREDICTABLE>
    15c8:	00560001 	subseq	r0, r6, r1
    15cc:	00000000 	andeq	r0, r0, r0
    15d0:	cc000000 	stcgt	0, cr0, [r0], {-0}
    15d4:	d0000007 	andle	r0, r0, r7
    15d8:	01000007 	tsteq	r0, r7
    15dc:	07d05500 	ldrbeq	r5, [r0, r0, lsl #10]
    15e0:	07ec0000 	strbeq	r0, [ip, r0]!
    15e4:	00010000 	andeq	r0, r1, r0
    15e8:	00000051 	andeq	r0, r0, r1, asr r0
    15ec:	00000000 	andeq	r0, r0, r0
    15f0:	0007cc00 	andeq	ip, r7, r0, lsl #24
    15f4:	0007e400 	andeq	lr, r7, r0, lsl #8
    15f8:	55000100 	strpl	r0, [r0, #-256]	; 0x100
	...
    1604:	0000000c 	andeq	r0, r0, ip
    1608:	00000054 	andeq	r0, r0, r4, asr r0
    160c:	00500001 	subseq	r0, r0, r1
    1610:	00000000 	andeq	r0, r0, r0
    1614:	0c000000 	stceq	0, cr0, [r0], {-0}
    1618:	20000000 	andcs	r0, r0, r0
    161c:	01000000 	mrseq	r0, (UNDEF: 0)
    1620:	00005100 	andeq	r5, r0, r0, lsl #2
    1624:	00000000 	andeq	r0, r0, r0
    1628:	000c0000 	andeq	r0, ip, r0
    162c:	00200000 	eoreq	r0, r0, r0
    1630:	00010000 	andeq	r0, r1, r0
    1634:	00002051 	andeq	r2, r0, r1, asr r0
    1638:	00002400 	andeq	r2, r0, r0, lsl #8
    163c:	71000500 	tstvc	r0, r0, lsl #10
    1640:	9f243100 	svcls	0x00243100
    1644:	00000024 	andeq	r0, r0, r4, lsr #32
    1648:	00000028 	andeq	r0, r0, r8, lsr #32
    164c:	30510001 	subscc	r0, r1, r1
    1650:	58000000 	stmdapl	r0, {}	; <UNPREDICTABLE>
    1654:	01000000 	mrseq	r0, (UNDEF: 0)
    1658:	00005100 	andeq	r5, r0, r0, lsl #2
    165c:	00000000 	andeq	r0, r0, r0
    1660:	000c0000 	andeq	r0, ip, r0
    1664:	00300000 	eorseq	r0, r0, r0
    1668:	00020000 	andeq	r0, r2, r0
    166c:	00309f30 	eorseq	r9, r0, r0, lsr pc
    1670:	00400000 	subeq	r0, r0, r0
    1674:	00010000 	andeq	r0, r1, r0
    1678:	00004452 	andeq	r4, r0, r2, asr r4
    167c:	00005000 	andeq	r5, r0, r0
    1680:	52000100 	andpl	r0, r0, #0
	...
    168c:	0000000c 	andeq	r0, r0, ip
    1690:	00000020 	andeq	r0, r0, r0, lsr #32
    1694:	9f300002 	svcls	0x00300002
    1698:	00000028 	andeq	r0, r0, r8, lsr #32
    169c:	0000002c 	andeq	r0, r0, ip, lsr #32
    16a0:	30530001 	subscc	r0, r3, r1
    16a4:	48000000 	stmdami	r0, {}	; <UNPREDICTABLE>
    16a8:	01000000 	mrseq	r0, (UNDEF: 0)
    16ac:	00005300 	andeq	r5, r0, r0, lsl #6
	...
    16b8:	00100000 	andseq	r0, r0, r0
    16bc:	00020000 	andeq	r0, r2, r0
    16c0:	0010007d 	andseq	r0, r0, sp, ror r0
    16c4:	00900000 	addseq	r0, r0, r0
    16c8:	00020000 	andeq	r0, r2, r0
    16cc:	0000087d 	andeq	r0, r0, sp, ror r8
	...
    16d8:	00300000 	eorseq	r0, r0, r0
    16dc:	00020000 	andeq	r0, r2, r0
    16e0:	006c9f30 	rsbeq	r9, ip, r0, lsr pc
    16e4:	007f0000 	rsbseq	r0, pc, r0
    16e8:	00010000 	andeq	r0, r1, r0
    16ec:	00000051 	andeq	r0, r0, r1, asr r0
    16f0:	00000000 	andeq	r0, r0, r0
    16f4:	00009000 	andeq	r9, r0, r0
    16f8:	00009800 	andeq	r9, r0, r0, lsl #16
    16fc:	7d000200 	sfmvc	f0, 4, [r0, #-0]
    1700:	00009800 	andeq	r9, r0, r0, lsl #16
    1704:	0000e400 	andeq	lr, r0, r0, lsl #8
    1708:	7d000200 	sfmvc	f0, 4, [r0, #-0]
    170c:	00000008 	andeq	r0, r0, r8
    1710:	00000000 	andeq	r0, r0, r0
    1714:	00009000 	andeq	r9, r0, r0
    1718:	0000b000 	andeq	fp, r0, r0
    171c:	30000200 	andcc	r0, r0, r0, lsl #4
    1720:	0000cc9f 	muleq	r0, pc, ip	; <UNPREDICTABLE>
    1724:	0000e400 	andeq	lr, r0, r0, lsl #8
    1728:	53000100 	movwpl	r0, #256	; 0x100
	...
    1734:	000000a0 	andeq	r0, r0, r0, lsr #1
    1738:	000000b4 	strheq	r0, [r0], -r4
    173c:	74910002 	ldrvc	r0, [r1], #2
    1740:	000000b4 	strheq	r0, [r0], -r4
    1744:	000000bc 	strheq	r0, [r0], -ip
    1748:	bc510001 	mrrclt	0, 0, r0, r1, cr1
    174c:	e4000000 	str	r0, [r0], #-0
    1750:	02000000 	andeq	r0, r0, #0
    1754:	00749100 	rsbseq	r9, r4, r0, lsl #2
    1758:	00000000 	andeq	r0, r0, r0
    175c:	e4000000 	str	r0, [r0], #-0
    1760:	f4000000 	vst4.8	{d0-d3}, [r0], r0
    1764:	01000000 	mrseq	r0, (UNDEF: 0)
    1768:	01345000 	teqeq	r4, r0
    176c:	01380000 	teqeq	r8, r0
    1770:	00010000 	andeq	r0, r1, r0
    1774:	00000050 	andeq	r0, r0, r0, asr r0
    1778:	00000000 	andeq	r0, r0, r0
    177c:	0000e400 	andeq	lr, r0, r0, lsl #8
    1780:	00011800 	andeq	r1, r1, r0, lsl #16
    1784:	70000500 	andvc	r0, r0, r0, lsl #10
    1788:	9f253500 	svcls	0x00253500
    178c:	00000118 	andeq	r0, r0, r8, lsl r1
    1790:	0000011c 	andeq	r0, r0, ip, lsl r1
    1794:	40730003 	rsbsmi	r0, r3, r3
    1798:	0001349f 	muleq	r1, pc, r4	; <UNPREDICTABLE>
    179c:	00013800 	andeq	r3, r1, r0, lsl #16
    17a0:	70000500 	andvc	r0, r0, r0, lsl #10
    17a4:	9f253500 	svcls	0x00253500
	...
    17b0:	000000e4 	andeq	r0, r0, r4, ror #1
    17b4:	00000118 	andeq	r0, r0, r8, lsl r1
    17b8:	00700005 	rsbseq	r0, r0, r5
    17bc:	189f1a4f 	ldmne	pc, {r0, r1, r2, r3, r6, r9, fp, ip}	; <UNPREDICTABLE>
    17c0:	2c000001 	stccs	0, cr0, [r0], {1}
    17c4:	01000001 	tsteq	r0, r1
    17c8:	01345200 	teqeq	r4, r0, lsl #4
    17cc:	01380000 	teqeq	r8, r0
    17d0:	00050000 	andeq	r0, r5, r0
    17d4:	1a4f0070 	bne	13c199c <__bss_end+0x13be44c>
    17d8:	0000009f 	muleq	r0, pc, r0	; <UNPREDICTABLE>
    17dc:	00000000 	andeq	r0, r0, r0
    17e0:	00014000 	andeq	r4, r1, r0
    17e4:	00016c00 	andeq	r6, r1, r0, lsl #24
    17e8:	50000100 	andpl	r0, r0, r0, lsl #2
    17ec:	00000190 	muleq	r0, r0, r1
    17f0:	00000194 	muleq	r0, r4, r1
    17f4:	00500001 	subseq	r0, r0, r1
    17f8:	00000000 	andeq	r0, r0, r0
    17fc:	40000000 	andmi	r0, r0, r0
    1800:	80000001 	andhi	r0, r0, r1
    1804:	02000001 	andeq	r0, r0, #1
    1808:	909f3000 	addsls	r3, pc, r0
    180c:	9c000001 	stcls	0, cr0, [r0], {1}
    1810:	02000001 	andeq	r0, r0, #1
    1814:	009f3000 	addseq	r3, pc, r0
    1818:	00000000 	andeq	r0, r0, r0
    181c:	40000000 	andmi	r0, r0, r0
    1820:	6c000001 	stcvs	0, cr0, [r0], {1}
    1824:	05000001 	streq	r0, [r0, #-1]
    1828:	35007000 	strcc	r7, [r0, #-0]
    182c:	016c9f25 	cmneq	ip, r5, lsr #30
    1830:	01700000 	cmneq	r0, r0
    1834:	00010000 	andeq	r0, r1, r0
    1838:	00017053 	andeq	r7, r1, r3, asr r0
    183c:	00017400 	andeq	r7, r1, r0, lsl #8
    1840:	73000400 	movwvc	r0, #1024	; 0x400
    1844:	909f7f80 	addsls	r7, pc, r0, lsl #31
    1848:	94000001 	strls	r0, [r0], #-1
    184c:	05000001 	streq	r0, [r0, #-1]
    1850:	35007000 	strcc	r7, [r0, #-0]
    1854:	00009f25 	andeq	r9, r0, r5, lsr #30
    1858:	00000000 	andeq	r0, r0, r0
    185c:	01400000 	mrseq	r0, (UNDEF: 64)
    1860:	016c0000 	cmneq	ip, r0
    1864:	00050000 	andeq	r0, r5, r0
    1868:	1a4f0070 	bne	13c1a30 <__bss_end+0x13be4e0>
    186c:	00016c9f 	muleq	r1, pc, ip	; <UNPREDICTABLE>
    1870:	00018c00 	andeq	r8, r1, r0, lsl #24
    1874:	50000100 	andpl	r0, r0, r0, lsl #2
    1878:	00000190 	muleq	r0, r0, r1
    187c:	00000194 	muleq	r0, r4, r1
    1880:	00700005 	rsbseq	r0, r0, r5
    1884:	009f1a4f 	addseq	r1, pc, pc, asr #20
	...
    1890:	0c000000 	stceq	0, cr0, [r0], {-0}
    1894:	01000000 	mrseq	r0, (UNDEF: 0)
    1898:	000c5000 	andeq	r5, ip, r0
    189c:	00140000 	andseq	r0, r4, r0
    18a0:	00030000 	andeq	r0, r3, r0
    18a4:	009f0470 	addseq	r0, pc, r0, ror r4	; <UNPREDICTABLE>
	...
    18b0:	14000000 	strne	r0, [r0], #-0
    18b4:	02000000 	andeq	r0, r0, #0
    18b8:	009f3000 	addseq	r3, pc, r0
    18bc:	00000000 	andeq	r0, r0, r0
    18c0:	2c000000 	stccs	0, cr0, [r0], {-0}
    18c4:	38000000 	stmdacc	r0, {}	; <UNPREDICTABLE>
    18c8:	01000000 	mrseq	r0, (UNDEF: 0)
    18cc:	00385000 	eorseq	r5, r8, r0
    18d0:	00400000 	subeq	r0, r0, r0
    18d4:	00030000 	andeq	r0, r3, r0
    18d8:	009f0470 	addseq	r0, pc, r0, ror r4	; <UNPREDICTABLE>
    18dc:	00000000 	andeq	r0, r0, r0
    18e0:	2c000000 	stccs	0, cr0, [r0], {-0}
    18e4:	40000000 	andmi	r0, r0, r0
    18e8:	02000000 	andeq	r0, r0, #0
    18ec:	009f3000 	addseq	r3, pc, r0
    18f0:	00000000 	andeq	r0, r0, r0
    18f4:	58000000 	stmdapl	r0, {}	; <UNPREDICTABLE>
    18f8:	80000000 	andhi	r0, r0, r0
    18fc:	01000000 	mrseq	r0, (UNDEF: 0)
    1900:	00005000 	andeq	r5, r0, r0
    1904:	00000000 	andeq	r0, r0, r0
    1908:	00580000 	subseq	r0, r8, r0
    190c:	00840000 	addeq	r0, r4, r0
    1910:	00020000 	andeq	r0, r2, r0
    1914:	00009f30 	andeq	r9, r0, r0, lsr pc
	...
    1920:	00100000 	andseq	r0, r0, r0
    1924:	00010000 	andeq	r0, r1, r0
    1928:	00001050 	andeq	r1, r0, r0, asr r0
    192c:	00006000 	andeq	r6, r0, r0
    1930:	52000100 	andpl	r0, r0, #0
	...
    193c:	00000060 	andeq	r0, r0, r0, rrx
    1940:	00000078 	andeq	r0, r0, r8, ror r0
    1944:	78500001 	ldmdavc	r0, {r0}^
    1948:	a8000000 	stmdage	r0, {}	; <UNPREDICTABLE>
    194c:	01000000 	mrseq	r0, (UNDEF: 0)
    1950:	00005200 	andeq	r5, r0, r0, lsl #4
    1954:	00000000 	andeq	r0, r0, r0
    1958:	01980000 	orrseq	r0, r8, r0
    195c:	01b40000 			; <UNDEFINED> instruction: 0x01b40000
    1960:	00010000 	andeq	r0, r1, r0
    1964:	00000050 	andeq	r0, r0, r0, asr r0
	...
    1970:	00001000 	andeq	r1, r0, r0
    1974:	50000100 	andpl	r0, r0, r0, lsl #2
    1978:	00000010 	andeq	r0, r0, r0, lsl r0
    197c:	00000030 	andeq	r0, r0, r0, lsr r0
    1980:	00520001 	subseq	r0, r2, r1
    1984:	00000000 	andeq	r0, r0, r0
    1988:	30000000 	andcc	r0, r0, r0
    198c:	48000000 	stmdami	r0, {}	; <UNPREDICTABLE>
    1990:	01000000 	mrseq	r0, (UNDEF: 0)
    1994:	00485000 	subeq	r5, r8, r0
    1998:	00500000 	subseq	r0, r0, r0
    199c:	00010000 	andeq	r0, r1, r0
    19a0:	00000052 	andeq	r0, r0, r2, asr r0
	...
    19ac:	00001800 	andeq	r1, r0, r0, lsl #16
    19b0:	50000100 	andpl	r0, r0, r0, lsl #2
	...
    19bc:	00000030 	andeq	r0, r0, r0, lsr r0
    19c0:	00000034 	andeq	r0, r0, r4, lsr r0
    19c4:	007d0002 	rsbseq	r0, sp, r2
    19c8:	00000034 	andeq	r0, r0, r4, lsr r0
    19cc:	000000ac 	andeq	r0, r0, ip, lsr #1
    19d0:	087d0002 	ldmdaeq	sp!, {r1}^
	...
    19dc:	00000030 	andeq	r0, r0, r0, lsr r0
    19e0:	00000084 	andeq	r0, r0, r4, lsl #1
    19e4:	88500001 	ldmdahi	r0, {r0}^
    19e8:	90000000 	andls	r0, r0, r0
    19ec:	01000000 	mrseq	r0, (UNDEF: 0)
    19f0:	009c5000 	addseq	r5, ip, r0
    19f4:	00a00000 	adceq	r0, r0, r0
    19f8:	00010000 	andeq	r0, r1, r0
    19fc:	00000050 	andeq	r0, r0, r0, asr r0
    1a00:	00000000 	andeq	r0, r0, r0
    1a04:	00003000 	andeq	r3, r0, r0
    1a08:	00006400 	andeq	r6, r0, r0, lsl #8
    1a0c:	51000100 	mrspl	r0, (UNDEF: 16)
    1a10:	0000009c 	muleq	r0, ip, r0
    1a14:	000000ac 	andeq	r0, r0, ip, lsr #1
    1a18:	00510001 	subseq	r0, r1, r1
    1a1c:	00000000 	andeq	r0, r0, r0
    1a20:	30000000 	andcc	r0, r0, r0
    1a24:	64000000 	strvs	r0, [r0], #-0
    1a28:	05000000 	streq	r0, [r0, #-0]
    1a2c:	3a007100 	bcc	1de34 <__bss_end+0x1a8e4>
    1a30:	00649f24 	rsbeq	r9, r4, r4, lsr #30
    1a34:	006c0000 	rsbeq	r0, ip, r0
    1a38:	00010000 	andeq	r0, r1, r0
    1a3c:	00006c51 	andeq	r6, r0, r1, asr ip
    1a40:	00007000 	andeq	r7, r0, r0
    1a44:	71000300 	mrsvc	r0, LR_irq
    1a48:	00709f7f 	rsbseq	r9, r0, pc, ror pc
    1a4c:	00740000 	rsbseq	r0, r4, r0
    1a50:	00010000 	andeq	r0, r1, r0
    1a54:	00007451 	andeq	r7, r0, r1, asr r4
    1a58:	00008800 	andeq	r8, r0, r0, lsl #16
    1a5c:	71000300 	mrsvc	r0, LR_irq
    1a60:	009c9f7f 	addseq	r9, ip, pc, ror pc
    1a64:	00ac0000 	adceq	r0, ip, r0
    1a68:	00050000 	andeq	r0, r5, r0
    1a6c:	243a0071 	ldrtcs	r0, [sl], #-113	; 0x71
    1a70:	0000009f 	muleq	r0, pc, r0	; <UNPREDICTABLE>
    1a74:	00000000 	andeq	r0, r0, r0
    1a78:	00003c00 	andeq	r3, r0, r0, lsl #24
    1a7c:	00009300 	andeq	r9, r0, r0, lsl #6
    1a80:	5c000100 	stfpls	f0, [r0], {-0}
    1a84:	0000009c 	muleq	r0, ip, r0
    1a88:	000000ac 	andeq	r0, r0, ip, lsr #1
    1a8c:	005c0001 	subseq	r0, ip, r1
    1a90:	00000000 	andeq	r0, r0, r0
    1a94:	88000000 	stmdahi	r0, {}	; <UNPREDICTABLE>
    1a98:	93000000 	movwls	r0, #0
    1a9c:	01000000 	mrseq	r0, (UNDEF: 0)
    1aa0:	00005c00 	andeq	r5, r0, r0, lsl #24
    1aa4:	00000000 	andeq	r0, r0, r0
    1aa8:	00ac0000 	adceq	r0, ip, r0
    1aac:	00d80000 	sbcseq	r0, r8, r0
    1ab0:	00010000 	andeq	r0, r1, r0
    1ab4:	00000050 	andeq	r0, r0, r0, asr r0
    1ab8:	00000000 	andeq	r0, r0, r0
    1abc:	0000dc00 	andeq	sp, r0, r0, lsl #24
    1ac0:	00012c00 	andeq	r2, r1, r0, lsl #24
    1ac4:	50000100 	andpl	r0, r0, r0, lsl #2
    1ac8:	00000130 	andeq	r0, r0, r0, lsr r1
    1acc:	00000138 	andeq	r0, r0, r8, lsr r1
    1ad0:	3c500001 	mrrccc	0, 0, r0, r0, cr1	; <UNPREDICTABLE>
    1ad4:	40000001 	andmi	r0, r0, r1
    1ad8:	01000001 	tsteq	r0, r1
    1adc:	00005000 	andeq	r5, r0, r0
    1ae0:	00000000 	andeq	r0, r0, r0
    1ae4:	00dc0000 	sbcseq	r0, ip, r0
    1ae8:	010c0000 	mrseq	r0, (UNDEF: 12)
    1aec:	00010000 	andeq	r0, r1, r0
    1af0:	00013c51 	andeq	r3, r1, r1, asr ip
    1af4:	00014800 	andeq	r4, r1, r0, lsl #16
    1af8:	51000100 	mrspl	r0, (UNDEF: 16)
	...
    1b04:	000000dc 	ldrdeq	r0, [r0], -ip
    1b08:	0000010c 	andeq	r0, r0, ip, lsl #2
    1b0c:	00710005 	rsbseq	r0, r1, r5
    1b10:	0c9f243a 	cfldrseq	mvf2, [pc], {58}	; 0x3a
    1b14:	14000001 	strne	r0, [r0], #-1
    1b18:	01000001 	tsteq	r0, r1
    1b1c:	01145100 	tsteq	r4, r0, lsl #2
    1b20:	01180000 	tsteq	r8, r0
    1b24:	00030000 	andeq	r0, r3, r0
    1b28:	189f7f71 	ldmne	pc, {r0, r4, r5, r6, r8, r9, sl, fp, ip, sp, lr}	; <UNPREDICTABLE>
    1b2c:	1c000001 	stcne	0, cr0, [r0], {1}
    1b30:	01000001 	tsteq	r0, r1
    1b34:	011c5100 	tsteq	ip, r0, lsl #2
    1b38:	01300000 	teqeq	r0, r0
    1b3c:	00030000 	andeq	r0, r3, r0
    1b40:	3c9f7f71 	ldccc	15, cr7, [pc], {113}	; 0x71
    1b44:	48000001 	stmdami	r0, {r0}
    1b48:	05000001 	streq	r0, [r0, #-1]
    1b4c:	3a007100 	bcc	1df54 <__bss_end+0x1aa04>
    1b50:	00009f24 	andeq	r9, r0, r4, lsr #30
    1b54:	00000000 	andeq	r0, r0, r0
    1b58:	01300000 	teqeq	r0, r0
    1b5c:	013c0000 	teqeq	ip, r0
    1b60:	00010000 	andeq	r0, r1, r0
    1b64:	0000005c 	andeq	r0, r0, ip, asr r0
    1b68:	00000000 	andeq	r0, r0, r0
    1b6c:	00014800 	andeq	r4, r1, r0, lsl #16
    1b70:	00017400 	andeq	r7, r1, r0, lsl #8
    1b74:	50000100 	andpl	r0, r0, r0, lsl #2
	...
    1b84:	0000001c 	andeq	r0, r0, ip, lsl r0
    1b88:	00500001 	subseq	r0, r0, r1
    1b8c:	00000000 	andeq	r0, r0, r0
    1b90:	40000000 	andmi	r0, r0, r0
    1b94:	50000000 	andpl	r0, r0, r0
    1b98:	01000000 	mrseq	r0, (UNDEF: 0)
    1b9c:	00505000 	subseq	r5, r0, r0
    1ba0:	007c0000 	rsbseq	r0, ip, r0
    1ba4:	00010000 	andeq	r0, r1, r0
    1ba8:	00000052 	andeq	r0, r0, r2, asr r0
    1bac:	00000000 	andeq	r0, r0, r0
    1bb0:	00007c00 	andeq	r7, r0, r0, lsl #24
    1bb4:	00009400 	andeq	r9, r0, r0, lsl #8
    1bb8:	50000100 	andpl	r0, r0, r0, lsl #2
    1bbc:	00000094 	muleq	r0, r4, r0
    1bc0:	000000a8 	andeq	r0, r0, r8, lsr #1
    1bc4:	00520001 	subseq	r0, r2, r1
    1bc8:	00000000 	andeq	r0, r0, r0
    1bcc:	b0000000 	andlt	r0, r0, r0
    1bd0:	b4000000 	strlt	r0, [r0], #-0
    1bd4:	02000000 	andeq	r0, r0, #0
    1bd8:	b4007d00 	strlt	r7, [r0], #-3328	; 0xd00
    1bdc:	20000000 	andcs	r0, r0, r0
    1be0:	02000001 	andeq	r0, r0, #1
    1be4:	00107d00 	andseq	r7, r0, r0, lsl #26
    1be8:	00000000 	andeq	r0, r0, r0
    1bec:	b0000000 	andlt	r0, r0, r0
    1bf0:	d0000000 	andle	r0, r0, r0
    1bf4:	01000000 	mrseq	r0, (UNDEF: 0)
    1bf8:	00d05000 	sbcseq	r5, r0, r0
    1bfc:	01200000 	teqeq	r0, r0
    1c00:	00010000 	andeq	r0, r1, r0
    1c04:	00000054 	andeq	r0, r0, r4, asr r0
    1c08:	00000000 	andeq	r0, r0, r0
    1c0c:	00012000 	andeq	r2, r1, r0
    1c10:	00012800 	andeq	r2, r1, r0, lsl #16
    1c14:	7d000200 	sfmvc	f0, 4, [r0, #-0]
    1c18:	00012800 	andeq	r2, r1, r0, lsl #16
    1c1c:	00016800 	andeq	r6, r1, r0, lsl #16
    1c20:	7d000200 	sfmvc	f0, 4, [r0, #-0]
    1c24:	00000004 	andeq	r0, r0, r4
    1c28:	00000000 	andeq	r0, r0, r0
    1c2c:	00012000 	andeq	r2, r1, r0
    1c30:	00012c00 	andeq	r2, r1, r0, lsl #24
    1c34:	50000100 	andpl	r0, r0, r0, lsl #2
    1c38:	0000012c 	andeq	r0, r0, ip, lsr #2
    1c3c:	00000168 	andeq	r0, r0, r8, ror #2
    1c40:	00520001 	subseq	r0, r2, r1
    1c44:	00000000 	andeq	r0, r0, r0
    1c48:	68000000 	stmdavs	r0, {}	; <UNPREDICTABLE>
    1c4c:	80000001 	andhi	r0, r0, r1
    1c50:	02000001 	andeq	r0, r0, #1
    1c54:	80007d00 	andhi	r7, r0, r0, lsl #26
    1c58:	bc000001 	stclt	0, cr0, [r0], {1}
    1c5c:	02000001 	andeq	r0, r0, #1
    1c60:	00047d00 	andeq	r7, r4, r0, lsl #26
    1c64:	00000000 	andeq	r0, r0, r0
    1c68:	68000000 	stmdavs	r0, {}	; <UNPREDICTABLE>
    1c6c:	88000001 	stmdahi	r0, {r0}
    1c70:	01000001 	tsteq	r0, r1
    1c74:	01885000 	orreq	r5, r8, r0
    1c78:	01a80000 			; <UNDEFINED> instruction: 0x01a80000
    1c7c:	00010000 	andeq	r0, r1, r0
    1c80:	00000051 	andeq	r0, r0, r1, asr r0
    1c84:	00000000 	andeq	r0, r0, r0
    1c88:	0001bc00 	andeq	fp, r1, r0, lsl #24
    1c8c:	0001d000 	andeq	sp, r1, r0
    1c90:	7d000200 	sfmvc	f0, 4, [r0, #-0]
    1c94:	0001d000 	andeq	sp, r1, r0
    1c98:	00020400 	andeq	r0, r2, r0, lsl #8
    1c9c:	7d000200 	sfmvc	f0, 4, [r0, #-0]
    1ca0:	00000008 	andeq	r0, r0, r8
    1ca4:	00000000 	andeq	r0, r0, r0
    1ca8:	0001bc00 	andeq	fp, r1, r0, lsl #24
    1cac:	0001dc00 	andeq	sp, r1, r0, lsl #24
    1cb0:	50000100 	andpl	r0, r0, r0, lsl #2
    1cb4:	000001dc 	ldrdeq	r0, [r0], -ip
    1cb8:	00000204 	andeq	r0, r0, r4, lsl #4
    1cbc:	00510001 	subseq	r0, r1, r1
    1cc0:	00000000 	andeq	r0, r0, r0
    1cc4:	04000000 	streq	r0, [r0], #-0
    1cc8:	0c000002 	stceq	0, cr0, [r0], {2}
    1ccc:	01000002 	tsteq	r0, r2
    1cd0:	020c5000 	andeq	r5, ip, #0
    1cd4:	028c0000 	addeq	r0, ip, #0
    1cd8:	00010000 	andeq	r0, r1, r0
    1cdc:	00000052 	andeq	r0, r0, r2, asr r0
    1ce0:	00000000 	andeq	r0, r0, r0
    1ce4:	0002b800 	andeq	fp, r2, r0, lsl #16
    1ce8:	0002c800 	andeq	ip, r2, r0, lsl #16
    1cec:	50000100 	andpl	r0, r0, r0, lsl #2
    1cf0:	000002c8 	andeq	r0, r0, r8, asr #5
    1cf4:	00000348 	andeq	r0, r0, r8, asr #6
    1cf8:	00520001 	subseq	r0, r2, r1
    1cfc:	00000000 	andeq	r0, r0, r0
    1d00:	48000000 	stmdami	r0, {}	; <UNPREDICTABLE>
    1d04:	50000003 	andpl	r0, r0, r3
    1d08:	02000003 	andeq	r0, r0, #3
    1d0c:	50007d00 	andpl	r7, r0, r0, lsl #26
    1d10:	a4000003 	strge	r0, [r0], #-3
    1d14:	02000003 	andeq	r0, r0, #3
    1d18:	00047d00 	andeq	r7, r4, r0, lsl #26
    1d1c:	00000000 	andeq	r0, r0, r0
    1d20:	48000000 	stmdami	r0, {}	; <UNPREDICTABLE>
    1d24:	80000003 	andhi	r0, r0, r3
    1d28:	02000003 	andeq	r0, r0, #3
    1d2c:	809f3100 	addshi	r3, pc, r0, lsl #2
    1d30:	90000003 	andls	r0, r0, r3
    1d34:	01000003 	tsteq	r0, r3
    1d38:	00005000 	andeq	r5, r0, r0
    1d3c:	00000000 	andeq	r0, r0, r0
    1d40:	03480000 	movteq	r0, #32768	; 0x8000
    1d44:	03840000 	orreq	r0, r4, #0
    1d48:	00020000 	andeq	r0, r2, r0
    1d4c:	03849f31 	orreq	r9, r4, #196	; 0xc4
    1d50:	039f0000 	orrseq	r0, pc, #0
    1d54:	00030000 	andeq	r0, r3, r0
    1d58:	009f017c 	addseq	r0, pc, ip, ror r1	; <UNPREDICTABLE>
    1d5c:	00000000 	andeq	r0, r0, r0
    1d60:	48000000 	stmdami	r0, {}	; <UNPREDICTABLE>
    1d64:	8c000003 	stchi	0, cr0, [r0], {3}
    1d68:	02000003 	andeq	r0, r0, #3
    1d6c:	8c9f3100 	ldfhis	f3, [pc], {0}
    1d70:	98000003 	stmdals	r0, {r0, r1}
    1d74:	01000003 	tsteq	r0, r3
    1d78:	00005100 	andeq	r5, r0, r0, lsl #2
    1d7c:	00000000 	andeq	r0, r0, r0
    1d80:	03480000 	movteq	r0, #32768	; 0x8000
    1d84:	03600000 	cmneq	r0, #0
    1d88:	00020000 	andeq	r0, r2, r0
    1d8c:	00009f30 	andeq	r9, r0, r0, lsr pc
    1d90:	00000000 	andeq	r0, r0, r0
    1d94:	03480000 	movteq	r0, #32768	; 0x8000
    1d98:	03640000 	cmneq	r4, #0
    1d9c:	00020000 	andeq	r0, r2, r0
    1da0:	03649f30 	cmneq	r4, #192	; 0xc0
    1da4:	03700000 	cmneq	r0, #0
    1da8:	00040000 	andeq	r0, r4, r0
    1dac:	9f5dc00a 	svcls	0x005dc00a
    1db0:	00000370 	andeq	r0, r0, r0, ror r3
    1db4:	000003a4 	andeq	r0, r0, r4, lsr #7
    1db8:	9f300002 	svcls	0x00300002
	...

Disassembly of section .debug_frame:

00000000 <.debug_frame>:
   0:	0000000c 	andeq	r0, r0, ip
   4:	ffffffff 			; <UNDEFINED> instruction: 0xffffffff
   8:	7c020001 	stcvc	0, cr0, [r2], {1}
   c:	000d0c0e 	andeq	r0, sp, lr, lsl #24
  10:	0000000c 	andeq	r0, r0, ip
  14:	00000000 	andeq	r0, r0, r0
  18:	0000008c 	andeq	r0, r0, ip, lsl #1
  1c:	00000028 	andeq	r0, r0, r8, lsr #32
  20:	0000000c 	andeq	r0, r0, ip
  24:	ffffffff 			; <UNDEFINED> instruction: 0xffffffff
  28:	7c020001 	stcvc	0, cr0, [r2], {1}
  2c:	000d0c0e 	andeq	r0, sp, lr, lsl #24
  30:	00000018 	andeq	r0, r0, r8, lsl r0
  34:	00000020 	andeq	r0, r0, r0, lsr #32
  38:	000000dc 	ldrdeq	r0, [r0], -ip
  3c:	00000138 	andeq	r0, r0, r8, lsr r1
  40:	8e100e42 	cdphi	14, 1, cr0, cr0, cr2, {2}
  44:	84028501 	strhi	r8, [r2], #-1281	; 0x501
  48:	00048303 	andeq	r8, r4, r3, lsl #6
  4c:	00000018 	andeq	r0, r0, r8, lsl r0
  50:	00000020 	andeq	r0, r0, r0, lsr #32
  54:	00000214 	andeq	r0, r0, r4, lsl r2
  58:	0000016c 	andeq	r0, r0, ip, ror #2
  5c:	8e100e42 	cdphi	14, 1, cr0, cr0, cr2, {2}
  60:	84028501 	strhi	r8, [r2], #-1281	; 0x501
  64:	00048303 	andeq	r8, r4, r3, lsl #6
  68:	0000000c 	andeq	r0, r0, ip
  6c:	ffffffff 			; <UNDEFINED> instruction: 0xffffffff
  70:	7c020001 	stcvc	0, cr0, [r2], {1}
  74:	000d0c0e 	andeq	r0, sp, lr, lsl #24
  78:	00000010 	andeq	r0, r0, r0, lsl r0
  7c:	00000068 	andeq	r0, r0, r8, rrx
  80:	00000380 	andeq	r0, r0, r0, lsl #7
  84:	00000020 	andeq	r0, r0, r0, lsr #32
  88:	00080e42 	andeq	r0, r8, r2, asr #28
  8c:	0000000c 	andeq	r0, r0, ip
  90:	00000068 	andeq	r0, r0, r8, rrx
  94:	000003a0 	andeq	r0, r0, r0, lsr #7
  98:	00000004 	andeq	r0, r0, r4
  9c:	0000000c 	andeq	r0, r0, ip
  a0:	00000068 	andeq	r0, r0, r8, rrx
  a4:	000003a4 	andeq	r0, r0, r4, lsr #7
  a8:	00000004 	andeq	r0, r0, r4
  ac:	0000000c 	andeq	r0, r0, ip
  b0:	00000068 	andeq	r0, r0, r8, rrx
  b4:	000003a8 	andeq	r0, r0, r8, lsr #7
  b8:	00000024 	andeq	r0, r0, r4, lsr #32
  bc:	0000000c 	andeq	r0, r0, ip
  c0:	00000068 	andeq	r0, r0, r8, rrx
  c4:	000003cc 	andeq	r0, r0, ip, asr #7
  c8:	00000024 	andeq	r0, r0, r4, lsr #32
  cc:	00000014 	andeq	r0, r0, r4, lsl r0
  d0:	00000068 	andeq	r0, r0, r8, rrx
  d4:	000003f0 	strdeq	r0, [r0], -r0	; <UNPREDICTABLE>
  d8:	00000094 	muleq	r0, r4, r0
  dc:	8e080e42 	cdphi	14, 0, cr0, cr8, cr2, {2}
  e0:	00028401 	andeq	r8, r2, r1, lsl #8
  e4:	0000000c 	andeq	r0, r0, ip
  e8:	00000068 	andeq	r0, r0, r8, rrx
  ec:	00000484 	andeq	r0, r0, r4, lsl #9
  f0:	00000004 	andeq	r0, r0, r4
  f4:	00000018 	andeq	r0, r0, r8, lsl r0
  f8:	00000068 	andeq	r0, r0, r8, rrx
  fc:	00000488 	andeq	r0, r0, r8, lsl #9
 100:	00000094 	muleq	r0, r4, r0
 104:	8e080e42 	cdphi	14, 0, cr0, cr8, cr2, {2}
 108:	42028401 	andmi	r8, r2, #16777216	; 0x1000000
 10c:	0000100e 	andeq	r1, r0, lr
 110:	00000014 	andeq	r0, r0, r4, lsl r0
 114:	00000068 	andeq	r0, r0, r8, rrx
 118:	0000051c 	andeq	r0, r0, ip, lsl r5
 11c:	00000054 	andeq	r0, r0, r4, asr r0
 120:	8e080e42 	cdphi	14, 0, cr0, cr8, cr2, {2}
 124:	00028401 	andeq	r8, r2, r1, lsl #8
 128:	00000018 	andeq	r0, r0, r8, lsl r0
 12c:	00000068 	andeq	r0, r0, r8, rrx
 130:	00000570 	andeq	r0, r0, r0, ror r5
 134:	00000078 	andeq	r0, r0, r8, ror r0
 138:	8e100e42 	cdphi	14, 1, cr0, cr0, cr2, {2}
 13c:	85028601 	strhi	r8, [r2, #-1537]	; 0x601
 140:	00048403 	andeq	r8, r4, r3, lsl #8
 144:	00000018 	andeq	r0, r0, r8, lsl r0
 148:	00000068 	andeq	r0, r0, r8, rrx
 14c:	000005e8 	andeq	r0, r0, r8, ror #11
 150:	00000094 	muleq	r0, r4, r0
 154:	8e0c0e42 	cdphi	14, 0, cr0, cr12, cr2, {2}
 158:	84028501 	strhi	r8, [r2], #-1281	; 0x501
 15c:	180e4203 	stmdane	lr, {r0, r1, r9, lr}
 160:	0000000c 	andeq	r0, r0, ip
 164:	00000068 	andeq	r0, r0, r8, rrx
 168:	0000067c 	andeq	r0, r0, ip, ror r6
 16c:	00000018 	andeq	r0, r0, r8, lsl r0
 170:	0000000c 	andeq	r0, r0, ip
 174:	00000068 	andeq	r0, r0, r8, rrx
 178:	00000694 	muleq	r0, r4, r6
 17c:	00000018 	andeq	r0, r0, r8, lsl r0
 180:	0000000c 	andeq	r0, r0, ip
 184:	00000068 	andeq	r0, r0, r8, rrx
 188:	000006ac 	andeq	r0, r0, ip, lsr #13
 18c:	00000018 	andeq	r0, r0, r8, lsl r0
 190:	00000018 	andeq	r0, r0, r8, lsl r0
 194:	00000068 	andeq	r0, r0, r8, rrx
 198:	000006c4 	andeq	r0, r0, r4, asr #13
 19c:	00000034 	andeq	r0, r0, r4, lsr r0
 1a0:	8e100e42 	cdphi	14, 1, cr0, cr0, cr2, {2}
 1a4:	85028601 	strhi	r8, [r2, #-1537]	; 0x601
 1a8:	00048403 	andeq	r8, r4, r3, lsl #8
 1ac:	0000000c 	andeq	r0, r0, ip
 1b0:	ffffffff 			; <UNDEFINED> instruction: 0xffffffff
 1b4:	7c020001 	stcvc	0, cr0, [r2], {1}
 1b8:	000d0c0e 	andeq	r0, sp, lr, lsl #24
 1bc:	0000000c 	andeq	r0, r0, ip
 1c0:	000001ac 	andeq	r0, r0, ip, lsr #3
 1c4:	000006f8 	strdeq	r0, [r0], -r8
 1c8:	00000034 	andeq	r0, r0, r4, lsr r0
 1cc:	0000000c 	andeq	r0, r0, ip
 1d0:	000001ac 	andeq	r0, r0, ip, lsr #3
 1d4:	0000072c 	andeq	r0, r0, ip, lsr #14
 1d8:	0000001c 	andeq	r0, r0, ip, lsl r0
 1dc:	0000000c 	andeq	r0, r0, ip
 1e0:	000001ac 	andeq	r0, r0, ip, lsr #3
 1e4:	00000748 	andeq	r0, r0, r8, asr #14
 1e8:	00000024 	andeq	r0, r0, r4, lsr #32
 1ec:	0000000c 	andeq	r0, r0, ip
 1f0:	000001ac 	andeq	r0, r0, ip, lsr #3
 1f4:	0000076c 	andeq	r0, r0, ip, ror #14
 1f8:	00000008 	andeq	r0, r0, r8
 1fc:	0000000c 	andeq	r0, r0, ip
 200:	000001ac 	andeq	r0, r0, ip, lsr #3
 204:	00000774 	andeq	r0, r0, r4, ror r7
 208:	00000010 	andeq	r0, r0, r0, lsl r0
 20c:	00000014 	andeq	r0, r0, r4, lsl r0
 210:	000001ac 	andeq	r0, r0, ip, lsr #3
 214:	00000784 	andeq	r0, r0, r4, lsl #15
 218:	00000034 	andeq	r0, r0, r4, lsr r0
 21c:	8e080e42 	cdphi	14, 0, cr0, cr8, cr2, {2}
 220:	00028401 	andeq	r8, r2, r1, lsl #8
 224:	00000018 	andeq	r0, r0, r8, lsl r0
 228:	000001ac 	andeq	r0, r0, ip, lsr #3
 22c:	000007b8 			; <UNDEFINED> instruction: 0x000007b8
 230:	00000088 	andeq	r0, r0, r8, lsl #1
 234:	8e100e42 	cdphi	14, 1, cr0, cr0, cr2, {2}
 238:	84028501 	strhi	r8, [r2], #-1281	; 0x501
 23c:	00048303 	andeq	r8, r4, r3, lsl #6
 240:	00000014 	andeq	r0, r0, r4, lsl r0
 244:	000001ac 	andeq	r0, r0, ip, lsr #3
 248:	00000840 	andeq	r0, r0, r0, asr #16
 24c:	00000034 	andeq	r0, r0, r4, lsr r0
 250:	8e080e44 	cdphi	14, 0, cr0, cr8, cr4, {2}
 254:	00028401 	andeq	r8, r2, r1, lsl #8
 258:	0000000c 	andeq	r0, r0, ip
 25c:	000001ac 	andeq	r0, r0, ip, lsr #3
 260:	00000874 	andeq	r0, r0, r4, ror r8
 264:	0000002c 	andeq	r0, r0, ip, lsr #32
 268:	0000000c 	andeq	r0, r0, ip
 26c:	000001ac 	andeq	r0, r0, ip, lsr #3
 270:	000008a0 	andeq	r0, r0, r0, lsr #17
 274:	0000002c 	andeq	r0, r0, ip, lsr #32
 278:	0000000c 	andeq	r0, r0, ip
 27c:	000001ac 	andeq	r0, r0, ip, lsr #3
 280:	000008cc 	andeq	r0, r0, ip, asr #17
 284:	0000002c 	andeq	r0, r0, ip, lsr #32
 288:	0000000c 	andeq	r0, r0, ip
 28c:	ffffffff 			; <UNDEFINED> instruction: 0xffffffff
 290:	7c020001 	stcvc	0, cr0, [r2], {1}
 294:	000d0c0e 	andeq	r0, sp, lr, lsl #24
 298:	0000000c 	andeq	r0, r0, ip
 29c:	00000288 	andeq	r0, r0, r8, lsl #5
 2a0:	00000900 	andeq	r0, r0, r0, lsl #18
 2a4:	0000003c 	andeq	r0, r0, ip, lsr r0
 2a8:	0000000c 	andeq	r0, r0, ip
 2ac:	00000288 	andeq	r0, r0, r8, lsl #5
 2b0:	0000093c 	andeq	r0, r0, ip, lsr r9
 2b4:	00000064 	andeq	r0, r0, r4, rrx
 2b8:	0000000c 	andeq	r0, r0, ip
 2bc:	ffffffff 			; <UNDEFINED> instruction: 0xffffffff
 2c0:	7c020001 	stcvc	0, cr0, [r2], {1}
 2c4:	000d0c0e 	andeq	r0, sp, lr, lsl #24
 2c8:	0000000c 	andeq	r0, r0, ip
 2cc:	000002b8 			; <UNDEFINED> instruction: 0x000002b8
 2d0:	00000f00 	andeq	r0, r0, r0, lsl #30
 2d4:	00000404 	andeq	r0, r0, r4, lsl #8
 2d8:	0000000c 	andeq	r0, r0, ip
 2dc:	000002b8 			; <UNDEFINED> instruction: 0x000002b8
 2e0:	00001304 	andeq	r1, r0, r4, lsl #6
 2e4:	000002c4 	andeq	r0, r0, r4, asr #5
 2e8:	0000000c 	andeq	r0, r0, ip
 2ec:	000002b8 			; <UNDEFINED> instruction: 0x000002b8
 2f0:	000015c8 	andeq	r1, r0, r8, asr #11
 2f4:	00000018 	andeq	r0, r0, r8, lsl r0
 2f8:	0000000c 	andeq	r0, r0, ip
 2fc:	000002b8 			; <UNDEFINED> instruction: 0x000002b8
 300:	000015e0 	andeq	r1, r0, r0, ror #11
 304:	00000094 	muleq	r0, r4, r0
 308:	0000000c 	andeq	r0, r0, ip
 30c:	000002b8 			; <UNDEFINED> instruction: 0x000002b8
 310:	00001674 	andeq	r1, r0, r4, ror r6
 314:	0000000c 	andeq	r0, r0, ip
 318:	0000000c 	andeq	r0, r0, ip
 31c:	000002b8 			; <UNDEFINED> instruction: 0x000002b8
 320:	00001680 	andeq	r1, r0, r0, lsl #13
 324:	0000000c 	andeq	r0, r0, ip
 328:	0000000c 	andeq	r0, r0, ip
 32c:	000002b8 			; <UNDEFINED> instruction: 0x000002b8
 330:	0000168c 	andeq	r1, r0, ip, lsl #13
 334:	00000014 	andeq	r0, r0, r4, lsl r0
 338:	0000000c 	andeq	r0, r0, ip
 33c:	000002b8 			; <UNDEFINED> instruction: 0x000002b8
 340:	000016a0 	andeq	r1, r0, r0, lsr #13
 344:	00000010 	andeq	r0, r0, r0, lsl r0
 348:	0000000c 	andeq	r0, r0, ip
 34c:	ffffffff 			; <UNDEFINED> instruction: 0xffffffff
 350:	7c020001 	stcvc	0, cr0, [r2], {1}
 354:	000d0c0e 	andeq	r0, sp, lr, lsl #24
 358:	00000018 	andeq	r0, r0, r8, lsl r0
 35c:	00000348 	andeq	r0, r0, r8, asr #6
 360:	000016b0 			; <UNDEFINED> instruction: 0x000016b0
 364:	000000a8 	andeq	r0, r0, r8, lsr #1
 368:	8e100e42 	cdphi	14, 1, cr0, cr0, cr2, {2}
 36c:	84028501 	strhi	r8, [r2], #-1281	; 0x501
 370:	00048303 	andeq	r8, r4, r3, lsl #6
 374:	00000018 	andeq	r0, r0, r8, lsl r0
 378:	00000348 	andeq	r0, r0, r8, asr #6
 37c:	00001758 	andeq	r1, r0, r8, asr r7
 380:	000000ac 	andeq	r0, r0, ip, lsr #1
 384:	8e100e42 	cdphi	14, 1, cr0, cr0, cr2, {2}
 388:	84028501 	strhi	r8, [r2], #-1281	; 0x501
 38c:	00048303 	andeq	r8, r4, r3, lsl #6
 390:	0000000c 	andeq	r0, r0, ip
 394:	00000348 	andeq	r0, r0, r8, asr #6
 398:	00001804 	andeq	r1, r0, r4, lsl #16
 39c:	00000040 	andeq	r0, r0, r0, asr #32
 3a0:	00000018 	andeq	r0, r0, r8, lsl r0
 3a4:	00000348 	andeq	r0, r0, r8, asr #6
 3a8:	00001844 	andeq	r1, r0, r4, asr #16
 3ac:	00000084 	andeq	r0, r0, r4, lsl #1
 3b0:	8e100e42 	cdphi	14, 1, cr0, cr0, cr2, {2}
 3b4:	84028501 	strhi	r8, [r2], #-1281	; 0x501
 3b8:	00048303 	andeq	r8, r4, r3, lsl #6
 3bc:	00000014 	andeq	r0, r0, r4, lsl r0
 3c0:	00000348 	andeq	r0, r0, r8, asr #6
 3c4:	000018c8 	andeq	r1, r0, r8, asr #17
 3c8:	000000b0 	strheq	r0, [r0], -r0	; <UNPREDICTABLE>
 3cc:	84040e44 	strhi	r0, [r4], #-3652	; 0xe44
 3d0:	00000001 	andeq	r0, r0, r1
 3d4:	00000014 	andeq	r0, r0, r4, lsl r0
 3d8:	00000348 	andeq	r0, r0, r8, asr #6
 3dc:	00001978 	andeq	r1, r0, r8, ror r9
 3e0:	0000008c 	andeq	r0, r0, ip, lsl #1
 3e4:	84040e44 	strhi	r0, [r4], #-3652	; 0xe44
 3e8:	00000001 	andeq	r0, r0, r1
 3ec:	0000000c 	andeq	r0, r0, ip
 3f0:	00000348 	andeq	r0, r0, r8, asr #6
 3f4:	00001a04 	andeq	r1, r0, r4, lsl #20
 3f8:	00000014 	andeq	r0, r0, r4, lsl r0
 3fc:	0000000c 	andeq	r0, r0, ip
 400:	00000348 	andeq	r0, r0, r8, asr #6
 404:	00001a18 	andeq	r1, r0, r8, lsl sl
 408:	00000014 	andeq	r0, r0, r4, lsl r0
 40c:	00000018 	andeq	r0, r0, r8, lsl r0
 410:	00000348 	andeq	r0, r0, r8, asr #6
 414:	00001a2c 	andeq	r1, r0, ip, lsr #20
 418:	0000008c 	andeq	r0, r0, ip, lsl #1
 41c:	8e100e42 	cdphi	14, 1, cr0, cr0, cr2, {2}
 420:	84028501 	strhi	r8, [r2], #-1281	; 0x501
 424:	00048303 	andeq	r8, r4, r3, lsl #6
 428:	00000014 	andeq	r0, r0, r4, lsl r0
 42c:	00000348 	andeq	r0, r0, r8, asr #6
 430:	00001ab8 			; <UNDEFINED> instruction: 0x00001ab8
 434:	000000b0 	strheq	r0, [r0], -r0	; <UNPREDICTABLE>
 438:	84040e44 	strhi	r0, [r4], #-3652	; 0xe44
 43c:	00000001 	andeq	r0, r0, r1
 440:	00000014 	andeq	r0, r0, r4, lsl r0
 444:	00000348 	andeq	r0, r0, r8, asr #6
 448:	00001b68 	andeq	r1, r0, r8, ror #22
 44c:	0000008c 	andeq	r0, r0, ip, lsl #1
 450:	84040e44 	strhi	r0, [r4], #-3652	; 0xe44
 454:	00000001 	andeq	r0, r0, r1
 458:	0000000c 	andeq	r0, r0, ip
 45c:	ffffffff 			; <UNDEFINED> instruction: 0xffffffff
 460:	7c020001 	stcvc	0, cr0, [r2], {1}
 464:	000d0c0e 	andeq	r0, sp, lr, lsl #24
 468:	00000020 	andeq	r0, r0, r0, lsr #32
 46c:	00000458 	andeq	r0, r0, r8, asr r4
 470:	00001bf4 	strdeq	r1, [r0], -r4
 474:	000000bc 	strheq	r0, [r0], -ip
 478:	8e1c0e42 	cdphi	14, 1, cr0, cr12, cr2, {2}
 47c:	88028a01 	stmdahi	r2, {r0, r9, fp, pc}
 480:	86048703 	strhi	r8, [r4], -r3, lsl #14
 484:	84068505 	strhi	r8, [r6], #-1285	; 0x505
 488:	480e4c07 	stmdami	lr, {r0, r1, r2, sl, fp, lr}
 48c:	0000001c 	andeq	r0, r0, ip, lsl r0
 490:	00000458 	andeq	r0, r0, r8, asr r4
 494:	00001cb0 			; <UNDEFINED> instruction: 0x00001cb0
 498:	000000a8 	andeq	r0, r0, r8, lsr #1
 49c:	87100e42 	ldrhi	r0, [r0, -r2, asr #28]
 4a0:	85028601 	strhi	r8, [r2, #-1537]	; 0x601
 4a4:	4c048403 	cfstrsmi	mvf8, [r4], {3}
 4a8:	0000280e 	andeq	r2, r0, lr, lsl #16
 4ac:	0000001c 	andeq	r0, r0, ip, lsl r0
 4b0:	00000458 	andeq	r0, r0, r8, asr r4
 4b4:	00001d58 	andeq	r1, r0, r8, asr sp
 4b8:	000000e8 	andeq	r0, r0, r8, ror #1
 4bc:	88140e42 	ldmdahi	r4, {r1, r6, r9, sl, fp}
 4c0:	86028701 	strhi	r8, [r2], -r1, lsl #14
 4c4:	84048503 	strhi	r8, [r4], #-1283	; 0x503
 4c8:	400e4a05 	andmi	r4, lr, r5, lsl #20
 4cc:	00000030 	andeq	r0, r0, r0, lsr r0
 4d0:	00000458 	andeq	r0, r0, r8, asr r4
 4d4:	00001e40 	andeq	r1, r0, r0, asr #28
 4d8:	000002d0 	ldrdeq	r0, [r0], -r0	; <UNPREDICTABLE>
 4dc:	83100e42 	tsthi	r0, #1056	; 0x420
 4e0:	81028201 	tsthi	r2, r1, lsl #4
 4e4:	42048003 	andmi	r8, r4, #3
 4e8:	058e300e 	streq	r3, [lr, #14]
 4ec:	0789068a 	streq	r0, [r9, sl, lsl #13]
 4f0:	09870888 	stmibeq	r7, {r3, r7, fp}
 4f4:	0b850a86 	bleq	fe142f14 <__bss_end+0xfe13f9c4>
 4f8:	0e420c84 	cdpeq	12, 4, cr0, cr2, cr4, {4}
 4fc:	00000048 	andeq	r0, r0, r8, asr #32
 500:	00000030 	andeq	r0, r0, r0, lsr r0
 504:	00000458 	andeq	r0, r0, r8, asr r4
 508:	00002110 	andeq	r2, r0, r0, lsl r1
 50c:	000002d0 	ldrdeq	r0, [r0], -r0	; <UNPREDICTABLE>
 510:	83100e42 	tsthi	r0, #1056	; 0x420
 514:	81028201 	tsthi	r2, r1, lsl #4
 518:	42048003 	andmi	r8, r4, #3
 51c:	058e300e 	streq	r3, [lr, #14]
 520:	0789068a 	streq	r0, [r9, sl, lsl #13]
 524:	09870888 	stmibeq	r7, {r3, r7, fp}
 528:	0b850a86 	bleq	fe142f48 <__bss_end+0xfe13f9f8>
 52c:	0e420c84 	cdpeq	12, 4, cr0, cr2, cr4, {4}
 530:	00000048 	andeq	r0, r0, r8, asr #32
 534:	0000000c 	andeq	r0, r0, ip
 538:	ffffffff 			; <UNDEFINED> instruction: 0xffffffff
 53c:	7c020001 	stcvc	0, cr0, [r2], {1}
 540:	000d0c0e 	andeq	r0, sp, lr, lsl #24
 544:	0000000c 	andeq	r0, r0, ip
 548:	00000534 	andeq	r0, r0, r4, lsr r5
 54c:	000025bc 			; <UNDEFINED> instruction: 0x000025bc
 550:	0000000c 	andeq	r0, r0, ip
 554:	0000000c 	andeq	r0, r0, ip
 558:	00000534 	andeq	r0, r0, r4, lsr r5
 55c:	000025c8 	andeq	r2, r0, r8, asr #11
 560:	0000004c 	andeq	r0, r0, ip, asr #32
 564:	0000000c 	andeq	r0, r0, ip
 568:	ffffffff 			; <UNDEFINED> instruction: 0xffffffff
 56c:	7c020001 	stcvc	0, cr0, [r2], {1}
 570:	000d0c0e 	andeq	r0, sp, lr, lsl #24
 574:	00000014 	andeq	r0, r0, r4, lsl r0
 578:	00000564 	andeq	r0, r0, r4, ror #10
 57c:	00002614 	andeq	r2, r0, r4, lsl r6
 580:	00000090 	muleq	r0, r0, r0
 584:	8e080e48 	cdphi	14, 0, cr0, cr8, cr8, {2}
 588:	00028401 	andeq	r8, r2, r1, lsl #8
 58c:	00000010 	andeq	r0, r0, r0, lsl r0
 590:	00000564 	andeq	r0, r0, r4, ror #10
 594:	000026a4 	andeq	r2, r0, r4, lsr #13
 598:	00000054 	andeq	r0, r0, r4, asr r0
 59c:	00080e44 	andeq	r0, r8, r4, asr #28
 5a0:	0000000c 	andeq	r0, r0, ip
 5a4:	00000564 	andeq	r0, r0, r4, ror #10
 5a8:	000026f8 	strdeq	r2, [r0], -r8
 5ac:	0000005c 	andeq	r0, r0, ip, asr r0
 5b0:	0000000c 	andeq	r0, r0, ip
 5b4:	00000564 	andeq	r0, r0, r4, ror #10
 5b8:	00002754 	andeq	r2, r0, r4, asr r7
 5bc:	0000005c 	andeq	r0, r0, ip, asr r0
 5c0:	0000000c 	andeq	r0, r0, ip
 5c4:	ffffffff 			; <UNDEFINED> instruction: 0xffffffff
 5c8:	7c020001 	stcvc	0, cr0, [r2], {1}
 5cc:	000d0c0e 	andeq	r0, sp, lr, lsl #24
 5d0:	0000000c 	andeq	r0, r0, ip
 5d4:	000005c0 	andeq	r0, r0, r0, asr #11
 5d8:	000027b0 			; <UNDEFINED> instruction: 0x000027b0
 5dc:	0000002c 	andeq	r0, r0, ip, lsr #32
 5e0:	0000000c 	andeq	r0, r0, ip
 5e4:	000005c0 	andeq	r0, r0, r0, asr #11
 5e8:	000027dc 	ldrdeq	r2, [r0], -ip
 5ec:	0000002c 	andeq	r0, r0, ip, lsr #32
 5f0:	0000000c 	andeq	r0, r0, ip
 5f4:	000005c0 	andeq	r0, r0, r0, asr #11
 5f8:	00002808 	andeq	r2, r0, r8, lsl #16
 5fc:	00000048 	andeq	r0, r0, r8, asr #32
 600:	0000000c 	andeq	r0, r0, ip
 604:	ffffffff 			; <UNDEFINED> instruction: 0xffffffff
 608:	7c020001 	stcvc	0, cr0, [r2], {1}
 60c:	000d0c0e 	andeq	r0, sp, lr, lsl #24
 610:	0000000c 	andeq	r0, r0, ip
 614:	00000600 	andeq	r0, r0, r0, lsl #12
 618:	00002850 	andeq	r2, r0, r0, asr r8
 61c:	00000060 	andeq	r0, r0, r0, rrx
 620:	0000000c 	andeq	r0, r0, ip
 624:	00000600 	andeq	r0, r0, r0, lsl #12
 628:	000028b0 			; <UNDEFINED> instruction: 0x000028b0
 62c:	00000050 	andeq	r0, r0, r0, asr r0
 630:	0000000c 	andeq	r0, r0, ip
 634:	00000600 	andeq	r0, r0, r0, lsl #12
 638:	00002900 	andeq	r2, r0, r0, lsl #18
 63c:	00000038 	andeq	r0, r0, r8, lsr r0
 640:	0000000c 	andeq	r0, r0, ip
 644:	00000600 	andeq	r0, r0, r0, lsl #12
 648:	00002938 	andeq	r2, r0, r8, lsr r9
 64c:	00000028 	andeq	r0, r0, r8, lsr #32
 650:	0000000c 	andeq	r0, r0, ip
 654:	00000600 	andeq	r0, r0, r0, lsl #12
 658:	00002960 	andeq	r2, r0, r0, ror #18
 65c:	00000048 	andeq	r0, r0, r8, asr #32
 660:	0000000c 	andeq	r0, r0, ip
 664:	00000600 	andeq	r0, r0, r0, lsl #12
 668:	000029a8 	andeq	r2, r0, r8, lsr #19
 66c:	00000040 	andeq	r0, r0, r0, asr #32
 670:	0000000c 	andeq	r0, r0, ip
 674:	00000600 	andeq	r0, r0, r0, lsl #12
 678:	000029e8 	andeq	r2, r0, r8, ror #19
 67c:	00000050 	andeq	r0, r0, r0, asr r0
 680:	0000000c 	andeq	r0, r0, ip
 684:	ffffffff 			; <UNDEFINED> instruction: 0xffffffff
 688:	7c020001 	stcvc	0, cr0, [r2], {1}
 68c:	000d0c0e 	andeq	r0, sp, lr, lsl #24
 690:	0000000c 	andeq	r0, r0, ip
 694:	00000680 	andeq	r0, r0, r0, lsl #13
 698:	00002a38 	andeq	r2, r0, r8, lsr sl
 69c:	00000030 	andeq	r0, r0, r0, lsr r0
 6a0:	0000000c 	andeq	r0, r0, ip
 6a4:	00000680 	andeq	r0, r0, r0, lsl #13
 6a8:	00002a68 	andeq	r2, r0, r8, ror #20
 6ac:	00000028 	andeq	r0, r0, r8, lsr #32
 6b0:	0000000c 	andeq	r0, r0, ip
 6b4:	ffffffff 			; <UNDEFINED> instruction: 0xffffffff
 6b8:	7c020001 	stcvc	0, cr0, [r2], {1}
 6bc:	000d0c0e 	andeq	r0, sp, lr, lsl #24
 6c0:	0000000c 	andeq	r0, r0, ip
 6c4:	000006b0 			; <UNDEFINED> instruction: 0x000006b0
 6c8:	00002a90 	muleq	r0, r0, sl
 6cc:	00000030 	andeq	r0, r0, r0, lsr r0
 6d0:	00000014 	andeq	r0, r0, r4, lsl r0
 6d4:	000006b0 			; <UNDEFINED> instruction: 0x000006b0
 6d8:	00002ac0 	andeq	r2, r0, r0, asr #21
 6dc:	0000007c 	andeq	r0, r0, ip, ror r0
 6e0:	8e080e42 	cdphi	14, 0, cr0, cr8, cr2, {2}
 6e4:	00028301 	andeq	r8, r2, r1, lsl #6
 6e8:	0000000c 	andeq	r0, r0, ip
 6ec:	000006b0 			; <UNDEFINED> instruction: 0x000006b0
 6f0:	00002b3c 	andeq	r2, r0, ip, lsr fp
 6f4:	00000030 	andeq	r0, r0, r0, lsr r0
 6f8:	0000000c 	andeq	r0, r0, ip
 6fc:	000006b0 			; <UNDEFINED> instruction: 0x000006b0
 700:	00002b6c 	andeq	r2, r0, ip, ror #22
 704:	0000006c 	andeq	r0, r0, ip, rrx
 708:	0000000c 	andeq	r0, r0, ip
 70c:	000006b0 			; <UNDEFINED> instruction: 0x000006b0
 710:	00002bd8 	ldrdeq	r2, [r0], -r8
 714:	00000030 	andeq	r0, r0, r0, lsr r0
 718:	0000000c 	andeq	r0, r0, ip
 71c:	ffffffff 			; <UNDEFINED> instruction: 0xffffffff
 720:	7c020001 	stcvc	0, cr0, [r2], {1}
 724:	000d0c0e 	andeq	r0, sp, lr, lsl #24
 728:	0000000c 	andeq	r0, r0, ip
 72c:	00000718 	andeq	r0, r0, r8, lsl r7
 730:	00002c08 	andeq	r2, r0, r8, lsl #24
 734:	00000030 	andeq	r0, r0, r0, lsr r0
 738:	0000000c 	andeq	r0, r0, ip
 73c:	00000718 	andeq	r0, r0, r8, lsl r7
 740:	00002c38 	andeq	r2, r0, r8, lsr ip
 744:	00000010 	andeq	r0, r0, r0, lsl r0
 748:	0000000c 	andeq	r0, r0, ip
 74c:	00000718 	andeq	r0, r0, r8, lsl r7
 750:	00002c48 	andeq	r2, r0, r8, asr #24
 754:	0000003c 	andeq	r0, r0, ip, lsr r0
 758:	0000000c 	andeq	r0, r0, ip
 75c:	00000718 	andeq	r0, r0, r8, lsl r7
 760:	00002c84 	andeq	r2, r0, r4, lsl #25
 764:	00000034 	andeq	r0, r0, r4, lsr r0
 768:	00000018 	andeq	r0, r0, r8, lsl r0
 76c:	00000718 	andeq	r0, r0, r8, lsl r7
 770:	00002cb8 			; <UNDEFINED> instruction: 0x00002cb8
 774:	00000070 	andeq	r0, r0, r0, ror r0
 778:	8e100e42 	cdphi	14, 1, cr0, cr0, cr2, {2}
 77c:	84028501 	strhi	r8, [r2], #-1281	; 0x501
 780:	00048303 	andeq	r8, r4, r3, lsl #6
 784:	00000014 	andeq	r0, r0, r4, lsl r0
 788:	00000718 	andeq	r0, r0, r8, lsl r7
 78c:	00002d28 	andeq	r2, r0, r8, lsr #26
 790:	00000048 	andeq	r0, r0, r8, asr #32
 794:	84040e44 	strhi	r0, [r4], #-3652	; 0xe44
 798:	00000001 	andeq	r0, r0, r1
 79c:	00000014 	andeq	r0, r0, r4, lsl r0
 7a0:	00000718 	andeq	r0, r0, r8, lsl r7
 7a4:	00002d70 	andeq	r2, r0, r0, ror sp
 7a8:	00000054 	andeq	r0, r0, r4, asr r0
 7ac:	84040e4c 	strhi	r0, [r4], #-3660	; 0xe4c
 7b0:	00000001 	andeq	r0, r0, r1
 7b4:	00000014 	andeq	r0, r0, r4, lsl r0
 7b8:	00000718 	andeq	r0, r0, r8, lsl r7
 7bc:	00002dc4 	andeq	r2, r0, r4, asr #27
 7c0:	00000048 	andeq	r0, r0, r8, asr #32
 7c4:	85080e4a 	strhi	r0, [r8, #-3658]	; 0xe4a
 7c8:	00028401 	andeq	r8, r2, r1, lsl #8
 7cc:	0000000c 	andeq	r0, r0, ip
 7d0:	00000718 	andeq	r0, r0, r8, lsl r7
 7d4:	00002e0c 	andeq	r2, r0, ip, lsl #28
 7d8:	000000b4 	strheq	r0, [r0], -r4
 7dc:	0000000c 	andeq	r0, r0, ip
 7e0:	00000718 	andeq	r0, r0, r8, lsl r7
 7e4:	00002ec0 	andeq	r2, r0, r0, asr #29
 7e8:	00000090 	muleq	r0, r0, r0
 7ec:	00000014 	andeq	r0, r0, r4, lsl r0
 7f0:	00000718 	andeq	r0, r0, r8, lsl r7
 7f4:	00002f50 	andeq	r2, r0, r0, asr pc
 7f8:	0000005c 	andeq	r0, r0, ip, asr r0
 7fc:	84040e44 	strhi	r0, [r4], #-3652	; 0xe44
 800:	00000001 	andeq	r0, r0, r1

Disassembly of section .debug_ranges:

00000000 <.debug_ranges>:
   0:	000000e4 	andeq	r0, r0, r4, ror #1
   4:	000000f4 	strdeq	r0, [r0], -r4
   8:	000000fc 	strdeq	r0, [r0], -ip
   c:	00000108 	andeq	r0, r0, r8, lsl #2
	...
  18:	000000e4 	andeq	r0, r0, r4, ror #1
  1c:	000000f4 	strdeq	r0, [r0], -r4
  20:	000000fc 	strdeq	r0, [r0], -ip
  24:	00000108 	andeq	r0, r0, r8, lsl #2
	...
  30:	000001d0 	ldrdeq	r0, [r0], -r0	; <UNPREDICTABLE>
  34:	000001d8 	ldrdeq	r0, [r0], -r8
  38:	00000210 	andeq	r0, r0, r0, lsl r2
  3c:	00000214 	andeq	r0, r0, r4, lsl r2
	...
  48:	0000023c 	andeq	r0, r0, ip, lsr r2
  4c:	00000240 	andeq	r0, r0, r0, asr #4
  50:	00000244 	andeq	r0, r0, r4, asr #4
  54:	0000024c 	andeq	r0, r0, ip, asr #4
  58:	00000298 	muleq	r0, r8, r2
  5c:	000002c8 	andeq	r0, r0, r8, asr #5
	...
  68:	000002f4 	strdeq	r0, [r0], -r4
  6c:	000002f8 	strdeq	r0, [r0], -r8
  70:	000002fc 	strdeq	r0, [r0], -ip
  74:	00000300 	andeq	r0, r0, r0, lsl #6
  78:	00000308 	andeq	r0, r0, r8, lsl #6
  7c:	00000324 	andeq	r0, r0, r4, lsr #6
  80:	0000032c 	andeq	r0, r0, ip, lsr #6
  84:	00000334 	andeq	r0, r0, r4, lsr r3
	...
  90:	000002f4 	strdeq	r0, [r0], -r4
  94:	000002f8 	strdeq	r0, [r0], -r8
  98:	000002fc 	strdeq	r0, [r0], -ip
  9c:	00000300 	andeq	r0, r0, r0, lsl #6
  a0:	00000308 	andeq	r0, r0, r8, lsl #6
  a4:	00000324 	andeq	r0, r0, r4, lsr #6
  a8:	0000032c 	andeq	r0, r0, ip, lsr #6
  ac:	00000334 	andeq	r0, r0, r4, lsr r3
	...
  b8:	0000042c 	andeq	r0, r0, ip, lsr #8
  bc:	00000430 	andeq	r0, r0, r0, lsr r4
  c0:	00000434 	andeq	r0, r0, r4, lsr r4
  c4:	0000043c 	andeq	r0, r0, ip, lsr r4
  c8:	00000488 	andeq	r0, r0, r8, lsl #9
  cc:	000004b8 			; <UNDEFINED> instruction: 0x000004b8
	...
  d8:	000004e4 	andeq	r0, r0, r4, ror #9
  dc:	000004e8 	andeq	r0, r0, r8, ror #9
  e0:	000004ec 	andeq	r0, r0, ip, ror #9
  e4:	000004f0 	strdeq	r0, [r0], -r0	; <UNPREDICTABLE>
  e8:	000004f8 	strdeq	r0, [r0], -r8
  ec:	00000514 	andeq	r0, r0, r4, lsl r5
  f0:	0000051c 	andeq	r0, r0, ip, lsl r5
  f4:	00000524 	andeq	r0, r0, r4, lsr #10
	...
 100:	000004e4 	andeq	r0, r0, r4, ror #9
 104:	000004e8 	andeq	r0, r0, r8, ror #9
 108:	000004ec 	andeq	r0, r0, ip, ror #9
 10c:	000004f0 	strdeq	r0, [r0], -r0	; <UNPREDICTABLE>
 110:	000004f8 	strdeq	r0, [r0], -r8
 114:	00000514 	andeq	r0, r0, r4, lsl r5
 118:	0000051c 	andeq	r0, r0, ip, lsl r5
 11c:	00000524 	andeq	r0, r0, r4, lsr #10
	...
 128:	000000f8 	strdeq	r0, [r0], -r8
 12c:	000000fc 	strdeq	r0, [r0], -ip
 130:	00000100 	andeq	r0, r0, r0, lsl #2
 134:	00000154 	andeq	r0, r0, r4, asr r1
	...
 140:	000000f8 	strdeq	r0, [r0], -r8
 144:	000000fc 	strdeq	r0, [r0], -ip
 148:	00000100 	andeq	r0, r0, r0, lsl #2
 14c:	00000154 	andeq	r0, r0, r4, asr r1
	...
 158:	000000b0 	strheq	r0, [r0], -r0	; <UNPREDICTABLE>
 15c:	000000b4 	strheq	r0, [r0], -r4
 160:	000000c0 	andeq	r0, r0, r0, asr #1
 164:	000000c4 	andeq	r0, r0, r4, asr #1
 168:	000000c8 	andeq	r0, r0, r8, asr #1
 16c:	000000cc 	andeq	r0, r0, ip, asr #1
 170:	000000d0 	ldrdeq	r0, [r0], -r0	; <UNPREDICTABLE>
 174:	000000d4 	ldrdeq	r0, [r0], -r4
	...
 180:	0000014c 	andeq	r0, r0, ip, asr #2
 184:	00000150 	andeq	r0, r0, r0, asr r1
 188:	0000015c 	andeq	r0, r0, ip, asr r1
 18c:	00000160 	andeq	r0, r0, r0, ror #2
 190:	00000164 	andeq	r0, r0, r4, ror #2
 194:	00000168 	andeq	r0, r0, r8, ror #2
 198:	0000016c 	andeq	r0, r0, ip, ror #2
 19c:	00000170 	andeq	r0, r0, r0, ror r1
	...
